
build/program.elf:     file format elf32-littleriscv

Contents of section .text.init:
 0000 17010100 130101fe 97000000 e7800001  ................
 0010 6f000000                             o...            
Contents of section .text:
 0018 37080011 b7050c11 37060811 93081000  7.......7.......
 0028 1307f0ff 97000000 e780801c ef0f0020  ............... 
 0038 97000000 e780c01b ef0f0045 97000000  ...........E....
 0048 e780001b ef0f8067 97000000 e780401a  .......g......@.
 0058 ef0f007a 97000000 e7808019 ef0fd00c  ...z............
 0068 97000000 e780c018 ef0f501f 97000000  ..........P.....
 0078 e7800018 ef0f1049 97000000 e7804017  .......I......@.
 0088 ef0f506f 97000000 e7808016 ef1fc01e  ..Po............
 0098 97000000 e780c015 ef1f4044 97000000  ..........@D....
 00a8 e7800015 ef1fc069 97000000 e7804014  .......i......@.
 00b8 ef1f100c 97000000 e7808013 ef1f9017  ................
 00c8 97000000 e780c012 ef1fd023 97000000  ...........#....
 00d8 e7800012 ef1f5030 97000000 e7804011  ......P0......@.
 00e8 ef1f5050 97000000 e7808010 ef1f9073  ..PP...........s
 00f8 97000000 e780c00f ef2f4018 97000000  ........./@.....
 0108 e780000f ef2f0039 97000000 e780400e  ...../.9......@.
 0118 ef2fc059 97000000 e780800d ef2f8070  ./.Y........./.p
 0128 97000000 e780c00c ef2f100e 97000000  ........./......
 0138 e780000c ef2f1021 97000000 e780400b  ...../.!......@.
 0148 ef2f9034 97000000 e780800a ef2f9047  ./.4........./.G
 0158 97000000 e780c009 ef2f9063 97000000  ........./.c....
 0168 e7800009 ef2fd076 97000000 e7804008  ...../.v......@.
 0178 ef3f0013 97000000 e7808007 ef3fc018  .?...........?..
 0188 97000000 e780c006 ef3f4022 97000000  .........?@"....
 0198 e7800006 ef3fc028 97000000 e7804005  .....?.(......@.
 01a8 ef3f8035 97000000 e7808004 ef3f804d  .?.5.........?.M
 01b8 97000000 e780c003 ef3fc07c 97000000  .........?.|....
 01c8 e7800003 ef3f0064 97000000 e7804002  .....?.d......@.
 01d8 ef3f1015 97000000 e7808001 ef3fd035  .?...........?.5
 01e8 97000000 e780c000 6ff09fe3 83260800  ........o....&..
 01f8 93f61600 e39c06fe 13071700 23a0e500  ............#...
 0208 67800000 13151500 13051500 2320a600  g...........# ..
 0218 93081000 9388f8ff e39e08fe 67800000  ............g...
 0228 9307f0ff 23a0f500 67800f00 13050000  ....#...g.......
 0238 2320a600 93000000 13010000 338f2000  # ..........3. .
 0248 930e0000 93012000 e31cdffd 97000000  ...... .........
 0258 e78080fb 93001000 13011000 338f2000  ............3. .
 0268 930e2000 93013000 e31cdffb 97000000  .. ...0.........
 0278 e78080f9 93003000 13017000 338f2000  ......0...p.3. .
 0288 930ea000 93014000 e31cdff9 97000000  ......@.........
 0298 e78080f7 93000000 3781ffff 338f2000  ........7...3. .
 02a8 b78effff 93015000 e31cdff7 97000000  ......P.........
 02b8 e78080f5 b7000080 13010000 338f2000  ............3. .
 02c8 b70e0080 93016000 e31cdff5 97000000  ......`.........
 02d8 e78080f3 b7000080 3781ffff 338f2000  ........7...3. .
 02e8 b78eff7f 93017000 e31cdff3 97000000  ......p.........
 02f8 e78080f1 93000000 37810000 1301f1ff  ........7.......
 0308 338f2000 b78e0000 938efeff 93018000  3. .............
 0318 e318dff1 97000000 e78000ef b7000080  ................
 0328 9380f0ff 13010000 338f2000 b70e0080  ........3. .....
 0338 938efeff 93019000 e314dfef 97000000  ................
 0348 e78080ec b7000080 9380f0ff 37810000  ............7...
 0358 1301f1ff 338f2000 b78e0080 938eeeff  ....3. .........
 0368 9301a000 e31edfeb 97000000 e780c0e9  ................
 0378 b7000080 37810000 1301f1ff 338f2000  ....7.......3. .
 0388 b78e0080 938efeff 9301b000 e31adfe9  ................
 0398 97000000 e78040e7 b7000080 9380f0ff  ......@.........
 03a8 3781ffff 338f2000 b78eff7f 938efeff  7...3. .........
 03b8 9301c000 e316dfe7 97000000 e780c0e4  ................
 03c8 93000000 1301f0ff 338f2000 930ef0ff  ........3. .....
 03d8 9301d000 e316dfe5 97000000 e780c0e2  ................
 03e8 9300f0ff 13011000 338f2000 930e0000  ........3. .....
 03f8 9301e000 e316dfe3 97000000 e780c0e0  ................
 0408 9300f0ff 1301f0ff 338f2000 930ee0ff  ........3. .....
 0418 9301f000 e316dfe1 97000000 e780c0de  ................
 0428 93001000 37010080 1301f1ff 338f2000  ....7.......3. .
 0438 b70e0080 93010001 e314dfdf 97000000  ................
 0448 e78080dc 9300d000 1301b000 b3802000  .............. .
 0458 930e8001 93011001 e394d0dd 97000000  ................
 0468 e78080da 9300e000 1301b000 33812000  ............3. .
 0478 930e9001 93012001 e314d1db 97000000  ...... .........
 0488 e78080d8 67800f00 13050000 2320a600  ....g.......# ..
 0498 93000000 13010000 338f2040 930e0000  ........3. @....
 04a8 93012000 e31edfd7 97000000 e780c0d5  .. .............
 04b8 93001000 13011000 338f2040 930e0000  ........3. @....
 04c8 93013000 e31edfd5 97000000 e780c0d3  ..0.............
 04d8 93003000 13017000 338f2040 930ec0ff  ..0...p.3. @....
 04e8 93014000 e31edfd3 97000000 e780c0d1  ..@.............
 04f8 93000000 3781ffff 338f2040 b78e0000  ....7...3. @....
 0508 93015000 e31edfd1 97000000 e780c0cf  ..P.............
 0518 b7000080 13010000 338f2040 b70e0080  ........3. @....
 0528 93016000 e31edfcf 97000000 e780c0cd  ..`.............
 0538 b7000080 3781ffff 338f2040 b78e0080  ....7...3. @....
 0548 93017000 e31edfcd 97000000 e780c0cb  ..p.............
 0558 93000000 37810000 1301f1ff 338f2040  ....7.......3. @
 0568 b78effff 938e1e00 93018000 e31adfcb  ................
 0578 97000000 e78040c9 b7000080 9380f0ff  ......@.........
 0588 13010000 338f2040 b70e0080 938efeff  ....3. @........
 0598 93019000 e316dfc9 97000000 e780c0c6  ................
 05a8 b7000080 9380f0ff 37810000 1301f1ff  ........7.......
 05b8 338f2040 b78eff7f 9301a000 e312dfc7  3. @............
 05c8 97000000 e78040c4 b7000080 37810000  ......@.....7...
 05d8 1301f1ff 338f2040 b78eff7f 938e1e00  ....3. @........
 05e8 9301b000 e31edfc3 97000000 e780c0c1  ................
 05f8 b7000080 9380f0ff 3781ffff 338f2040  ........7...3. @
 0608 b78e0080 938efeff 9301c000 e31adfc1  ................
 0618 97000000 e78040bf 93000000 1301f0ff  ......@.........
 0628 338f2040 930e1000 9301d000 e31adfbf  3. @............
 0638 97000000 e78040bd 9300f0ff 13011000  ......@.........
 0648 338f2040 930ee0ff 9301e000 e31adfbd  3. @............
 0658 97000000 e78040bb 9300f0ff 1301f0ff  ......@.........
 0668 338f2040 930e0000 9301f000 e31adfbb  3. @............
 0678 97000000 e78040b9 9300d000 1301b000  ......@.........
 0688 b3802040 930e2000 93010001 e39ad0b9  .. @.. .........
 0698 97000000 e78040b7 9300e000 1301b000  ......@.........
 06a8 33812040 930e3000 93011001 e31ad1b7  3. @..0.........
 06b8 97000000 e78040b5 67800f00 13050000  ......@.g.......
 06c8 2320a600 b70001ff 938000f0 37110f0f  # ..........7...
 06d8 1301f1f0 33ff2000 b71e000f 938e0ef0  ....3. .........
 06e8 93012000 e31edfb3 97000000 e780c0b1  .. .............
 06f8 b710f00f 938000ff 37f1f0f0 1301010f  ........7.......
 0708 33ff2000 b70ef000 938e0e0f 93013000  3. ...........0.
 0718 e318dfb1 97000000 e78000af b700ff00  ................
 0728 9380f00f 37110f0f 1301f1f0 33ff2000  ....7.......3. .
 0738 b70e0f00 938efe00 93014000 e312dfaf  ..........@.....
 0748 97000000 e78040ac b7f00ff0 9380f000  ......@.........
 0758 37f1f0f0 1301010f 33ff2000 b7fe00f0  7.......3. .....
 0768 93015000 e31edfab 97000000 e780c0a9  ..P.............
 0778 b70001ff 938000f0 37110f0f 1301f1f0  ........7.......
 0788 b3f02000 b71e000f 938e0ef0 93016000  .. ...........`.
 0798 e398d0a9 97000000 e78000a7 b710f00f  ................
 07a8 938000ff 37f1f0f0 1301010f 33f12000  ....7.......3. .
 07b8 b70ef000 938e0e0f 93017000 e312d1a7  ..........p.....
 07c8 97000000 e78040a4 b70001ff 938000f0  ......@.........
 07d8 b3f01000 b70e01ff 938e0ef0 93018000  ................
 07e8 e390d0a5 97000000 e78000a2 67800f00  ............g...
 07f8 13050000 2320a600 b70001ff 938000f0  ....# ..........
 0808 37110f0f 1301f1f0 33ef2000 b70e10ff  7.......3. .....
 0818 938efef0 93012000 e314dfa1 97000000  ...... .........
 0828 e780809e b710f00f 938000ff 37f1f0f0  ............7...
 0838 1301010f 33ef2000 b70ef1ff 938e0eff  ....3. .........
 0848 93013000 e31edf9d 97000000 e780c09b  ..0.............
 0858 b700ff00 9380f00f 37110f0f 1301f1f0  ........7.......
 0868 33ef2000 b71eff0f 938efeff 93014000  3. ...........@.
 0878 e318df9b 97000000 e7800099 b7f00ff0  ................
 0888 9380f000 37f1f0f0 1301010f 33ef2000  ....7.......3. .
 0898 b7fefff0 938efe0f 93015000 e312df99  ..........P.....
 08a8 97000000 e7804096 b70001ff 938000f0  ......@.........
 08b8 37110f0f 1301f1f0 b3e02000 b70e10ff  7......... .....
 08c8 938efef0 93016000 e39cd095 97000000  ......`.........
 08d8 e7808093 b70001ff 938000f0 37110f0f  ............7...
 08e8 1301f1f0 33e12000 b70e10ff 938efef0  ....3. .........
 08f8 93017000 e316d193 97000000 e780c090  ..p.............
 0908 b70001ff 938000f0 b3e01000 b70e01ff  ................
 0918 938e0ef0 93018000 e394d091 97000000  ................
 0928 e780808e 67800f00 13050000 2320a600  ....g.......# ..
 0938 b70001ff 938000f0 37110f0f 1301f1f0  ........7.......
 0948 33cf2000 b7fe0ff0 938efe00 93012000  3. ........... .
 0958 e318df8d 97000000 e780008b b710f00f  ................
 0968 938000ff 37f1f0f0 1301010f 33cf2000  ....7.......3. .
 0978 b70e01ff 938e0ef0 93013000 e312df8b  ..........0.....
 0988 97000000 e7804088 b700ff00 9380f00f  ......@.........
 0998 37110f0f 1301f1f0 33cf2000 b71ef00f  7.......3. .....
 09a8 938e0eff 93014000 e31cdf87 97000000  ......@.........
 09b8 e7808085 b7f00ff0 9380f000 37f1f0f0  ............7...
 09c8 1301010f 33cf2000 b70eff00 938efe0f  ....3. .........
 09d8 93015000 e316df85 97000000 e780c082  ..P.............
 09e8 b70001ff 938000f0 37110f0f 1301f1f0  ........7.......
 09f8 b3c02000 b7fe0ff0 938efe00 93016000  .. ...........`.
 0a08 e390d083 97000000 e7800080 b70001ff  ................
 0a18 938000f0 37110f0f 1301f1f0 33c12000  ....7.......3. .
 0a28 b7fe0ff0 938efe00 93017000 631ad1ff  ..........p.c...
 0a38 97f0ffff e780407d b70001ff 938000f0  ......@}........
 0a48 b3c01000 930e0000 93018000 639ad0fd  ............c...
 0a58 97f0ffff e780407b 67800f00 13050000  ......@{g.......
 0a68 2320a600 93001000 13010000 339f2000  # ..........3. .
 0a78 930e1000 93012000 6314dffb 97f0ffff  ...... .c.......
 0a88 e7808078 93001000 13011000 339f2000  ...x........3. .
 0a98 930e2000 93013000 6314dff9 97f0ffff  .. ...0.c.......
 0aa8 e7808076 93001000 13017000 339f2000  ...v......p.3. .
 0ab8 930e0008 93014000 6314dff7 97f0ffff  ......@.c.......
 0ac8 e7808074 93001000 1301e000 339f2000  ...t........3. .
 0ad8 b74e0000 93015000 6314dff5 97f0ffff  .N....P.c.......
 0ae8 e7808072 93001000 1301f001 339f2000  ...r........3. .
 0af8 b70e0080 93016000 6314dff3 97f0ffff  ......`.c.......
 0b08 e7808070 9300f0ff 13010000 339f2000  ...p........3. .
 0b18 930ef0ff 93017000 6314dff1 97f0ffff  ......p.c.......
 0b28 e780806e 9300f0ff 13011000 339f2000  ...n........3. .
 0b38 930ee0ff 93018000 6314dfef 97f0ffff  ........c.......
 0b48 e780806c 9300f0ff 13017000 339f2000  ...l......p.3. .
 0b58 930e00f8 93019000 6314dfed 97f0ffff  ........c.......
 0b68 e780806a 9300f0ff 1301e000 339f2000  ...j........3. .
 0b78 b7ceffff 9301a000 6314dfeb 97f0ffff  ........c.......
 0b88 e7808068 9300f0ff 1301f001 339f2000  ...h........3. .
 0b98 b70e0080 9301b000 6314dfe9 97f0ffff  ........c.......
 0ba8 e7808066 b7202121 93801012 13010000  ...f. !!........
 0bb8 339f2000 b72e2121 938e1e12 9301c000  3. ...!!........
 0bc8 6310dfe7 97f0ffff e7800064 b7202121  c..........d. !!
 0bd8 93801012 13011000 339f2000 b74e4242  ........3. ..NBB
 0be8 938e2e24 9301d000 631cdfe3 97f0ffff  ...$....c.......
 0bf8 e7808061 b7202121 93801012 13017000  ...a. !!......p.
 0c08 339f2000 b79e9090 938e0e08 9301e000  3. .............
 0c18 6318dfe1 97f0ffff e780005f b7202121  c.........._. !!
 0c28 93801012 1301e000 339f2000 b74e4848  ........3. ..NHH
 0c38 9301f000 6316dfdf 97f0ffff e780c05c  ....c..........\
 0c48 b7202121 93801012 1301f001 339f2000  . !!........3. .
 0c58 b70e0080 93010001 6314dfdd 97f0ffff  ........c.......
 0c68 e780805a b7202121 93801012 130100fc  ...Z. !!........
 0c78 339f2000 b72e2121 938e1e12 93011001  3. ...!!........
 0c88 6310dfdb 97f0ffff e7800058 b7202121  c..........X. !!
 0c98 93801012 130110fc 339f2000 b74e4242  ........3. ..NBB
 0ca8 938e2e24 93012001 631cdfd7 97f0ffff  ...$.. .c.......
 0cb8 e7808055 b7202121 93801012 130170fc  ...U. !!......p.
 0cc8 339f2000 b79e9090 938e0e08 93013001  3. ...........0.
 0cd8 6318dfd5 97f0ffff e7800053 b7202121  c..........S. !!
 0ce8 93801012 1301e0fc 339f2000 b74e4848  ........3. ..NHH
 0cf8 93014001 6316dfd3 97f0ffff e780c050  ..@.c..........P
 0d08 67800f00 13050000 2320a600 b7000080  g.......# ......
 0d18 13010000 33df2000 b70e0080 93012000  ....3. ....... .
 0d28 6310dfd1 97f0ffff e780004e b7000080  c..........N....
 0d38 13011000 33df2000 b70e0040 93013000  ....3. ....@..0.
 0d48 6310dfcf 97f0ffff e780004c b7000080  c..........L....
 0d58 13017000 33df2000 b70e0001 93014000  ..p.3. .......@.
 0d68 6310dfcd 97f0ffff e780004a b7000080  c..........J....
 0d78 1301e000 33df2000 b70e0200 93015000  ....3. .......P.
 0d88 6310dfcb 97f0ffff e7800048 b7000080  c..........H....
 0d98 93801000 1301f001 33df2000 930e1000  ........3. .....
 0da8 93016000 631edfc7 97f0ffff e780c045  ..`.c..........E
 0db8 9300f0ff 13010000 33df2000 930ef0ff  ........3. .....
 0dc8 93017000 631edfc5 97f0ffff e780c043  ..p.c..........C
 0dd8 9300f0ff 13011000 33df2000 b70e0080  ........3. .....
 0de8 938efeff 93018000 631cdfc3 97f0ffff  ........c.......
 0df8 e7808041 9300f0ff 13017000 33df2000  ...A......p.3. .
 0e08 b70e0002 938efeff 93019000 631adfc1  ............c...
 0e18 97f0ffff e780403f 9300f0ff 1301e000  ......@?........
 0e28 33df2000 b70e0400 938efeff 9301a000  3. .............
 0e38 6318dfbf 97f0ffff e780003d 9300f0ff  c..........=....
 0e48 1301f001 33df2000 930e1000 9301b000  ....3. .........
 0e58 6318dfbd 97f0ffff e780003b b7202121  c..........;. !!
 0e68 93801012 13010000 33df2000 b72e2121  ........3. ...!!
 0e78 938e1e12 9301c000 6314dfbb 97f0ffff  ........c.......
 0e88 e7808038 b7202121 93801012 13011000  ...8. !!........
 0e98 33df2000 b79e9010 938e0e09 9301d000  3. .............
 0ea8 6310dfb9 97f0ffff e7800036 b7202121  c..........6. !!
 0eb8 93801012 13017000 33df2000 b74e4200  ......p.3. ..NB.
 0ec8 938e2e24 9301e000 631cdfb5 97f0ffff  ...$....c.......
 0ed8 e7808033 b7202121 93801012 1301e000  ...3. !!........
 0ee8 33df2000 b78e0000 938e4e48 9301f000  3. .......NH....
 0ef8 6318dfb3 97f0ffff e7800031 b7202121  c..........1. !!
 0f08 93801012 1301f001 33df2000 930e0000  ........3. .....
 0f18 93010001 6316dfb1 97f0ffff e780c02e  ....c...........
 0f28 b7202121 93801012 130100fc 33df2000  . !!........3. .
 0f38 b72e2121 938e1e12 93011001 6312dfaf  ..!!........c...
 0f48 97f0ffff e780402c b7202121 93801012  ......@,. !!....
 0f58 130110fc 33df2000 b79e9010 938e0e09  ....3. .........
 0f68 93012001 631edfab 97f0ffff e780c029  .. .c..........)
 0f78 67800f00 13050000 2320a600 b7000080  g.......# ......
 0f88 13010000 33df2040 b70e0080 93012000  ....3. @...... .
 0f98 6318dfa9 97f0ffff e7800027 b7000080  c..........'....
 0fa8 13011000 33df2040 b70e00c0 93013000  ....3. @......0.
 0fb8 6318dfa7 97f0ffff e7800025 b7000080  c..........%....
 0fc8 13017000 33df2040 b70e00ff 93014000  ..p.3. @......@.
 0fd8 6318dfa5 97f0ffff e7800023 b7000080  c..........#....
 0fe8 1301e000 33df2040 b70efeff 93015000  ....3. @......P.
 0ff8 6318dfa3 97f0ffff e7800021 b7000080  c..........!....
 1008 93801000 1301f001 33df2040 930ef0ff  ........3. @....
 1018 93016000 6316dfa1 97f0ffff e780c01e  ..`.c...........
 1028 b7000080 9380f0ff 13010000 33df2040  ............3. @
 1038 b70e0080 938efeff 93017000 6312df9f  ..........p.c...
 1048 97f0ffff e780401c b7000080 9380f0ff  ......@.........
 1058 13011000 33df2040 b70e0040 938efeff  ....3. @...@....
 1068 93018000 631edf9b 97f0ffff e780c019  ....c...........
 1078 b7000080 9380f0ff 13017000 33df2040  ..........p.3. @
 1088 b70e0001 938efeff 93019000 631adf99  ............c...
 1098 97f0ffff e7804017 b7000080 9380f0ff  ......@.........
 10a8 1301e000 33df2040 b70e0200 938efeff  ....3. @........
 10b8 9301a000 6316df97 97f0ffff e780c014  ....c...........
 10c8 b7000080 9380f0ff 1301f001 33df2040  ............3. @
 10d8 930e0000 9301b000 6314df95 97f0ffff  ........c.......
 10e8 e7808012 b7808181 93801018 13010000  ................
 10f8 33df2040 b78e8181 938e1e18 9301c000  3. @............
 1108 6310df93 97f0ffff e7800010 b7808181  c...............
 1118 93801018 13011000 33df2040 b7cec0c0  ........3. @....
 1128 938e0e0c 9301d000 631cdf8f 97f0ffff  ........c.......
 1138 e780800d b7808181 93801018 13017000  ..............p.
 1148 33df2040 b70e03ff 938e3e30 9301e000  3. @......>0....
 1158 6318df8d 97f0ffff e780000b b7808181  c...............
 1168 93801018 1301e000 33df2040 b70efeff  ........3. @....
 1178 938e6e60 9301f000 6314df8b 97f0ffff  ..n`....c.......
 1188 e7808008 b7808181 93801018 1301f001  ................
 1198 33df2040 930ef0ff 93010001 6312df89  3. @........c...
 11a8 97f0ffff e7804006 b7808181 93801018  ......@.........
 11b8 130100fc 33df2040 b78e8181 938e1e18  ....3. @........
 11c8 93011001 631edf85 97f0ffff e780c003  ....c...........
 11d8 b7808181 93801018 130110fc 33df2040  ............3. @
 11e8 b7cec0c0 938e0e0c 93012001 631adf83  .......... .c...
 11f8 97f0ffff e7804001 b7808181 93801018  ......@.........
 1208 130170fc 33df2040 b70e03ff 938e3e30  ..p.3. @......>0
 1218 93013001 6316df81 97f0ffff e780c0fe  ..0.c...........
 1228 b7808181 93801018 1301e0fc 33df2040  ............3. @
 1238 b70efeff 938e6e60 93014001 6304df01  ......n`..@.c...
 1248 6fe01ffe 97f0ffff e78000fc b7808181  o...............
 1258 93801018 1301f0ff 33df2040 930ef0ff  ........3. @....
 1268 93015001 6304df01 6fe09ffb 97f0ffff  ..P.c...o.......
 1278 e78080f9 67800f00 13050000 2320a600  ....g.......# ..
 1288 93000000 13010000 33af2000 930e0000  ........3. .....
 1298 93012000 6304df01 6fe09ff8 97f0ffff  .. .c...o.......
 12a8 e78080f6 93001000 13011000 33af2000  ............3. .
 12b8 930e0000 93013000 6304df01 6fe05ff6  ......0.c...o._.
 12c8 97f0ffff e78040f4 93003000 13017000  ......@...0...p.
 12d8 33af2000 930e1000 93014000 6304df01  3. .......@.c...
 12e8 6fe01ff4 97f0ffff e78000f2 93007000  o.............p.
 12f8 13013000 33af2000 930e0000 93015000  ..0.3. .......P.
 1308 6304df01 6fe0dff1 97f0ffff e780c0ef  c...o...........
 1318 93000000 3781ffff 33af2000 930e0000  ....7...3. .....
 1328 93016000 6304df01 6fe09fef 97f0ffff  ..`.c...o.......
 1338 e78080ed b7000080 13010000 33af2000  ............3. .
 1348 930e1000 93017000 6304df01 6fe05fed  ......p.c...o._.
 1358 97f0ffff e78040eb b7000080 3781ffff  ......@.....7...
 1368 33af2000 930e1000 93018000 6304df01  3. .........c...
 1378 6fe01feb 97f0ffff e78000e9 93000000  o...............
 1388 37810000 1301f1ff 33af2000 930e1000  7.......3. .....
 1398 93019000 6304df01 6fe09fe8 97f0ffff  ....c...o.......
 13a8 e78080e6 b7000080 9380f0ff 13010000  ................
 13b8 33af2000 930e0000 9301a000 6304df01  3. .........c...
 13c8 6fe01fe6 97f0ffff e78000e4 b7000080  o...............
 13d8 9380f0ff 37810000 1301f1ff 33af2000  ....7.......3. .
 13e8 930e0000 9301b000 6304df01 6fe05fe3  ........c...o._.
 13f8 97f0ffff e78040e1 b7000080 37810000  ......@.....7...
 1408 1301f1ff 33af2000 930e1000 9301c000  ....3. .........
 1418 6304df01 6fe0dfe0 97f0ffff e780c0de  c...o...........
 1428 b7000080 9380f0ff 3781ffff 33af2000  ........7...3. .
 1438 930e0000 9301d000 6304df01 6fe05fde  ........c...o._.
 1448 97f0ffff e78040dc 93000000 1301f0ff  ......@.........
 1458 33af2000 930e0000 9301e000 6304df01  3. .........c...
 1468 6fe01fdc 97f0ffff e78000da 9300f0ff  o...............
 1478 13011000 33af2000 930e1000 9301f000  ....3. .........
 1488 6304df01 6fe0dfd9 97f0ffff e780c0d7  c...o...........
 1498 9300f0ff 1301f0ff 33af2000 930e0000  ........3. .....
 14a8 93010001 6304df01 6fe09fd7 97f0ffff  ....c...o.......
 14b8 e78080d5 9300e000 1301d000 b3a02000  .............. .
 14c8 930e0000 93011001 6384d001 6fe05fd5  ........c...o._.
 14d8 97f0ffff e78040d3 67800f00 13050000  ......@.g.......
 14e8 2320a600 93000000 13010000 33bf2000  # ..........3. .
 14f8 930e0000 93012000 6304df01 6fe05fd2  ...... .c...o._.
 1508 97f0ffff e78040d0 93001000 13011000  ......@.........
 1518 33bf2000 930e0000 93013000 6304df01  3. .......0.c...
 1528 6fe01fd0 97f0ffff e78000ce 93003000  o.............0.
 1538 13017000 33bf2000 930e1000 93014000  ..p.3. .......@.
 1548 6304df01 6fe0dfcd 97f0ffff e780c0cb  c...o...........
 1558 93007000 13013000 33bf2000 930e0000  ..p...0.3. .....
 1568 93015000 6304df01 6fe09fcb 97f0ffff  ..P.c...o.......
 1578 e78080c9 93000000 3781ffff 33bf2000  ........7...3. .
 1588 930e1000 93016000 6304df01 6fe05fc9  ......`.c...o._.
 1598 97f0ffff e78040c7 b7000080 13010000  ......@.........
 15a8 33bf2000 930e0000 93017000 6304df01  3. .......p.c...
 15b8 6fe01fc7 97f0ffff e78000c5 b7000080  o...............
 15c8 3781ffff 33bf2000 930e1000 93018000  7...3. .........
 15d8 6304df01 6fe0dfc4 97f0ffff e780c0c2  c...o...........
 15e8 93000000 37810000 1301f1ff 33bf2000  ....7.......3. .
 15f8 930e1000 93019000 6304df01 6fe05fc2  ........c...o._.
 1608 97f0ffff e78040c0 b7000080 9380f0ff  ......@.........
 1618 13010000 33bf2000 930e0000 9301a000  ....3. .........
 1628 6304df01 6fe0dfbf 97f0ffff e780c0bd  c...o...........
 1638 b7000080 9380f0ff 37810000 1301f1ff  ........7.......
 1648 33bf2000 930e0000 9301b000 6304df01  3. .........c...
 1658 6fe01fbd 97f0ffff e78000bb b7000080  o...............
 1668 37810000 1301f1ff 33bf2000 930e0000  7.......3. .....
 1678 9301c000 6304df01 6fe09fba 97f0ffff  ....c...o.......
 1688 e78080b8 b7000080 9380f0ff 3781ffff  ............7...
 1698 33bf2000 930e1000 9301d000 6304df01  3. .........c...
 16a8 6fe01fb8 97f0ffff e78000b6 93000000  o...............
 16b8 1301f0ff 33bf2000 930e1000 9301e000  ....3. .........
 16c8 6304df01 6fe0dfb5 97f0ffff e780c0b3  c...o...........
 16d8 9300f0ff 13011000 33bf2000 930e0000  ........3. .....
 16e8 9301f000 6304df01 6fe09fb3 97f0ffff  ....c...o.......
 16f8 e78080b1 9300f0ff 1301f0ff 33bf2000  ............3. .
 1708 930e0000 93010001 6304df01 6fe05fb1  ........c...o._.
 1718 97f0ffff e78040af 9300e000 1301d000  ......@.........
 1728 b3b02000 930e0000 93011001 6384d001  .. .........c...
 1738 6fe01faf 97f0ffff e78000ad 67800f00  o...........g...
 1748 13050000 2320a600 93000000 138f0000  ....# ..........
 1758 930e0000 93012000 6304df01 6fe05fac  ...... .c...o._.
 1768 97f0ffff e78040aa 93001000 138f1000  ......@.........
 1778 930e2000 93013000 6304df01 6fe05faa  .. ...0.c...o._.
 1788 97f0ffff e78040a8 93003000 138f7000  ......@...0...p.
 1798 930ea000 93014000 6304df01 6fe05fa8  ......@.c...o._.
 17a8 97f0ffff e78040a6 93000000 138f0080  ......@.........
 17b8 930e0080 93015000 6304df01 6fe05fa6  ......P.c...o._.
 17c8 97f0ffff e78040a4 b7000080 138f0000  ......@.........
 17d8 b70e0080 93016000 6304df01 6fe05fa4  ......`.c...o._.
 17e8 97f0ffff e78040a2 b7000080 138f0080  ......@.........
 17f8 b70e0080 938e0e80 93017000 6304df01  ..........p.c...
 1808 6fe01fa2 97f0ffff e78000a0 93000000  o...............
 1818 138ff07f 930ef07f 93018000 6304df01  ............c...
 1828 6fe01fa0 97f0ffff e780009e b7000080  o...............
 1838 9380f0ff 138f0000 b70e0080 938efeff  ................
 1848 93019000 6304df01 6fe09f9d 97f0ffff  ....c...o.......
 1858 e780809b b7000080 9380f0ff 138ff07f  ................
 1868 b70e0080 938eee7f 9301a000 6304df01  ............c...
 1878 6fe01f9b 97f0ffff e7800099 b7000080  o...............
 1888 138ff07f b70e0080 938efe7f 9301b000  ................
 1898 6304df01 6fe0df98 97f0ffff e780c096  c...o...........
 18a8 b7000080 9380f0ff 138f0080 b7feff7f  ................
 18b8 938efe7f 9301c000 6304df01 6fe05f96  ........c...o._.
 18c8 97f0ffff e7804094 93000000 138ff0ff  ......@.........
 18d8 930ef0ff 9301d000 6304df01 6fe05f94  ........c...o._.
 18e8 97f0ffff e7804092 9300f0ff 138f1000  ......@.........
 18f8 930e0000 9301e000 6304df01 6fe05f92  ........c...o._.
 1908 97f0ffff e7804090 9300f0ff 138ff0ff  ......@.........
 1918 930ee0ff 9301f000 6304df01 6fe05f90  ........c...o._.
 1928 97f0ffff e780408e b7000080 9380f0ff  ......@.........
 1938 138f1000 b70e0080 93010001 6304df01  ............c...
 1948 6fe01f8e 97f0ffff e780008c 9300d000  o...............
 1958 9380b000 930e8001 93011001 6384d001  ............c...
 1968 6fe01f8c 97f0ffff e780008a 67800f00  o...........g...
 1978 13050000 2320a600 b70001ff 938000f0  ....# ..........
 1988 13fff0f0 b70e01ff 938e0ef0 93012000  .............. .
 1998 6304df01 6fe0df88 97f0ffff e780c086  c...o...........
 19a8 b710f00f 938000ff 13ff000f 930e000f  ................
 19b8 93013000 6304df01 6fe09f86 97f0ffff  ..0.c...o.......
 19c8 e7808084 b700ff00 9380f00f 13fff070  ...............p
 19d8 930ef000 93014000 6304df01 6fe05f84  ......@.c...o._.
 19e8 97f0ffff e7804082 b7f00ff0 9380f000  ......@.........
 19f8 13ff000f 930e0000 93015000 6304df01  ..........P.c...
 1a08 6fe01f82 97f0ffff e7800080 b70001ff  o...............
 1a18 938000f0 93f0000f 930e0000 93016000  ..............`.
 1a28 6384d001 6fe0cfff 97e0ffff e780c07d  c...o..........}
 1a38 67800f00 13050000 2320a600 b70001ff  g.......# ......
 1a48 938000f0 13eff0f0 930ef0f0 93012000  .............. .
 1a58 6304df01 6fe0cffc 97e0ffff e780c07a  c...o..........z
 1a68 b710f00f 938000ff 13ef000f b71ef00f  ................
 1a78 938e0eff 93013000 6304df01 6fe04ffa  ......0.c...o.O.
 1a88 97e0ffff e7804078 b700ff00 9380f00f  ......@x........
 1a98 13eff070 b70eff00 938efe7f 93014000  ...p..........@.
 1aa8 6304df01 6fe0cff7 97e0ffff e780c075  c...o..........u
 1ab8 b7f00ff0 9380f000 13ef000f b7fe0ff0  ................
 1ac8 938efe0f 93015000 6304df01 6fe04ff5  ......P.c...o.O.
 1ad8 97e0ffff e7804073 b70001ff 938000f0  ......@s........
 1ae8 93e0000f b70e01ff 938e0eff 93016000  ..............`.
 1af8 6384d001 6fe0cff2 97e0ffff e780c070  c...o..........p
 1b08 67800f00 13050000 2320a600 b710ff00  g.......# ......
 1b18 938000f0 13cff0f0 b7fe00ff 938efe00  ................
 1b28 93012000 6304df01 6fe08fef 97e0ffff  .. .c...o.......
 1b38 e780806d b710f00f 938000ff 13cf000f  ...m............
 1b48 b71ef00f 938e0ef0 93013000 6304df01  ..........0.c...
 1b58 6fe00fed 97e0ffff e780006b b710ff00  o..........k....
 1b68 9380f08f 13cff070 b71eff00 938e0eff  .......p........
 1b78 93014000 6304df01 6fe08fea 97e0ffff  ..@.c...o.......
 1b88 e7808068 b7f00ff0 9380f000 13cf000f  ...h............
 1b98 b7fe0ff0 938efe0f 93015000 6304df01  ..........P.c...
 1ba8 6fe00fe8 97e0ffff e7800066 b7f000ff  o..........f....
 1bb8 93800070 93c0f070 b7fe00ff 938efe00  ...p...p........
 1bc8 93016000 6384d001 6fe08fe5 97e0ffff  ..`.c...o.......
 1bd8 e7808063 67800f00 13050000 2320a600  ...cg.......# ..
 1be8 93001000 139f0000 930e1000 93012000  .............. .
 1bf8 6304df01 6fe0cfe2 97e0ffff e780c060  c...o..........`
 1c08 93001000 139f1000 930e2000 93013000  .......... ...0.
 1c18 6304df01 6fe0cfe0 97e0ffff e780c05e  c...o..........^
 1c28 93001000 139f7000 930e0008 93014000  ......p.......@.
 1c38 6304df01 6fe0cfde 97e0ffff e780c05c  c...o..........\
 1c48 93001000 139fe000 b74e0000 93015000  .........N....P.
 1c58 6304df01 6fe0cfdc 97e0ffff e780c05a  c...o..........Z
 1c68 93001000 139ff001 b70e0080 93016000  ..............`.
 1c78 6304df01 6fe0cfda 97e0ffff e780c058  c...o..........X
 1c88 9300f0ff 139f0000 930ef0ff 93017000  ..............p.
 1c98 6304df01 6fe0cfd8 97e0ffff e780c056  c...o..........V
 1ca8 9300f0ff 139f1000 930ee0ff 93018000  ................
 1cb8 6304df01 6fe0cfd6 97e0ffff e780c054  c...o..........T
 1cc8 9300f0ff 139f7000 930e00f8 93019000  ......p.........
 1cd8 6304df01 6fe0cfd4 97e0ffff e780c052  c...o..........R
 1ce8 9300f0ff 139fe000 b7ceffff 9301a000  ................
 1cf8 6304df01 6fe0cfd2 97e0ffff e780c050  c...o..........P
 1d08 9300f0ff 139ff001 b70e0080 9301b000  ................
 1d18 6304df01 6fe0cfd0 97e0ffff e780c04e  c...o..........N
 1d28 b7202121 93801012 139f0000 b72e2121  . !!..........!!
 1d38 938e1e12 9301c000 6304df01 6fe04fce  ........c...o.O.
 1d48 97e0ffff e780404c b7202121 93801012  ......@L. !!....
 1d58 139f1000 b74e4242 938e2e24 9301d000  .....NBB...$....
 1d68 6304df01 6fe0cfcb 97e0ffff e780c049  c...o..........I
 1d78 b7202121 93801012 139f7000 b79e9090  . !!......p.....
 1d88 938e0e08 9301e000 6304df01 6fe04fc9  ........c...o.O.
 1d98 97e0ffff e7804047 b7202121 93801012  ......@G. !!....
 1da8 139fe000 b74e4848 9301f000 6304df01  .....NHH....c...
 1db8 6fe00fc7 97e0ffff e7800045 b7202121  o..........E. !!
 1dc8 93801012 139ff001 b70e0080 93010001  ................
 1dd8 6304df01 6fe0cfc4 97e0ffff e780c042  c...o..........B
 1de8 67800f00 13050000 2320a600 b7000080  g.......# ......
 1df8 13df0000 b70e0080 93012000 6304df01  .......... .c...
 1e08 6fe00fc2 97e0ffff e7800040 b7000080  o..........@....
 1e18 13df1000 b70e0040 93013000 6304df01  .......@..0.c...
 1e28 6fe00fc0 97e0ffff e780003e b7000080  o..........>....
 1e38 13df7000 b70e0001 93014000 6304df01  ..p.......@.c...
 1e48 6fe00fbe 97e0ffff e780003c b7000080  o..........<....
 1e58 13dfe000 b70e0200 93015000 6304df01  ..........P.c...
 1e68 6fe00fbc 97e0ffff e780003a b7000080  o..........:....
 1e78 93801000 13dff001 930e1000 93016000  ..............`.
 1e88 6304df01 6fe0cfb9 97e0ffff e780c037  c...o..........7
 1e98 9300f0ff 13df0000 930ef0ff 93017000  ..............p.
 1ea8 6304df01 6fe0cfb7 97e0ffff e780c035  c...o..........5
 1eb8 9300f0ff 13df1000 b70e0080 938efeff  ................
 1ec8 93018000 6304df01 6fe08fb5 97e0ffff  ....c...o.......
 1ed8 e7808033 9300f0ff 13df7000 b70e0002  ...3......p.....
 1ee8 938efeff 93019000 6304df01 6fe04fb3  ........c...o.O.
 1ef8 97e0ffff e7804031 9300f0ff 13dfe000  ......@1........
 1f08 b70e0400 938efeff 9301a000 6304df01  ............c...
 1f18 6fe00fb1 97e0ffff e780002f 9300f0ff  o........../....
 1f28 13dff001 930e1000 9301b000 6304df01  ............c...
 1f38 6fe00faf 97e0ffff e780002d b7202121  o..........-. !!
 1f48 93801012 13df0000 b72e2121 938e1e12  ..........!!....
 1f58 9301c000 6304df01 6fe08fac 97e0ffff  ....c...o.......
 1f68 e780802a b7202121 93801012 13df1000  ...*. !!........
 1f78 b79e9010 938e0e09 9301d000 6304df01  ............c...
 1f88 6fe00faa 97e0ffff e7800028 b7202121  o..........(. !!
 1f98 93801012 13df7000 b74e4200 938e2e24  ......p..NB....$
 1fa8 9301e000 6304df01 6fe08fa7 97e0ffff  ....c...o.......
 1fb8 e7808025 b7202121 93801012 13dfe000  ...%. !!........
 1fc8 b78e0000 938e4e48 9301f000 6304df01  ......NH....c...
 1fd8 6fe00fa5 97e0ffff e7800023 b7202121  o..........#. !!
 1fe8 93801012 13dff001 930e0000 93010001  ................
 1ff8 6304df01 6fe0cfa2 97e0ffff e780c020  c...o.......... 
 2008 b7000080 93d07000 b70e0001 93011001  ......p.........
 2018 6384d001 6fe0cfa0 97e0ffff e780c01e  c...o...........
 2028 67800f00 13050000 2320a600 93000000  g.......# ......
 2038 13df0040 930e0000 93012000 6304df01  ...@...... .c...
 2048 6fe00f9e 97e0ffff e780001c b7000080  o...............
 2058 13df1040 b70e00c0 93013000 6304df01  ...@......0.c...
 2068 6fe00f9c 97e0ffff e780001a b7000080  o...............
 2078 13df7040 b70e00ff 93014000 6304df01  ..p@......@.c...
 2088 6fe00f9a 97e0ffff e7800018 b7000080  o...............
 2098 13dfe040 b70efeff 93015000 6304df01  ...@......P.c...
 20a8 6fe00f98 97e0ffff e7800016 b7000080  o...............
 20b8 93801000 13dff041 930ef0ff 93016000  .......A......`.
 20c8 6304df01 6fe0cf95 97e0ffff e780c013  c...o...........
 20d8 b7000080 9380f0ff 13df0040 b70e0080  ...........@....
 20e8 938efeff 93017000 6304df01 6fe04f93  ......p.c...o.O.
 20f8 97e0ffff e7804011 b7000080 9380f0ff  ......@.........
 2108 13df1040 b70e0040 938efeff 93018000  ...@...@........
 2118 6304df01 6fe0cf90 97e0ffff e780c00e  c...o...........
 2128 b7000080 9380f0ff 13df7040 b70e0001  ..........p@....
 2138 938efeff 93019000 6304df01 6fe04f8e  ........c...o.O.
 2148 97e0ffff e780400c b7000080 9380f0ff  ......@.........
 2158 13dfe040 b70e0200 938efeff 9301a000  ...@............
 2168 6304df01 6fe0cf8b 97e0ffff e780c009  c...o...........
 2178 b7000080 9380f0ff 13dff041 930e0000  ...........A....
 2188 9301b000 6304df01 6fe08f89 97e0ffff  ....c...o.......
 2198 e7808007 b7808181 93801018 13df0040  ...............@
 21a8 b78e8181 938e1e18 9301c000 6304df01  ............c...
 21b8 6fe00f87 97e0ffff e7800005 b7808181  o...............
 21c8 93801018 13df1040 b7cec0c0 938e0e0c  .......@........
 21d8 9301d000 6304df01 6fe08f84 97e0ffff  ....c...o.......
 21e8 e7808002 b7808181 93801018 13df7040  ..............p@
 21f8 b70e03ff 938e3e30 9301e000 6304df01  ......>0....c...
 2208 6fe00f82 97e0ffff e7800000 b7808181  o...............
 2218 93801018 13dfe040 b70efeff 938e6e60  .......@......n`
 2228 9301f000 6304df01 6fd09fff 97e0ffff  ....c...o.......
 2238 e78080fd b7808181 93801018 13dff041  ...............A
 2248 930ef0ff 93010001 6304df01 6fd05ffd  ........c...o._.
 2258 97e0ffff e78040fb b7000080 93d07040  ......@.......p@
 2268 b70e00ff 93011001 6384d001 6fd05ffb  ........c...o._.
 2278 97e0ffff e78040f9 67800f00 13050000  ......@.g.......
 2288 2320a600 93000000 13bf0000 930e0000  # ..............
 2298 93012000 6304df01 6fd09ff8 97e0ffff  .. .c...o.......
 22a8 e78080f6 93001000 13bf1000 930e0000  ................
 22b8 93013000 6304df01 6fd09ff6 97e0ffff  ..0.c...o.......
 22c8 e78080f4 93003000 13bf7000 930e1000  ......0...p.....
 22d8 93014000 6304df01 6fd09ff4 97e0ffff  ..@.c...o.......
 22e8 e78080f2 93007000 13bf3000 930e0000  ......p...0.....
 22f8 93015000 6304df01 6fd09ff2 97e0ffff  ..P.c...o.......
 2308 e78080f0 93000000 13bf0080 930e1000  ................
 2318 93016000 6304df01 6fd09ff0 97e0ffff  ..`.c...o.......
 2328 e78080ee b7000080 13bf0000 930e0000  ................
 2338 93017000 6304df01 6fd09fee 97e0ffff  ..p.c...o.......
 2348 e78080ec b7000080 13bf0080 930e1000  ................
 2358 93018000 6304df01 6fd09fec 97e0ffff  ....c...o.......
 2368 e78080ea 93000000 13bff07f 930e1000  ................
 2378 93019000 6304df01 6fd09fea 97e0ffff  ....c...o.......
 2388 e78080e8 b7000080 9380f0ff 13bf0000  ................
 2398 930e0000 9301a000 6304df01 6fd05fe8  ........c...o._.
 23a8 97e0ffff e78040e6 b7000080 9380f0ff  ......@.........
 23b8 13bff07f 930e0000 9301b000 6304df01  ............c...
 23c8 6fd01fe6 97e0ffff e78000e4 b7000080  o...............
 23d8 13bff07f 930e0000 9301c000 6304df01  ............c...
 23e8 6fd01fe4 97e0ffff e78000e2 b7000080  o...............
 23f8 9380f0ff 13bf0080 930e1000 9301d000  ................
 2408 6304df01 6fd0dfe1 97e0ffff e780c0df  c...o...........
 2418 93000000 13bff0ff 930e1000 9301e000  ................
 2428 6304df01 6fd0dfdf 97e0ffff e780c0dd  c...o...........
 2438 9300f0ff 13bf1000 930e0000 9301f000  ................
 2448 6304df01 6fd0dfdd 97e0ffff e780c0db  c...o...........
 2458 9300f0ff 13bff0ff 930e0000 93010001  ................
 2468 6304df01 6fd0dfdb 97e0ffff e780c0d9  c...o...........
 2478 9300b000 93b0d000 930e1000 93011001  ................
 2488 6384d001 6fd0dfd9 97e0ffff e780c0d7  c...o...........
 2498 67800f00 13050000 2320a600 93000000  g.......# ......
 24a8 13af0000 930e0000 93012000 6304df01  .......... .c...
 24b8 6fd01fd7 97e0ffff e78000d5 93001000  o...............
 24c8 13af1000 930e0000 93013000 6304df01  ..........0.c...
 24d8 6fd01fd5 97e0ffff e78000d3 93003000  o.............0.
 24e8 13af7000 930e1000 93014000 6304df01  ..p.......@.c...
 24f8 6fd01fd3 97e0ffff e78000d1 93007000  o.............p.
 2508 13af3000 930e0000 93015000 6304df01  ..0.......P.c...
 2518 6fd01fd1 97e0ffff e78000cf 93000000  o...............
 2528 13af0080 930e0000 93016000 6304df01  ..........`.c...
 2538 6fd01fcf 97e0ffff e78000cd b7000080  o...............
 2548 13af0000 930e1000 93017000 6304df01  ..........p.c...
 2558 6fd01fcd 97e0ffff e78000cb b7000080  o...............
 2568 13af0080 930e1000 93018000 6304df01  ............c...
 2578 6fd01fcb 97e0ffff e78000c9 93000000  o...............
 2588 13aff07f 930e1000 93019000 6304df01  ............c...
 2598 6fd01fc9 97e0ffff e78000c7 b7000080  o...............
 25a8 9380f0ff 13af0000 930e0000 9301a000  ................
 25b8 6304df01 6fd0dfc6 97e0ffff e780c0c4  c...o...........
 25c8 b7000080 9380f0ff 13aff07f 930e0000  ................
 25d8 9301b000 6304df01 6fd09fc4 97e0ffff  ....c...o.......
 25e8 e78080c2 b7000080 13aff07f 930e1000  ................
 25f8 9301c000 6304df01 6fd09fc2 97e0ffff  ....c...o.......
 2608 e78080c0 b7000080 9380f0ff 13af0080  ................
 2618 930e0000 9301d000 6304df01 6fd05fc0  ........c...o._.
 2628 97e0ffff e78040be 93000000 13aff0ff  ......@.........
 2638 930e0000 9301e000 6304df01 6fd05fbe  ........c...o._.
 2648 97e0ffff e78040bc 9300f0ff 13af1000  ......@.........
 2658 930e1000 9301f000 6304df01 6fd05fbc  ........c...o._.
 2668 97e0ffff e78040ba 9300f0ff 13aff0ff  ......@.........
 2678 930e0000 93010001 6304df01 6fd05fba  ........c...o._.
 2688 97e0ffff e78040b8 9300b000 93a0d000  ......@.........
 2698 930e1000 93011001 6384d001 6fd05fb8  ........c...o._.
 26a8 97e0ffff e78040b6 67800f00 13050000  ......@.g.......
 26b8 2320a600 97200000 93804087 03af0000  # ... ....@.....
 26c8 b70eff00 938efe0f 93012000 6304df01  .......... .c...
 26d8 6fd01fb5 97e0ffff e78000b3 97200000  o............ ..
 26e8 9380c084 03af4000 b70e01ff 938e0ef0  ......@.........
 26f8 93013000 6304df01 6fd09fb2 97e0ffff  ..0.c...o.......
 2708 e78080b0 97200000 93804082 03af8000  ..... ....@.....
 2718 b71ef00f 938e0eff 93014000 6304df01  ..........@.c...
 2728 6fd01fb0 97e0ffff e78000ae 97100000  o...............
 2738 9380c07f 03afc000 b7fe0ff0 938efe00  ................
 2748 93015000 6304df01 6fd09fad 97e0ffff  ..P.c...o.......
 2758 e78080ab 97100000 9380007e 03af40ff  ...........~..@.
 2768 b70eff00 938efe0f 93016000 6304df01  ..........`.c...
 2778 6fd01fab 97e0ffff e78000a9 97100000  o...............
 2788 9380807b 03af80ff b70e01ff 938e0ef0  ...{............
 2798 93017000 6304df01 6fd09fa8 97e0ffff  ..p.c...o.......
 27a8 e78080a6 97100000 93800079 03afc0ff  ...........y....
 27b8 b71ef00f 938e0eff 93018000 6304df01  ............c...
 27c8 6fd01fa6 97e0ffff e78000a4 97100000  o...............
 27d8 93808076 03af0000 b7fe0ff0 938efe00  ...v............
 27e8 93019000 6304df01 6fd09fa3 97e0ffff  ....c...o.......
 27f8 e78080a1 97100000 93804073 938000fe  ..........@s....
 2808 83a20002 b70eff00 938efe0f 9301a000  ................
 2818 6384d201 6fd0dfa0 97e0ffff e780c09e  c...o...........
 2828 67800f00 13050000 2320a600 97100000  g.......# ......
 2838 9380c070 3701aa00 1301a10a 23a02000  ...p7.......#. .
 2848 03af0000 b70eaa00 938eae0a 93012000  .............. .
 2858 6304df01 6fd0df9c 97e0ffff e780c09a  c...o...........
 2868 97100000 9380806d 37b100aa 130101a0  .......m7.......
 2878 23a22000 03af4000 b7be00aa 938e0ea0  #. ...@.........
 2888 93013000 6304df01 6fd09f99 97e0ffff  ..0.c...o.......
 2898 e7808097 97100000 9380406a 3711a00a  ..........@j7...
 28a8 130101aa 23a42000 03af8000 b71ea00a  ....#. .........
 28b8 938e0eaa 93014000 6304df01 6fd05f96  ......@.c...o._.
 28c8 97e0ffff e7804094 97100000 93800067  ......@........g
 28d8 37a10aa0 1301a100 23a62000 03afc000  7.......#. .....
 28e8 b7ae0aa0 938eae00 93015000 6304df01  ..........P.c...
 28f8 6fd01f93 97e0ffff e7800091 97100000  o...............
 2908 93808065 3701aa00 1301a10a 23aa20fe  ...e7.......#. .
 2918 03af40ff b70eaa00 938eae0a 93016000  ..@...........`.
 2928 6304df01 6fd0df8f 97e0ffff e780c08d  c...o...........
 2938 97100000 93804062 37b100aa 130101a0  ......@b7.......
 2948 23ac20fe 03af80ff b7be00aa 938e0ea0  #. .............
 2958 93017000 6304df01 6fd09f8c 97e0ffff  ..p.c...o.......
 2968 e780808a 97100000 9380005f 3711a00a  ..........._7...
 2978 130101aa 23ae20fe 03afc0ff b71ea00a  ....#. .........
 2988 938e0eaa 93018000 6304df01 6fd05f89  ........c...o._.
 2998 97e0ffff e7804087 97100000 9380c05b  ......@........[
 29a8 37a10aa0 1301a100 23a02000 03af0000  7.......#. .....
 29b8 b7ae0aa0 938eae00 93019000 6304df01  ............c...
 29c8 6fd01f86 97e0ffff e7800084 97100000  o...............
 29d8 9380c058 37513412 13018167 138200fe  ...X7Q4....g....
 29e8 23202202 83a20000 b75e3412 938e8e67  # "......^4....g
 29f8 9301a000 6384d201 6fd09f82 97e0ffff  ....c...o.......
 2a08 e7808080 67800f00 13050000 2320a600  ....g.......# ..
 2a18 93012000 93000000 13010000 63882000  .. .........c. .
 2a28 63043000 6fd0cfff 63183000 e38e20fe  c.0.o...c.0... .
 2a38 63043000 6fd0cffe 97d0ffff e780c07c  c.0.o..........|
 2a48 93013000 93001000 13011000 63882000  ..0.........c. .
 2a58 63043000 6fd0cffc 63183000 e38e20fe  c.0.o...c.0... .
 2a68 63043000 6fd0cffb 97d0ffff e780c079  c.0.o..........y
 2a78 93014000 9300f0ff 1301f0ff 63882000  ..@.........c. .
 2a88 63043000 6fd0cff9 63183000 e38e20fe  c.0.o...c.0... .
 2a98 63043000 6fd0cff8 97d0ffff e780c076  c.0.o..........v
 2aa8 93015000 93000000 13011000 63842000  ..P.........c. .
 2ab8 63163000 63043000 6fd08ff6 e38c20fe  c.0.c.0.o..... .
 2ac8 97d0ffff e7804074 93016000 93001000  ......@t..`.....
 2ad8 13010000 63842000 63163000 63043000  ....c. .c.0.c.0.
 2ae8 6fd00ff4 e38c20fe 97d0ffff e780c071  o..... ........q
 2af8 93017000 9300f0ff 13011000 63842000  ..p.........c. .
 2b08 63163000 63043000 6fd08ff1 e38c20fe  c.0.c.0.o..... .
 2b18 97d0ffff e780406f 93018000 93001000  ......@o........
 2b28 1301f0ff 63842000 63163000 63043000  ....c. .c.0.c.0.
 2b38 6fd00fef e38c20fe 97d0ffff e780c06c  o..... ........l
 2b48 67800f00 13050000 2320a600 93012000  g.......# .... .
 2b58 93000000 13011000 63982000 63043000  ........c. .c.0.
 2b68 6fd00fec 63183000 e39e20fe 63043000  o...c.0... .c.0.
 2b78 6fd00feb 97d0ffff e7800069 93013000  o..........i..0.
 2b88 93001000 13010000 63982000 63043000  ........c. .c.0.
 2b98 6fd00fe9 63183000 e39e20fe 63043000  o...c.0... .c.0.
 2ba8 6fd00fe8 97d0ffff e7800066 93014000  o..........f..@.
 2bb8 9300f0ff 13011000 63982000 63043000  ........c. .c.0.
 2bc8 6fd00fe6 63183000 e39e20fe 63043000  o...c.0... .c.0.
 2bd8 6fd00fe5 97d0ffff e7800063 93015000  o..........c..P.
 2be8 93001000 1301f0ff 63982000 63043000  ........c. .c.0.
 2bf8 6fd00fe3 63183000 e39e20fe 63043000  o...c.0... .c.0.
 2c08 6fd00fe2 97d0ffff e7800060 93016000  o..........`..`.
 2c18 93000000 13010000 63942000 63163000  ........c. .c.0.
 2c28 63043000 6fd0cfdf e39c20fe 97d0ffff  c.0.o..... .....
 2c38 e780805d 93017000 93001000 13011000  ...]..p.........
 2c48 63942000 63163000 63043000 6fd04fdd  c. .c.0.c.0.o.O.
 2c58 e39c20fe 97d0ffff e780005b 93018000  .. ........[....
 2c68 9300f0ff 1301f0ff 63942000 63163000  ........c. .c.0.
 2c78 63043000 6fd0cfda e39c20fe 97d0ffff  c.0.o..... .....
 2c88 e7808058 67800f00 13050000 2320a600  ...Xg.......# ..
 2c98 93012000 93000000 13011000 63c82000  .. .........c. .
 2ca8 63043000 6fd0cfd7 63183000 e3ce20fe  c.0.o...c.0... .
 2cb8 63043000 6fd0cfd6 97d0ffff e780c054  c.0.o..........T
 2cc8 93013000 9300f0ff 13011000 63c82000  ..0.........c. .
 2cd8 63043000 6fd0cfd4 63183000 e3ce20fe  c.0.o...c.0... .
 2ce8 63043000 6fd0cfd3 97d0ffff e780c051  c.0.o..........Q
 2cf8 93014000 9300e0ff 1301f0ff 63c82000  ..@.........c. .
 2d08 63043000 6fd0cfd1 63183000 e3ce20fe  c.0.o...c.0... .
 2d18 63043000 6fd0cfd0 97d0ffff e780c04e  c.0.o..........N
 2d28 93015000 93001000 13010000 63c42000  ..P.........c. .
 2d38 63163000 63043000 6fd08fce e3cc20fe  c.0.c.0.o..... .
 2d48 97d0ffff e780404c 93016000 93001000  ......@L..`.....
 2d58 1301f0ff 63c42000 63163000 63043000  ....c. .c.0.c.0.
 2d68 6fd00fcc e3cc20fe 97d0ffff e780c049  o..... ........I
 2d78 93017000 9300f0ff 1301e0ff 63c42000  ..p.........c. .
 2d88 63163000 63043000 6fd08fc9 e3cc20fe  c.0.c.0.o..... .
 2d98 97d0ffff e7804047 93018000 93001000  ......@G........
 2da8 1301e0ff 63c42000 63163000 63043000  ....c. .c.0.c.0.
 2db8 6fd00fc7 e3cc20fe 97d0ffff e780c044  o..... ........D
 2dc8 67800f00 13050000 2320a600 93012000  g.......# .... .
 2dd8 93000000 13010000 63d82000 63043000  ........c. .c.0.
 2de8 6fd00fc4 63183000 e3de20fe 63043000  o...c.0... .c.0.
 2df8 6fd00fc3 97d0ffff e7800041 93013000  o..........A..0.
 2e08 93001000 13011000 63d82000 63043000  ........c. .c.0.
 2e18 6fd00fc1 63183000 e3de20fe 63043000  o...c.0... .c.0.
 2e28 6fd00fc0 97d0ffff e780003e 93014000  o..........>..@.
 2e38 9300f0ff 1301f0ff 63d82000 63043000  ........c. .c.0.
 2e48 6fd00fbe 63183000 e3de20fe 63043000  o...c.0... .c.0.
 2e58 6fd00fbd 97d0ffff e780003b 93015000  o..........;..P.
 2e68 93001000 13010000 63d82000 63043000  ........c. .c.0.
 2e78 6fd00fbb 63183000 e3de20fe 63043000  o...c.0... .c.0.
 2e88 6fd00fba 97d0ffff e7800038 93016000  o..........8..`.
 2e98 93001000 1301f0ff 63d82000 63043000  ........c. .c.0.
 2ea8 6fd00fb8 63183000 e3de20fe 63043000  o...c.0... .c.0.
 2eb8 6fd00fb7 97d0ffff e7800035 93017000  o..........5..p.
 2ec8 9300f0ff 1301e0ff 63d82000 63043000  ........c. .c.0.
 2ed8 6fd00fb5 63183000 e3de20fe 63043000  o...c.0... .c.0.
 2ee8 6fd00fb4 97d0ffff e7800032 93018000  o..........2....
 2ef8 93000000 13011000 63d42000 63163000  ........c. .c.0.
 2f08 63043000 6fd0cfb1 e3dc20fe 97d0ffff  c.0.o..... .....
 2f18 e780802f 93019000 9300f0ff 13011000  .../............
 2f28 63d42000 63163000 63043000 6fd04faf  c. .c.0.c.0.o.O.
 2f38 e3dc20fe 97d0ffff e780002d 9301a000  .. ........-....
 2f48 9300e0ff 1301f0ff 63d42000 63163000  ........c. .c.0.
 2f58 63043000 6fd0cfac e3dc20fe 97d0ffff  c.0.o..... .....
 2f68 e780802a 9301b000 9300e0ff 13011000  ...*............
 2f78 63d42000 63163000 63043000 6fd04faa  c. .c.0.c.0.o.O.
 2f88 e3dc20fe 97d0ffff e7800028 67800f00  .. ........(g...
 2f98 13050000 2320a600 93012000 93000000  ....# .... .....
 2fa8 13011000 63e82000 63043000 6fd04fa7  ....c. .c.0.o.O.
 2fb8 63183000 e3ee20fe 63043000 6fd04fa6  c.0... .c.0.o.O.
 2fc8 97d0ffff e7804024 93013000 9300e0ff  ......@$..0.....
 2fd8 1301f0ff 63e82000 63043000 6fd04fa4  ....c. .c.0.o.O.
 2fe8 63183000 e3ee20fe 63043000 6fd04fa3  c.0... .c.0.o.O.
 2ff8 97d0ffff e7804021 93014000 93000000  ......@!..@.....
 3008 1301f0ff 63e82000 63043000 6fd04fa1  ....c. .c.0.o.O.
 3018 63183000 e3ee20fe 63043000 6fd04fa0  c.0... .c.0.o.O.
 3028 97d0ffff e780401e 93015000 93001000  ......@...P.....
 3038 13010000 63e42000 63163000 63043000  ....c. .c.0.c.0.
 3048 6fd00f9e e3ec20fe 97d0ffff e780c01b  o..... .........
 3058 93016000 9300f0ff 1301e0ff 63e42000  ..`.........c. .
 3068 63163000 63043000 6fd08f9b e3ec20fe  c.0.c.0.o..... .
 3078 97d0ffff e7804019 93017000 9300f0ff  ......@...p.....
 3088 13010000 63e42000 63163000 63043000  ....c. .c.0.c.0.
 3098 6fd00f99 e3ec20fe 97d0ffff e780c016  o..... .........
 30a8 93018000 b7000080 37010080 1301f1ff  ........7.......
 30b8 63e42000 63163000 63043000 6fd04f96  c. .c.0.c.0.o.O.
 30c8 e3ec20fe 97d0ffff e7800014 67800f00  .. .........g...
 30d8 13050000 2320a600 93012000 93000000  ....# .... .....
 30e8 13010000 63f82000 63043000 6fd04f93  ....c. .c.0.o.O.
 30f8 63183000 e3fe20fe 63043000 6fd04f92  c.0... .c.0.o.O.
 3108 97d0ffff e7804010 93013000 93001000  ......@...0.....
 3118 13011000 63f82000 63043000 6fd04f90  ....c. .c.0.o.O.
 3128 63183000 e3fe20fe 63043000 6fd04f8f  c.0... .c.0.o.O.
 3138 97d0ffff e780400d 93014000 9300f0ff  ......@...@.....
 3148 1301f0ff 63f82000 63043000 6fd04f8d  ....c. .c.0.o.O.
 3158 63183000 e3fe20fe 63043000 6fd04f8c  c.0... .c.0.o.O.
 3168 97d0ffff e780400a 93015000 93001000  ......@...P.....
 3178 13010000 63f82000 63043000 6fd04f8a  ....c. .c.0.o.O.
 3188 63183000 e3fe20fe 63043000 6fd04f89  c.0... .c.0.o.O.
 3198 97d0ffff e7804007 93016000 9300f0ff  ......@...`.....
 31a8 1301e0ff 63f82000 63043000 6fd04f87  ....c. .c.0.o.O.
 31b8 63183000 e3fe20fe 63043000 6fd04f86  c.0... .c.0.o.O.
 31c8 97d0ffff e7804004 93017000 9300f0ff  ......@...p.....
 31d8 13010000 63f82000 63043000 6fd04f84  ....c. .c.0.o.O.
 31e8 63183000 e3fe20fe 63043000 6fd04f83  c.0... .c.0.o.O.
 31f8 97d0ffff e7804001 93018000 93000000  ......@.........
 3208 13011000 63f42000 63163000 63043000  ....c. .c.0.c.0.
 3218 6fd00f81 e3fc20fe 97d0ffff e780c0fe  o..... .........
 3228 93019000 9300e0ff 1301f0ff 63f42000  ............c. .
 3238 63163000 63043000 6fc09ffe e3fc20fe  c.0.c.0.o..... .
 3248 97d0ffff e78040fc 9301a000 93000000  ......@.........
 3258 1301f0ff 63f42000 63163000 63043000  ....c. .c.0.c.0.
 3268 6fc01ffc e3fc20fe 97d0ffff e780c0f9  o..... .........
 3278 9301b000 b7000080 9380f0ff 37010080  ............7...
 3288 63f42000 63163000 63043000 6fc05ff9  c. .c.0.c.0.o._.
 3298 e3fc20fe 97d0ffff e78000f7 67800f00  .. .........g...
 32a8 13050000 2320a600 172e0000 130ece71  ....# .........q
 32b8 ef0d4000 330ebe41 b72e0000 938e0e71  ..@.3..A.......q
 32c8 93012000 6304de01 6fc09ff5 97d0ffff  .. .c...o.......
 32d8 e78080f3 13000000 17eeffff 130ece8f  ................
 32e8 ef0d4000 330ebe41 b7eeffff 938e0e8f  ..@.3..A........
 32f8 93013000 6304de01 6fc09ff2 97d0ffff  ..0.c...o.......
 3308 e78080f0 67800f00 13050000 2320a600  ....g.......# ..
 3318 b7000000 930e0000 93012000 6384d001  .......... .c...
 3328 6fc01ff0 97d0ffff e78000ee b7f0ffff  o...............
 3338 93d01040 930e0080 93013000 6384d001  ...@......0.c...
 3348 6fc01fee 97d0ffff e78000ec b7f0ff7f  o...............
 3358 93d04041 930ef07f 93014000 6384d001  ..@A......@.c...
 3368 6fc01fec 97d0ffff e78000ea b7000080  o...............
 3378 93d04041 930e0080 93015000 6384d001  ..@A......P.c...
 3388 6fc01fea 97d0ffff e78000e8 37000080  o...........7...
 3398 930e0000 93016000 6304d001 6fc05fe8  ......`.c...o._.
 33a8 97d0ffff e78040e6 67800f00 13050000  ......@.g.......
 33b8 2320a600 93012000 93000000 6f020001  # .... .....o...
 33c8 13000000 13000000 6fc09fe5 17010000  ........o.......
 33d8 130141ff 63044100 6fc09fe4 97d0ffff  ..A.c.A.o.......
 33e8 e78080e2 93001000 6f004001 93801000  ........o.@.....
 33f8 93801000 93801000 93801000 93801000  ................
 3408 93801000 930e3000 93013000 6384d001  ......0...0.c...
 3418 6fc01fe1 97d0ffff e78000df 67800f00  o...........g...
 3428 13050000 2320a600 93012000 93020000  ....# .... .....
 3438 17030000 13030301 e7020300 6fc05fde  ............o._.
 3448 17030000 1303c3ff 63846200 6fc05fdd  ........c.b.o._.
 3458 97d0ffff e78040db 93014000 13020000  ......@...@.....
 3468 17030000 13034301 e7090300 63043000  ......C.....c.0.
 3478 6fc01fdb 13021200 93022000 e31252fe  o......... ...R.
 3488 97d0ffff e78040d8 93015000 13020000  ......@...P.....
 3498 17030000 13038301 13000000 e7090300  ................
 34a8 63043000 6fc0dfd7 13021200 93022000  c.0.o......... .
 34b8 e31052fe 97d0ffff e78000d5 93016000  ..R...........`.
 34c8 13020000 17030000 1303c301 13000000  ................
 34d8 13000000 e7090300 63043000 6fc05fd4  ........c.0.o._.
 34e8 13021200 93022000 e31e52fc 97d0ffff  ...... ...R.....
 34f8 e78080d1 67800f00 13050000 2320a600  ....g.......# ..
 3508 97100000 9380c0a5 039f0000 930ef00f  ................
 3518 93012000 6304df01 6fc09fd0 97d0ffff  .. .c...o.......
 3528 e78080ce 97100000 938080a3 039f2000  .............. .
 3538 930e00f0 93013000 6304df01 6fc05fce  ......0.c...o._.
 3548 97d0ffff e78040cc 97100000 938040a1  ......@.......@.
 3558 039f4000 b71e0000 938e0eff 93014000  ..@...........@.
 3568 6304df01 6fc0dfcb 97d0ffff e780c0c9  c...o...........
 3578 97100000 9380c09e 039f6000 b7feffff  ..........`.....
 3588 938efe00 93015000 6304df01 6fc05fc9  ......P.c...o._.
 3598 97d0ffff e78040c7 97100000 9380a09c  ......@.........
 35a8 039fa0ff 930ef00f 93016000 6304df01  ..........`.c...
 35b8 6fc01fc7 97d0ffff e78000c5 97100000  o...............
 35c8 9380609a 039fc0ff 930e00f0 93017000  ..`...........p.
 35d8 6304df01 6fc0dfc4 97d0ffff e780c0c2  c...o...........
 35e8 97100000 93802098 039fe0ff b71e0000  ...... .........
 35f8 938e0eff 93018000 6304df01 6fc05fc2  ........c...o._.
 3608 97d0ffff e78040c0 97100000 9380a095  ......@.........
 3618 039f0000 b7feffff 938efe00 93019000  ................
 3628 6304df01 6fc0dfbf 97d0ffff e780c0bd  c...o...........
 3638 97100000 9380c092 938000fe 83920002  ................
 3648 930ef00f 9301a000 6384d201 6fc05fbd  ........c...o._.
 3658 97d0ffff e78040bb 97100000 93804090  ......@.......@.
 3668 9380b0ff 83927000 930e00f0 9301b000  ......p.........
 3678 6384d201 6fc0dfba 97d0ffff e780c0b8  c...o...........
 3688 67800f00 13050000 2320a600 13151500  g.......# ......
 3698 97100000 9380408d 038f0000 930ef0ff  ......@.........
 36a8 93012000 6304df01 6fc09fb7 97d0ffff  .. .c...o.......
 36b8 e78080b5 97100000 9380008b 038f1000  ................
 36c8 930e0000 93013000 6304df01 6fc05fb5  ......0.c...o._.
 36d8 97d0ffff e78040b3 97100000 9380c088  ......@.........
 36e8 038f2000 930e00ff 93014000 6304df01  .. .......@.c...
 36f8 6fc01fb3 97d0ffff e78000b1 97100000  o...............
 3708 93808086 038f3000 930ef000 93015000  ......0.......P.
 3718 6304df01 6fc0dfb0 97d0ffff e780c0ae  c...o...........
 3728 97100000 93807084 038fd0ff 930ef0ff  ......p.........
 3738 93016000 6304df01 6fc09fae 97d0ffff  ..`.c...o.......
 3748 e78080ac 97100000 93803082 038fe0ff  ..........0.....
 3758 930e0000 93017000 6304df01 6fc05fac  ......p.c...o._.
 3768 97d0ffff e78040aa 97000000 9380f07f  ......@.........
 3778 038ff0ff 930e00ff 93018000 6304df01  ............c...
 3788 6fc01faa 97d0ffff e78000a8 97000000  o...............
 3798 9380b07d 038f0000 930ef000 93019000  ...}............
 37a8 6304df01 6fc0dfa7 97d0ffff e780c0a5  c...o...........
 37b8 97000000 9380407b 938000fe 83820002  ......@{........
 37c8 930ef0ff 9301a000 6384d201 6fc05fa5  ........c...o._.
 37d8 97d0ffff e78040a3 97000000 9380c078  ......@........x
 37e8 9380a0ff 83827000 930e0000 9301b000  ......p.........
 37f8 6384d201 6fc0dfa2 97d0ffff e780c0a0  c...o...........
 3808 67800f00 13050000 2320a600 13151500  g.......# ......
 3818 97000000 93804075 03cf0000 930ef00f  ......@u........
 3828 93012000 6304df01 6fc09f9f 97d0ffff  .. .c...o.......
 3838 e780809d 97000000 93800073 03cf1000  ...........s....
 3848 930e0000 93013000 6304df01 6fc05f9d  ......0.c...o._.
 3858 97d0ffff e780409b 97000000 9380c070  ......@........p
 3868 03cf2000 930e000f 93014000 6304df01  .. .......@.c...
 3878 6fc01f9b 97d0ffff e7800099 97000000  o...............
 3888 9380806e 03cf3000 930ef000 93015000  ...n..0.......P.
 3898 6304df01 6fc0df98 97d0ffff e780c096  c...o...........
 38a8 97000000 9380706c 03cfd0ff 930ef00f  ......pl........
 38b8 93016000 6304df01 6fc09f96 97d0ffff  ..`.c...o.......
 38c8 e7808094 97000000 9380306a 03cfe0ff  ..........0j....
 38d8 930e0000 93017000 6304df01 6fc05f94  ......p.c...o._.
 38e8 97d0ffff e7804092 97000000 9380f067  ......@........g
 38f8 03cff0ff 930e000f 93018000 6304df01  ............c...
 3908 6fc01f92 97d0ffff e7800090 97000000  o...............
 3918 9380b065 03cf0000 930ef000 93019000  ...e............
 3928 6304df01 6fc0df8f 97d0ffff e780c08d  c...o...........
 3938 97000000 93804063 938000fe 83c20002  ......@c........
 3948 930ef00f 9301a000 6384d201 6fc05f8d  ........c...o._.
 3958 97d0ffff e780408b 97000000 9380c060  ......@........`
 3968 9380a0ff 83c27000 930e0000 9301b000  ......p.........
 3978 6384d201 6fc0df8a 97d0ffff e780c088  c...o...........
 3988 67800f00 13050000 2320a600 13151500  g.......# ......
 3998 97000000 9380c05c 03df0000 930ef00f  .......\........
 39a8 93012000 6304df01 6fc09f87 97d0ffff  .. .c...o.......
 39b8 e7808085 97000000 9380805a 03df2000  ...........Z.. .
 39c8 b70e0100 938e0ef0 93013000 6304df01  ..........0.c...
 39d8 6fc01f85 97d0ffff e7800083 97000000  o...............
 39e8 93800058 03df4000 b71e0000 938e0eff  ...X..@.........
 39f8 93014000 6304df01 6fc09f82 97d0ffff  ..@.c...o.......
 3a08 e7808080 97000000 93808055 03df6000  ...........U..`.
 3a18 b7fe0000 938efe00 93015000 6304df01  ..........P.c...
 3a28 6fc01f80 97c0ffff e780007e 97000000  o..........~....
 3a38 93806053 03dfa0ff 930ef00f 93016000  ..`S..........`.
 3a48 6304df01 6fc0cffd 97c0ffff e780c07b  c...o..........{
 3a58 97000000 93802051 03dfc0ff b70e0100  ...... Q........
 3a68 938e0ef0 93017000 6304df01 6fc04ffb  ......p.c...o.O.
 3a78 97c0ffff e7804079 97000000 9380a04e  ......@y.......N
 3a88 03dfe0ff b71e0000 938e0eff 93018000  ................
 3a98 6304df01 6fc0cff8 97c0ffff e780c076  c...o..........v
 3aa8 97000000 9380204c 03df0000 b7fe0000  ...... L........
 3ab8 938efe00 93019000 6304df01 6fc04ff6  ........c...o.O.
 3ac8 97c0ffff e7804074 97000000 93804049  ......@t......@I
 3ad8 938000fe 83d20002 930ef00f 9301a000  ................
 3ae8 6384d201 6fc0cff3 97c0ffff e780c071  c...o..........q
 3af8 97000000 9380c046 9380b0ff 83d27000  .......F......p.
 3b08 b70e0100 938e0ef0 9301b000 6384d201  ............c...
 3b18 6fc00ff1 97c0ffff e780006f 67800f00  o..........og...
 3b28 13050000 2320a600 13151500 97000000  ....# ..........
 3b38 93806044 1301a00a 23902000 039f0000  ..`D....#. .....
 3b48 930ea00a 93012000 6304df01 6fc04fed  ...... .c...o.O.
 3b58 97c0ffff e780406b 97000000 9380a041  ......@k.......A
 3b68 37b1ffff 130101a0 23912000 039f2000  7.......#. ... .
 3b78 b7beffff 938e0ea0 93013000 6304df01  ..........0.c...
 3b88 6fc00fea 97c0ffff e7800068 97000000  o..........h....
 3b98 9380603e 3711efbe 130101aa 23922000  ..`>7.......#. .
 3ba8 039f4000 b71e0000 938e0eaa 93014000  ..@...........@.
 3bb8 6304df01 6fc0cfe6 97c0ffff e780c064  c...o..........d
 3bc8 97000000 9380203b 37a1ffff 1301a100  ...... ;7.......
 3bd8 23932000 039f6000 b7aeffff 938eae00  #. ...`.........
 3be8 93015000 6304df01 6fc08fe3 97c0ffff  ..P.c...o.......
 3bf8 e7808061 97000000 9380c038 1301a00a  ...a.......8....
 3c08 239d20fe 039fa0ff 930ea00a 93016000  #. ...........`.
 3c18 6304df01 6fc0cfe0 97c0ffff e780c05e  c...o..........^
 3c28 97000000 93800036 37b1ffff 130101a0  .......67.......
 3c38 239e20fe 039fc0ff b7beffff 938e0ea0  #. .............
 3c48 93017000 6304df01 6fc08fdd 97c0ffff  ..p.c...o.......
 3c58 e780805b 97000000 9380c032 37110000  ...[.......27...
 3c68 130101aa 239f20fe 039fe0ff b71e0000  ....#. .........
 3c78 938e0eaa 93018000 6304df01 6fc04fda  ........c...o.O.
 3c88 97c0ffff e7804058 97000000 9380802f  ......@X......./
 3c98 37a1ffff 1301a100 23902000 039f0000  7.......#. .....
 3ca8 b7aeffff 938eae00 93019000 6304df01  ............c...
 3cb8 6fc00fd7 97c0ffff e7800055 97000000  o..........U....
 3cc8 9380602c 37513412 13018167 138200fe  ..`,7Q4....g....
 3cd8 23102202 83920000 b75e0000 938e8e67  #."......^.....g
 3ce8 9301a000 6384d201 6fc08fd3 97c0ffff  ....c...o.......
 3cf8 e7808051 97000000 9380e028 37310000  ...Q.......(71..
 3d08 13018109 9380b0ff a3932000 17020000  .......... .....
 3d18 13028227 83120200 b73e0000 938e8e09  ...'.....>......
 3d28 9301b000 6384d201 6fc08fcf 97c0ffff  ....c...o.......
 3d38 e780804d 67800f00 13050000 2320a600  ...Mg.......# ..
 3d48 13151500 97000000 93804022 1301a0fa  ..........@"....
 3d58 23802000 038f0000 930ea0fa 93012000  #. ........... .
 3d68 6304df01 6fc0cfcb 97c0ffff e780c049  c...o..........I
 3d78 97000000 9380801f 13010000 a3802000  .............. .
 3d88 038f1000 930e0000 93013000 6304df01  ..........0.c...
 3d98 6fc00fc9 97c0ffff e7800047 97000000  o..........G....
 3da8 9380c01c 37f1ffff 130101fa 23812000  ....7.......#. .
 3db8 038f2000 930e00fa 93014000 6304df01  .. .......@.c...
 3dc8 6fc00fc6 97c0ffff e7800044 97000000  o..........D....
 3dd8 9380c019 1301a000 a3812000 038f3000  .......... ...0.
 3de8 930ea000 93015000 6304df01 6fc04fc3  ......P.c...o.O.
 3df8 97c0ffff e7804041 97000000 93807017  ......@A......p.
 3e08 1301a0fa a38e20fe 038fd0ff 930ea0fa  ...... .........
 3e18 93016000 6304df01 6fc08fc0 97c0ffff  ..`.c...o.......
 3e28 e780803e 97000000 9380b014 13010000  ...>............
 3e38 238f20fe 038fe0ff 930e0000 93017000  #. ...........p.
 3e48 6304df01 6fc0cfbd 97c0ffff e780c03b  c...o..........;
 3e58 97000000 9380f011 130100fa a38f20fe  .............. .
 3e68 038ff0ff 930e00fa 93018000 6304df01  ............c...
 3e78 6fc00fbb 97c0ffff e7800039 97000000  o..........9....
 3e88 9380300f 1301a000 23802000 038f0000  ..0.....#. .....
 3e98 930ea000 93019000 6304df01 6fc04fb8  ........c...o.O.
 3ea8 97c0ffff e7804036 97000000 9380800c  ......@6........
 3eb8 37513412 13018167 138200fe 23002202  7Q4....g....#.".
 3ec8 83820000 930e8007 9301a000 6384d201  ............c...
 3ed8 6fc00fb5 97c0ffff e7800033 97000000  o..........3....
 3ee8 93804009 37310000 13018109 9380a0ff  ..@.71..........
 3ef8 a3832000 17020000 1302d207 83020200  .. .............
 3f08 930e80f9 9301b000 6384d201 6fc04fb1  ........c...o.O.
 3f18 97c0ffff e780402f 67800f00           ......@/g...    
Contents of section .data:
 3f30 ff00ff00 00ff00ff f00ff00f 0ff00ff0  ................
 3f40 efbeadde efbeadde efbeadde efbeadde  ................
 3f50 efbeadde efbeadde efbeadde efbeadde  ................
 3f60 efbeadde ff0000ff f00f0ff0 ff00f00f  ................
 3f70 efefefef efefefef efefefbe efbeefbe  ................
 3f80 efbeefbe efbeefbe efbeefbe efbe0000  ................

Disassembly of section .text.init:

00000000 <entry>:
   0:	00010117          	auipc	sp,0x10
   4:	fe010113          	addi	sp,sp,-32 # ffe0 <__global_pointer$+0xb8bc>
   8:	00000097          	auipc	ra,0x0
   c:	010080e7          	jalr	16(ra) # 18 <main>

00000010 <end>:
  10:	0000006f          	j	10 <end>

Disassembly of section .text:

00000018 <main>:
      18:	11000837          	lui	a6,0x11000
      1c:	110c05b7          	lui	a1,0x110c0
      20:	11080637          	lui	a2,0x11080
      24:	00100893          	li	a7,1

00000028 <loop>:
      28:	fff00713          	li	a4,-1
      2c:	00000097          	auipc	ra,0x0
      30:	1c8080e7          	jalr	456(ra) # 1f4 <end>
      34:	20000fef          	jal	t6,234 <add_test>
      38:	00000097          	auipc	ra,0x0
      3c:	1bc080e7          	jalr	444(ra) # 1f4 <end>
      40:	45000fef          	jal	t6,490 <sub_test>
      44:	00000097          	auipc	ra,0x0
      48:	1b0080e7          	jalr	432(ra) # 1f4 <end>
      4c:	67800fef          	jal	t6,6c4 <and_test>
      50:	00000097          	auipc	ra,0x0
      54:	1a4080e7          	jalr	420(ra) # 1f4 <end>
      58:	7a000fef          	jal	t6,7f8 <or_test>
      5c:	00000097          	auipc	ra,0x0
      60:	198080e7          	jalr	408(ra) # 1f4 <end>
      64:	0cd00fef          	jal	t6,930 <xor_test>
      68:	00000097          	auipc	ra,0x0
      6c:	18c080e7          	jalr	396(ra) # 1f4 <end>
      70:	1f500fef          	jal	t6,a64 <sll_test>
      74:	00000097          	auipc	ra,0x0
      78:	180080e7          	jalr	384(ra) # 1f4 <end>
      7c:	49100fef          	jal	t6,d0c <srl_test>
      80:	00000097          	auipc	ra,0x0
      84:	174080e7          	jalr	372(ra) # 1f4 <end>
      88:	6f500fef          	jal	t6,f7c <sra_test>
      8c:	00000097          	auipc	ra,0x0
      90:	168080e7          	jalr	360(ra) # 1f4 <end>
      94:	1ec01fef          	jal	t6,1280 <slt_test>
      98:	00000097          	auipc	ra,0x0
      9c:	15c080e7          	jalr	348(ra) # 1f4 <end>
      a0:	44401fef          	jal	t6,14e4 <sltu_test>
      a4:	00000097          	auipc	ra,0x0
      a8:	150080e7          	jalr	336(ra) # 1f4 <end>
      ac:	69c01fef          	jal	t6,1748 <addi_test>
      b0:	00000097          	auipc	ra,0x0
      b4:	144080e7          	jalr	324(ra) # 1f4 <end>
      b8:	0c101fef          	jal	t6,1978 <andi_test>
      bc:	00000097          	auipc	ra,0x0
      c0:	138080e7          	jalr	312(ra) # 1f4 <end>
      c4:	17901fef          	jal	t6,1a3c <ori_test>
      c8:	00000097          	auipc	ra,0x0
      cc:	12c080e7          	jalr	300(ra) # 1f4 <end>
      d0:	23d01fef          	jal	t6,1b0c <xori_test>
      d4:	00000097          	auipc	ra,0x0
      d8:	120080e7          	jalr	288(ra) # 1f4 <end>
      dc:	30501fef          	jal	t6,1be0 <slli_test>
      e0:	00000097          	auipc	ra,0x0
      e4:	114080e7          	jalr	276(ra) # 1f4 <end>
      e8:	50501fef          	jal	t6,1dec <srli_test>
      ec:	00000097          	auipc	ra,0x0
      f0:	108080e7          	jalr	264(ra) # 1f4 <end>
      f4:	73901fef          	jal	t6,202c <srai_test>
      f8:	00000097          	auipc	ra,0x0
      fc:	0fc080e7          	jalr	252(ra) # 1f4 <end>
     100:	18402fef          	jal	t6,2284 <sltiu_test>
     104:	00000097          	auipc	ra,0x0
     108:	0f0080e7          	jalr	240(ra) # 1f4 <end>
     10c:	39002fef          	jal	t6,249c <slti_test>
     110:	00000097          	auipc	ra,0x0
     114:	0e4080e7          	jalr	228(ra) # 1f4 <end>
     118:	59c02fef          	jal	t6,26b4 <lw_test>
     11c:	00000097          	auipc	ra,0x0
     120:	0d8080e7          	jalr	216(ra) # 1f4 <end>
     124:	70802fef          	jal	t6,282c <sw_test>
     128:	00000097          	auipc	ra,0x0
     12c:	0cc080e7          	jalr	204(ra) # 1f4 <end>
     130:	0e102fef          	jal	t6,2a10 <beq_test>
     134:	00000097          	auipc	ra,0x0
     138:	0c0080e7          	jalr	192(ra) # 1f4 <end>
     13c:	21102fef          	jal	t6,2b4c <bne_test>
     140:	00000097          	auipc	ra,0x0
     144:	0b4080e7          	jalr	180(ra) # 1f4 <end>
     148:	34902fef          	jal	t6,2c90 <blt_test>
     14c:	00000097          	auipc	ra,0x0
     150:	0a8080e7          	jalr	168(ra) # 1f4 <end>
     154:	47902fef          	jal	t6,2dcc <bge_test>
     158:	00000097          	auipc	ra,0x0
     15c:	09c080e7          	jalr	156(ra) # 1f4 <end>
     160:	63902fef          	jal	t6,2f98 <bltu_test>
     164:	00000097          	auipc	ra,0x0
     168:	090080e7          	jalr	144(ra) # 1f4 <end>
     16c:	76d02fef          	jal	t6,30d8 <bgeu_test>
     170:	00000097          	auipc	ra,0x0
     174:	084080e7          	jalr	132(ra) # 1f4 <end>
     178:	13003fef          	jal	t6,32a8 <auipc_test>
     17c:	00000097          	auipc	ra,0x0
     180:	078080e7          	jalr	120(ra) # 1f4 <end>
     184:	18c03fef          	jal	t6,3310 <lui_test>
     188:	00000097          	auipc	ra,0x0
     18c:	06c080e7          	jalr	108(ra) # 1f4 <end>
     190:	22403fef          	jal	t6,33b4 <jal_test>
     194:	00000097          	auipc	ra,0x0
     198:	060080e7          	jalr	96(ra) # 1f4 <end>
     19c:	28c03fef          	jal	t6,3428 <jalr_test>
     1a0:	00000097          	auipc	ra,0x0
     1a4:	054080e7          	jalr	84(ra) # 1f4 <end>
     1a8:	35803fef          	jal	t6,3500 <lh_test>
     1ac:	00000097          	auipc	ra,0x0
     1b0:	048080e7          	jalr	72(ra) # 1f4 <end>
     1b4:	4d803fef          	jal	t6,368c <lb_test>
     1b8:	00000097          	auipc	ra,0x0
     1bc:	03c080e7          	jalr	60(ra) # 1f4 <end>
     1c0:	7cc03fef          	jal	t6,398c <lhu_test>
     1c4:	00000097          	auipc	ra,0x0
     1c8:	030080e7          	jalr	48(ra) # 1f4 <end>
     1cc:	64003fef          	jal	t6,380c <lbu_test>
     1d0:	00000097          	auipc	ra,0x0
     1d4:	024080e7          	jalr	36(ra) # 1f4 <end>
     1d8:	15103fef          	jal	t6,3b28 <sh_test>
     1dc:	00000097          	auipc	ra,0x0
     1e0:	018080e7          	jalr	24(ra) # 1f4 <end>
     1e4:	35d03fef          	jal	t6,3d40 <sb_test>
     1e8:	00000097          	auipc	ra,0x0
     1ec:	00c080e7          	jalr	12(ra) # 1f4 <end>
     1f0:	e39ff06f          	j	28 <loop>

000001f4 <end>:
     1f4:	00082683          	lw	a3,0(a6) # 11000000 <SWITCHES>
     1f8:	0016f693          	andi	a3,a3,1
     1fc:	fe069ce3          	bnez	a3,1f4 <end>
     200:	00170713          	addi	a4,a4,1
     204:	00e5a023          	sw	a4,0(a1) # 110c0000 <SSEG>
     208:	00008067          	ret

0000020c <update_test>:
     20c:	00151513          	slli	a0,a0,0x1
     210:	00150513          	addi	a0,a0,1
     214:	00a62023          	sw	a0,0(a2) # 11080000 <LEDS>
     218:	00100893          	li	a7,1

0000021c <delay_loop>:
     21c:	fff88893          	addi	a7,a7,-1
     220:	fe089ee3          	bnez	a7,21c <delay_loop>
     224:	00008067          	ret

00000228 <fail>:
     228:	fff00793          	li	a5,-1
     22c:	00f5a023          	sw	a5,0(a1)
     230:	000f8067          	jr	t6

00000234 <add_test>:
     234:	00000513          	li	a0,0
     238:	00a62023          	sw	a0,0(a2)
     23c:	00000093          	li	ra,0
     240:	00000113          	li	sp,0
     244:	00208f33          	add	t5,ra,sp
     248:	00000e93          	li	t4,0
     24c:	00200193          	li	gp,2
     250:	fddf1ce3          	bne	t5,t4,228 <fail>
     254:	00000097          	auipc	ra,0x0
     258:	fb8080e7          	jalr	-72(ra) # 20c <update_test>
     25c:	00100093          	li	ra,1
     260:	00100113          	li	sp,1
     264:	00208f33          	add	t5,ra,sp
     268:	00200e93          	li	t4,2
     26c:	00300193          	li	gp,3
     270:	fbdf1ce3          	bne	t5,t4,228 <fail>
     274:	00000097          	auipc	ra,0x0
     278:	f98080e7          	jalr	-104(ra) # 20c <update_test>
     27c:	00300093          	li	ra,3
     280:	00700113          	li	sp,7
     284:	00208f33          	add	t5,ra,sp
     288:	00a00e93          	li	t4,10
     28c:	00400193          	li	gp,4
     290:	f9df1ce3          	bne	t5,t4,228 <fail>
     294:	00000097          	auipc	ra,0x0
     298:	f78080e7          	jalr	-136(ra) # 20c <update_test>
     29c:	00000093          	li	ra,0
     2a0:	ffff8137          	lui	sp,0xffff8
     2a4:	00208f33          	add	t5,ra,sp
     2a8:	ffff8eb7          	lui	t4,0xffff8
     2ac:	00500193          	li	gp,5
     2b0:	f7df1ce3          	bne	t5,t4,228 <fail>
     2b4:	00000097          	auipc	ra,0x0
     2b8:	f58080e7          	jalr	-168(ra) # 20c <update_test>
     2bc:	800000b7          	lui	ra,0x80000
     2c0:	00000113          	li	sp,0
     2c4:	00208f33          	add	t5,ra,sp
     2c8:	80000eb7          	lui	t4,0x80000
     2cc:	00600193          	li	gp,6
     2d0:	f5df1ce3          	bne	t5,t4,228 <fail>
     2d4:	00000097          	auipc	ra,0x0
     2d8:	f38080e7          	jalr	-200(ra) # 20c <update_test>
     2dc:	800000b7          	lui	ra,0x80000
     2e0:	ffff8137          	lui	sp,0xffff8
     2e4:	00208f33          	add	t5,ra,sp
     2e8:	7fff8eb7          	lui	t4,0x7fff8
     2ec:	00700193          	li	gp,7
     2f0:	f3df1ce3          	bne	t5,t4,228 <fail>
     2f4:	00000097          	auipc	ra,0x0
     2f8:	f18080e7          	jalr	-232(ra) # 20c <update_test>
     2fc:	00000093          	li	ra,0
     300:	00008137          	lui	sp,0x8
     304:	fff10113          	addi	sp,sp,-1 # 7fff <__global_pointer$+0x38db>
     308:	00208f33          	add	t5,ra,sp
     30c:	00008eb7          	lui	t4,0x8
     310:	fffe8e93          	addi	t4,t4,-1 # 7fff <__global_pointer$+0x38db>
     314:	00800193          	li	gp,8
     318:	f1df18e3          	bne	t5,t4,228 <fail>
     31c:	00000097          	auipc	ra,0x0
     320:	ef0080e7          	jalr	-272(ra) # 20c <update_test>
     324:	800000b7          	lui	ra,0x80000
     328:	fff08093          	addi	ra,ra,-1 # 7fffffff <SSEG+0x6ef3ffff>
     32c:	00000113          	li	sp,0
     330:	00208f33          	add	t5,ra,sp
     334:	80000eb7          	lui	t4,0x80000
     338:	fffe8e93          	addi	t4,t4,-1 # 7fffffff <SSEG+0x6ef3ffff>
     33c:	00900193          	li	gp,9
     340:	efdf14e3          	bne	t5,t4,228 <fail>
     344:	00000097          	auipc	ra,0x0
     348:	ec8080e7          	jalr	-312(ra) # 20c <update_test>
     34c:	800000b7          	lui	ra,0x80000
     350:	fff08093          	addi	ra,ra,-1 # 7fffffff <SSEG+0x6ef3ffff>
     354:	00008137          	lui	sp,0x8
     358:	fff10113          	addi	sp,sp,-1 # 7fff <__global_pointer$+0x38db>
     35c:	00208f33          	add	t5,ra,sp
     360:	80008eb7          	lui	t4,0x80008
     364:	ffee8e93          	addi	t4,t4,-2 # 80007ffe <SSEG+0x6ef47ffe>
     368:	00a00193          	li	gp,10
     36c:	ebdf1ee3          	bne	t5,t4,228 <fail>
     370:	00000097          	auipc	ra,0x0
     374:	e9c080e7          	jalr	-356(ra) # 20c <update_test>
     378:	800000b7          	lui	ra,0x80000
     37c:	00008137          	lui	sp,0x8
     380:	fff10113          	addi	sp,sp,-1 # 7fff <__global_pointer$+0x38db>
     384:	00208f33          	add	t5,ra,sp
     388:	80008eb7          	lui	t4,0x80008
     38c:	fffe8e93          	addi	t4,t4,-1 # 80007fff <SSEG+0x6ef47fff>
     390:	00b00193          	li	gp,11
     394:	e9df1ae3          	bne	t5,t4,228 <fail>
     398:	00000097          	auipc	ra,0x0
     39c:	e74080e7          	jalr	-396(ra) # 20c <update_test>
     3a0:	800000b7          	lui	ra,0x80000
     3a4:	fff08093          	addi	ra,ra,-1 # 7fffffff <SSEG+0x6ef3ffff>
     3a8:	ffff8137          	lui	sp,0xffff8
     3ac:	00208f33          	add	t5,ra,sp
     3b0:	7fff8eb7          	lui	t4,0x7fff8
     3b4:	fffe8e93          	addi	t4,t4,-1 # 7fff7fff <SSEG+0x6ef37fff>
     3b8:	00c00193          	li	gp,12
     3bc:	e7df16e3          	bne	t5,t4,228 <fail>
     3c0:	00000097          	auipc	ra,0x0
     3c4:	e4c080e7          	jalr	-436(ra) # 20c <update_test>
     3c8:	00000093          	li	ra,0
     3cc:	fff00113          	li	sp,-1
     3d0:	00208f33          	add	t5,ra,sp
     3d4:	fff00e93          	li	t4,-1
     3d8:	00d00193          	li	gp,13
     3dc:	e5df16e3          	bne	t5,t4,228 <fail>
     3e0:	00000097          	auipc	ra,0x0
     3e4:	e2c080e7          	jalr	-468(ra) # 20c <update_test>
     3e8:	fff00093          	li	ra,-1
     3ec:	00100113          	li	sp,1
     3f0:	00208f33          	add	t5,ra,sp
     3f4:	00000e93          	li	t4,0
     3f8:	00e00193          	li	gp,14
     3fc:	e3df16e3          	bne	t5,t4,228 <fail>
     400:	00000097          	auipc	ra,0x0
     404:	e0c080e7          	jalr	-500(ra) # 20c <update_test>
     408:	fff00093          	li	ra,-1
     40c:	fff00113          	li	sp,-1
     410:	00208f33          	add	t5,ra,sp
     414:	ffe00e93          	li	t4,-2
     418:	00f00193          	li	gp,15
     41c:	e1df16e3          	bne	t5,t4,228 <fail>
     420:	00000097          	auipc	ra,0x0
     424:	dec080e7          	jalr	-532(ra) # 20c <update_test>
     428:	00100093          	li	ra,1
     42c:	80000137          	lui	sp,0x80000
     430:	fff10113          	addi	sp,sp,-1 # 7fffffff <SSEG+0x6ef3ffff>
     434:	00208f33          	add	t5,ra,sp
     438:	80000eb7          	lui	t4,0x80000
     43c:	01000193          	li	gp,16
     440:	dfdf14e3          	bne	t5,t4,228 <fail>
     444:	00000097          	auipc	ra,0x0
     448:	dc8080e7          	jalr	-568(ra) # 20c <update_test>
     44c:	00d00093          	li	ra,13
     450:	00b00113          	li	sp,11
     454:	002080b3          	add	ra,ra,sp
     458:	01800e93          	li	t4,24
     45c:	01100193          	li	gp,17
     460:	ddd094e3          	bne	ra,t4,228 <fail>
     464:	00000097          	auipc	ra,0x0
     468:	da8080e7          	jalr	-600(ra) # 20c <update_test>
     46c:	00e00093          	li	ra,14
     470:	00b00113          	li	sp,11
     474:	00208133          	add	sp,ra,sp
     478:	01900e93          	li	t4,25
     47c:	01200193          	li	gp,18
     480:	dbd114e3          	bne	sp,t4,228 <fail>
     484:	00000097          	auipc	ra,0x0
     488:	d88080e7          	jalr	-632(ra) # 20c <update_test>
     48c:	000f8067          	jr	t6

00000490 <sub_test>:
     490:	00000513          	li	a0,0
     494:	00a62023          	sw	a0,0(a2)
     498:	00000093          	li	ra,0
     49c:	00000113          	li	sp,0
     4a0:	40208f33          	sub	t5,ra,sp
     4a4:	00000e93          	li	t4,0
     4a8:	00200193          	li	gp,2
     4ac:	d7df1ee3          	bne	t5,t4,228 <fail>
     4b0:	00000097          	auipc	ra,0x0
     4b4:	d5c080e7          	jalr	-676(ra) # 20c <update_test>
     4b8:	00100093          	li	ra,1
     4bc:	00100113          	li	sp,1
     4c0:	40208f33          	sub	t5,ra,sp
     4c4:	00000e93          	li	t4,0
     4c8:	00300193          	li	gp,3
     4cc:	d5df1ee3          	bne	t5,t4,228 <fail>
     4d0:	00000097          	auipc	ra,0x0
     4d4:	d3c080e7          	jalr	-708(ra) # 20c <update_test>
     4d8:	00300093          	li	ra,3
     4dc:	00700113          	li	sp,7
     4e0:	40208f33          	sub	t5,ra,sp
     4e4:	ffc00e93          	li	t4,-4
     4e8:	00400193          	li	gp,4
     4ec:	d3df1ee3          	bne	t5,t4,228 <fail>
     4f0:	00000097          	auipc	ra,0x0
     4f4:	d1c080e7          	jalr	-740(ra) # 20c <update_test>
     4f8:	00000093          	li	ra,0
     4fc:	ffff8137          	lui	sp,0xffff8
     500:	40208f33          	sub	t5,ra,sp
     504:	00008eb7          	lui	t4,0x8
     508:	00500193          	li	gp,5
     50c:	d1df1ee3          	bne	t5,t4,228 <fail>
     510:	00000097          	auipc	ra,0x0
     514:	cfc080e7          	jalr	-772(ra) # 20c <update_test>
     518:	800000b7          	lui	ra,0x80000
     51c:	00000113          	li	sp,0
     520:	40208f33          	sub	t5,ra,sp
     524:	80000eb7          	lui	t4,0x80000
     528:	00600193          	li	gp,6
     52c:	cfdf1ee3          	bne	t5,t4,228 <fail>
     530:	00000097          	auipc	ra,0x0
     534:	cdc080e7          	jalr	-804(ra) # 20c <update_test>
     538:	800000b7          	lui	ra,0x80000
     53c:	ffff8137          	lui	sp,0xffff8
     540:	40208f33          	sub	t5,ra,sp
     544:	80008eb7          	lui	t4,0x80008
     548:	00700193          	li	gp,7
     54c:	cddf1ee3          	bne	t5,t4,228 <fail>
     550:	00000097          	auipc	ra,0x0
     554:	cbc080e7          	jalr	-836(ra) # 20c <update_test>
     558:	00000093          	li	ra,0
     55c:	00008137          	lui	sp,0x8
     560:	fff10113          	addi	sp,sp,-1 # 7fff <__global_pointer$+0x38db>
     564:	40208f33          	sub	t5,ra,sp
     568:	ffff8eb7          	lui	t4,0xffff8
     56c:	001e8e93          	addi	t4,t4,1 # ffff8001 <SSEG+0xeef38001>
     570:	00800193          	li	gp,8
     574:	cbdf1ae3          	bne	t5,t4,228 <fail>
     578:	00000097          	auipc	ra,0x0
     57c:	c94080e7          	jalr	-876(ra) # 20c <update_test>
     580:	800000b7          	lui	ra,0x80000
     584:	fff08093          	addi	ra,ra,-1 # 7fffffff <SSEG+0x6ef3ffff>
     588:	00000113          	li	sp,0
     58c:	40208f33          	sub	t5,ra,sp
     590:	80000eb7          	lui	t4,0x80000
     594:	fffe8e93          	addi	t4,t4,-1 # 7fffffff <SSEG+0x6ef3ffff>
     598:	00900193          	li	gp,9
     59c:	c9df16e3          	bne	t5,t4,228 <fail>
     5a0:	00000097          	auipc	ra,0x0
     5a4:	c6c080e7          	jalr	-916(ra) # 20c <update_test>
     5a8:	800000b7          	lui	ra,0x80000
     5ac:	fff08093          	addi	ra,ra,-1 # 7fffffff <SSEG+0x6ef3ffff>
     5b0:	00008137          	lui	sp,0x8
     5b4:	fff10113          	addi	sp,sp,-1 # 7fff <__global_pointer$+0x38db>
     5b8:	40208f33          	sub	t5,ra,sp
     5bc:	7fff8eb7          	lui	t4,0x7fff8
     5c0:	00a00193          	li	gp,10
     5c4:	c7df12e3          	bne	t5,t4,228 <fail>
     5c8:	00000097          	auipc	ra,0x0
     5cc:	c44080e7          	jalr	-956(ra) # 20c <update_test>
     5d0:	800000b7          	lui	ra,0x80000
     5d4:	00008137          	lui	sp,0x8
     5d8:	fff10113          	addi	sp,sp,-1 # 7fff <__global_pointer$+0x38db>
     5dc:	40208f33          	sub	t5,ra,sp
     5e0:	7fff8eb7          	lui	t4,0x7fff8
     5e4:	001e8e93          	addi	t4,t4,1 # 7fff8001 <SSEG+0x6ef38001>
     5e8:	00b00193          	li	gp,11
     5ec:	c3df1ee3          	bne	t5,t4,228 <fail>
     5f0:	00000097          	auipc	ra,0x0
     5f4:	c1c080e7          	jalr	-996(ra) # 20c <update_test>
     5f8:	800000b7          	lui	ra,0x80000
     5fc:	fff08093          	addi	ra,ra,-1 # 7fffffff <SSEG+0x6ef3ffff>
     600:	ffff8137          	lui	sp,0xffff8
     604:	40208f33          	sub	t5,ra,sp
     608:	80008eb7          	lui	t4,0x80008
     60c:	fffe8e93          	addi	t4,t4,-1 # 80007fff <SSEG+0x6ef47fff>
     610:	00c00193          	li	gp,12
     614:	c1df1ae3          	bne	t5,t4,228 <fail>
     618:	00000097          	auipc	ra,0x0
     61c:	bf4080e7          	jalr	-1036(ra) # 20c <update_test>
     620:	00000093          	li	ra,0
     624:	fff00113          	li	sp,-1
     628:	40208f33          	sub	t5,ra,sp
     62c:	00100e93          	li	t4,1
     630:	00d00193          	li	gp,13
     634:	bfdf1ae3          	bne	t5,t4,228 <fail>
     638:	00000097          	auipc	ra,0x0
     63c:	bd4080e7          	jalr	-1068(ra) # 20c <update_test>
     640:	fff00093          	li	ra,-1
     644:	00100113          	li	sp,1
     648:	40208f33          	sub	t5,ra,sp
     64c:	ffe00e93          	li	t4,-2
     650:	00e00193          	li	gp,14
     654:	bddf1ae3          	bne	t5,t4,228 <fail>
     658:	00000097          	auipc	ra,0x0
     65c:	bb4080e7          	jalr	-1100(ra) # 20c <update_test>
     660:	fff00093          	li	ra,-1
     664:	fff00113          	li	sp,-1
     668:	40208f33          	sub	t5,ra,sp
     66c:	00000e93          	li	t4,0
     670:	00f00193          	li	gp,15
     674:	bbdf1ae3          	bne	t5,t4,228 <fail>
     678:	00000097          	auipc	ra,0x0
     67c:	b94080e7          	jalr	-1132(ra) # 20c <update_test>
     680:	00d00093          	li	ra,13
     684:	00b00113          	li	sp,11
     688:	402080b3          	sub	ra,ra,sp
     68c:	00200e93          	li	t4,2
     690:	01000193          	li	gp,16
     694:	b9d09ae3          	bne	ra,t4,228 <fail>
     698:	00000097          	auipc	ra,0x0
     69c:	b74080e7          	jalr	-1164(ra) # 20c <update_test>
     6a0:	00e00093          	li	ra,14
     6a4:	00b00113          	li	sp,11
     6a8:	40208133          	sub	sp,ra,sp
     6ac:	00300e93          	li	t4,3
     6b0:	01100193          	li	gp,17
     6b4:	b7d11ae3          	bne	sp,t4,228 <fail>
     6b8:	00000097          	auipc	ra,0x0
     6bc:	b54080e7          	jalr	-1196(ra) # 20c <update_test>
     6c0:	000f8067          	jr	t6

000006c4 <and_test>:
     6c4:	00000513          	li	a0,0
     6c8:	00a62023          	sw	a0,0(a2)
     6cc:	ff0100b7          	lui	ra,0xff010
     6d0:	f0008093          	addi	ra,ra,-256 # ff00ff00 <SSEG+0xedf4ff00>
     6d4:	0f0f1137          	lui	sp,0xf0f1
     6d8:	f0f10113          	addi	sp,sp,-241 # f0f0f0f <__sp+0xf0e0f0f>
     6dc:	0020ff33          	and	t5,ra,sp
     6e0:	0f001eb7          	lui	t4,0xf001
     6e4:	f00e8e93          	addi	t4,t4,-256 # f000f00 <__sp+0xeff0f00>
     6e8:	00200193          	li	gp,2
     6ec:	b3df1ee3          	bne	t5,t4,228 <fail>
     6f0:	00000097          	auipc	ra,0x0
     6f4:	b1c080e7          	jalr	-1252(ra) # 20c <update_test>
     6f8:	0ff010b7          	lui	ra,0xff01
     6fc:	ff008093          	addi	ra,ra,-16 # ff00ff0 <__sp+0xfef0ff0>
     700:	f0f0f137          	lui	sp,0xf0f0f
     704:	0f010113          	addi	sp,sp,240 # f0f0f0f0 <SSEG+0xdfe4f0f0>
     708:	0020ff33          	and	t5,ra,sp
     70c:	00f00eb7          	lui	t4,0xf00
     710:	0f0e8e93          	addi	t4,t4,240 # f000f0 <__sp+0xef00f0>
     714:	00300193          	li	gp,3
     718:	b1df18e3          	bne	t5,t4,228 <fail>
     71c:	00000097          	auipc	ra,0x0
     720:	af0080e7          	jalr	-1296(ra) # 20c <update_test>
     724:	00ff00b7          	lui	ra,0xff0
     728:	0ff08093          	addi	ra,ra,255 # ff00ff <__sp+0xfe00ff>
     72c:	0f0f1137          	lui	sp,0xf0f1
     730:	f0f10113          	addi	sp,sp,-241 # f0f0f0f <__sp+0xf0e0f0f>
     734:	0020ff33          	and	t5,ra,sp
     738:	000f0eb7          	lui	t4,0xf0
     73c:	00fe8e93          	addi	t4,t4,15 # f000f <__sp+0xe000f>
     740:	00400193          	li	gp,4
     744:	afdf12e3          	bne	t5,t4,228 <fail>
     748:	00000097          	auipc	ra,0x0
     74c:	ac4080e7          	jalr	-1340(ra) # 20c <update_test>
     750:	f00ff0b7          	lui	ra,0xf00ff
     754:	00f08093          	addi	ra,ra,15 # f00ff00f <SSEG+0xdf03f00f>
     758:	f0f0f137          	lui	sp,0xf0f0f
     75c:	0f010113          	addi	sp,sp,240 # f0f0f0f0 <SSEG+0xdfe4f0f0>
     760:	0020ff33          	and	t5,ra,sp
     764:	f000feb7          	lui	t4,0xf000f
     768:	00500193          	li	gp,5
     76c:	abdf1ee3          	bne	t5,t4,228 <fail>
     770:	00000097          	auipc	ra,0x0
     774:	a9c080e7          	jalr	-1380(ra) # 20c <update_test>
     778:	ff0100b7          	lui	ra,0xff010
     77c:	f0008093          	addi	ra,ra,-256 # ff00ff00 <SSEG+0xedf4ff00>
     780:	0f0f1137          	lui	sp,0xf0f1
     784:	f0f10113          	addi	sp,sp,-241 # f0f0f0f <__sp+0xf0e0f0f>
     788:	0020f0b3          	and	ra,ra,sp
     78c:	0f001eb7          	lui	t4,0xf001
     790:	f00e8e93          	addi	t4,t4,-256 # f000f00 <__sp+0xeff0f00>
     794:	00600193          	li	gp,6
     798:	a9d098e3          	bne	ra,t4,228 <fail>
     79c:	00000097          	auipc	ra,0x0
     7a0:	a70080e7          	jalr	-1424(ra) # 20c <update_test>
     7a4:	0ff010b7          	lui	ra,0xff01
     7a8:	ff008093          	addi	ra,ra,-16 # ff00ff0 <__sp+0xfef0ff0>
     7ac:	f0f0f137          	lui	sp,0xf0f0f
     7b0:	0f010113          	addi	sp,sp,240 # f0f0f0f0 <SSEG+0xdfe4f0f0>
     7b4:	0020f133          	and	sp,ra,sp
     7b8:	00f00eb7          	lui	t4,0xf00
     7bc:	0f0e8e93          	addi	t4,t4,240 # f000f0 <__sp+0xef00f0>
     7c0:	00700193          	li	gp,7
     7c4:	a7d112e3          	bne	sp,t4,228 <fail>
     7c8:	00000097          	auipc	ra,0x0
     7cc:	a44080e7          	jalr	-1468(ra) # 20c <update_test>
     7d0:	ff0100b7          	lui	ra,0xff010
     7d4:	f0008093          	addi	ra,ra,-256 # ff00ff00 <SSEG+0xedf4ff00>
     7d8:	0010f0b3          	and	ra,ra,ra
     7dc:	ff010eb7          	lui	t4,0xff010
     7e0:	f00e8e93          	addi	t4,t4,-256 # ff00ff00 <SSEG+0xedf4ff00>
     7e4:	00800193          	li	gp,8
     7e8:	a5d090e3          	bne	ra,t4,228 <fail>
     7ec:	00000097          	auipc	ra,0x0
     7f0:	a20080e7          	jalr	-1504(ra) # 20c <update_test>
     7f4:	000f8067          	jr	t6

000007f8 <or_test>:
     7f8:	00000513          	li	a0,0
     7fc:	00a62023          	sw	a0,0(a2)
     800:	ff0100b7          	lui	ra,0xff010
     804:	f0008093          	addi	ra,ra,-256 # ff00ff00 <SSEG+0xedf4ff00>
     808:	0f0f1137          	lui	sp,0xf0f1
     80c:	f0f10113          	addi	sp,sp,-241 # f0f0f0f <__sp+0xf0e0f0f>
     810:	0020ef33          	or	t5,ra,sp
     814:	ff100eb7          	lui	t4,0xff100
     818:	f0fe8e93          	addi	t4,t4,-241 # ff0fff0f <SSEG+0xee03ff0f>
     81c:	00200193          	li	gp,2
     820:	a1df14e3          	bne	t5,t4,228 <fail>
     824:	00000097          	auipc	ra,0x0
     828:	9e8080e7          	jalr	-1560(ra) # 20c <update_test>
     82c:	0ff010b7          	lui	ra,0xff01
     830:	ff008093          	addi	ra,ra,-16 # ff00ff0 <__sp+0xfef0ff0>
     834:	f0f0f137          	lui	sp,0xf0f0f
     838:	0f010113          	addi	sp,sp,240 # f0f0f0f0 <SSEG+0xdfe4f0f0>
     83c:	0020ef33          	or	t5,ra,sp
     840:	fff10eb7          	lui	t4,0xfff10
     844:	ff0e8e93          	addi	t4,t4,-16 # fff0fff0 <SSEG+0xeee4fff0>
     848:	00300193          	li	gp,3
     84c:	9ddf1ee3          	bne	t5,t4,228 <fail>
     850:	00000097          	auipc	ra,0x0
     854:	9bc080e7          	jalr	-1604(ra) # 20c <update_test>
     858:	00ff00b7          	lui	ra,0xff0
     85c:	0ff08093          	addi	ra,ra,255 # ff00ff <__sp+0xfe00ff>
     860:	0f0f1137          	lui	sp,0xf0f1
     864:	f0f10113          	addi	sp,sp,-241 # f0f0f0f <__sp+0xf0e0f0f>
     868:	0020ef33          	or	t5,ra,sp
     86c:	0fff1eb7          	lui	t4,0xfff1
     870:	fffe8e93          	addi	t4,t4,-1 # fff0fff <__sp+0xffe0fff>
     874:	00400193          	li	gp,4
     878:	9bdf18e3          	bne	t5,t4,228 <fail>
     87c:	00000097          	auipc	ra,0x0
     880:	990080e7          	jalr	-1648(ra) # 20c <update_test>
     884:	f00ff0b7          	lui	ra,0xf00ff
     888:	00f08093          	addi	ra,ra,15 # f00ff00f <SSEG+0xdf03f00f>
     88c:	f0f0f137          	lui	sp,0xf0f0f
     890:	0f010113          	addi	sp,sp,240 # f0f0f0f0 <SSEG+0xdfe4f0f0>
     894:	0020ef33          	or	t5,ra,sp
     898:	f0fffeb7          	lui	t4,0xf0fff
     89c:	0ffe8e93          	addi	t4,t4,255 # f0fff0ff <SSEG+0xdff3f0ff>
     8a0:	00500193          	li	gp,5
     8a4:	99df12e3          	bne	t5,t4,228 <fail>
     8a8:	00000097          	auipc	ra,0x0
     8ac:	964080e7          	jalr	-1692(ra) # 20c <update_test>
     8b0:	ff0100b7          	lui	ra,0xff010
     8b4:	f0008093          	addi	ra,ra,-256 # ff00ff00 <SSEG+0xedf4ff00>
     8b8:	0f0f1137          	lui	sp,0xf0f1
     8bc:	f0f10113          	addi	sp,sp,-241 # f0f0f0f <__sp+0xf0e0f0f>
     8c0:	0020e0b3          	or	ra,ra,sp
     8c4:	ff100eb7          	lui	t4,0xff100
     8c8:	f0fe8e93          	addi	t4,t4,-241 # ff0fff0f <SSEG+0xee03ff0f>
     8cc:	00600193          	li	gp,6
     8d0:	95d09ce3          	bne	ra,t4,228 <fail>
     8d4:	00000097          	auipc	ra,0x0
     8d8:	938080e7          	jalr	-1736(ra) # 20c <update_test>
     8dc:	ff0100b7          	lui	ra,0xff010
     8e0:	f0008093          	addi	ra,ra,-256 # ff00ff00 <SSEG+0xedf4ff00>
     8e4:	0f0f1137          	lui	sp,0xf0f1
     8e8:	f0f10113          	addi	sp,sp,-241 # f0f0f0f <__sp+0xf0e0f0f>
     8ec:	0020e133          	or	sp,ra,sp
     8f0:	ff100eb7          	lui	t4,0xff100
     8f4:	f0fe8e93          	addi	t4,t4,-241 # ff0fff0f <SSEG+0xee03ff0f>
     8f8:	00700193          	li	gp,7
     8fc:	93d116e3          	bne	sp,t4,228 <fail>
     900:	00000097          	auipc	ra,0x0
     904:	90c080e7          	jalr	-1780(ra) # 20c <update_test>
     908:	ff0100b7          	lui	ra,0xff010
     90c:	f0008093          	addi	ra,ra,-256 # ff00ff00 <SSEG+0xedf4ff00>
     910:	0010e0b3          	or	ra,ra,ra
     914:	ff010eb7          	lui	t4,0xff010
     918:	f00e8e93          	addi	t4,t4,-256 # ff00ff00 <SSEG+0xedf4ff00>
     91c:	00800193          	li	gp,8
     920:	91d094e3          	bne	ra,t4,228 <fail>
     924:	00000097          	auipc	ra,0x0
     928:	8e8080e7          	jalr	-1816(ra) # 20c <update_test>
     92c:	000f8067          	jr	t6

00000930 <xor_test>:
     930:	00000513          	li	a0,0
     934:	00a62023          	sw	a0,0(a2)
     938:	ff0100b7          	lui	ra,0xff010
     93c:	f0008093          	addi	ra,ra,-256 # ff00ff00 <SSEG+0xedf4ff00>
     940:	0f0f1137          	lui	sp,0xf0f1
     944:	f0f10113          	addi	sp,sp,-241 # f0f0f0f <__sp+0xf0e0f0f>
     948:	0020cf33          	xor	t5,ra,sp
     94c:	f00ffeb7          	lui	t4,0xf00ff
     950:	00fe8e93          	addi	t4,t4,15 # f00ff00f <SSEG+0xdf03f00f>
     954:	00200193          	li	gp,2
     958:	8ddf18e3          	bne	t5,t4,228 <fail>
     95c:	00000097          	auipc	ra,0x0
     960:	8b0080e7          	jalr	-1872(ra) # 20c <update_test>
     964:	0ff010b7          	lui	ra,0xff01
     968:	ff008093          	addi	ra,ra,-16 # ff00ff0 <__sp+0xfef0ff0>
     96c:	f0f0f137          	lui	sp,0xf0f0f
     970:	0f010113          	addi	sp,sp,240 # f0f0f0f0 <SSEG+0xdfe4f0f0>
     974:	0020cf33          	xor	t5,ra,sp
     978:	ff010eb7          	lui	t4,0xff010
     97c:	f00e8e93          	addi	t4,t4,-256 # ff00ff00 <SSEG+0xedf4ff00>
     980:	00300193          	li	gp,3
     984:	8bdf12e3          	bne	t5,t4,228 <fail>
     988:	00000097          	auipc	ra,0x0
     98c:	884080e7          	jalr	-1916(ra) # 20c <update_test>
     990:	00ff00b7          	lui	ra,0xff0
     994:	0ff08093          	addi	ra,ra,255 # ff00ff <__sp+0xfe00ff>
     998:	0f0f1137          	lui	sp,0xf0f1
     99c:	f0f10113          	addi	sp,sp,-241 # f0f0f0f <__sp+0xf0e0f0f>
     9a0:	0020cf33          	xor	t5,ra,sp
     9a4:	0ff01eb7          	lui	t4,0xff01
     9a8:	ff0e8e93          	addi	t4,t4,-16 # ff00ff0 <__sp+0xfef0ff0>
     9ac:	00400193          	li	gp,4
     9b0:	87df1ce3          	bne	t5,t4,228 <fail>
     9b4:	00000097          	auipc	ra,0x0
     9b8:	858080e7          	jalr	-1960(ra) # 20c <update_test>
     9bc:	f00ff0b7          	lui	ra,0xf00ff
     9c0:	00f08093          	addi	ra,ra,15 # f00ff00f <SSEG+0xdf03f00f>
     9c4:	f0f0f137          	lui	sp,0xf0f0f
     9c8:	0f010113          	addi	sp,sp,240 # f0f0f0f0 <SSEG+0xdfe4f0f0>
     9cc:	0020cf33          	xor	t5,ra,sp
     9d0:	00ff0eb7          	lui	t4,0xff0
     9d4:	0ffe8e93          	addi	t4,t4,255 # ff00ff <__sp+0xfe00ff>
     9d8:	00500193          	li	gp,5
     9dc:	85df16e3          	bne	t5,t4,228 <fail>
     9e0:	00000097          	auipc	ra,0x0
     9e4:	82c080e7          	jalr	-2004(ra) # 20c <update_test>
     9e8:	ff0100b7          	lui	ra,0xff010
     9ec:	f0008093          	addi	ra,ra,-256 # ff00ff00 <SSEG+0xedf4ff00>
     9f0:	0f0f1137          	lui	sp,0xf0f1
     9f4:	f0f10113          	addi	sp,sp,-241 # f0f0f0f <__sp+0xf0e0f0f>
     9f8:	0020c0b3          	xor	ra,ra,sp
     9fc:	f00ffeb7          	lui	t4,0xf00ff
     a00:	00fe8e93          	addi	t4,t4,15 # f00ff00f <SSEG+0xdf03f00f>
     a04:	00600193          	li	gp,6
     a08:	83d090e3          	bne	ra,t4,228 <fail>
     a0c:	00000097          	auipc	ra,0x0
     a10:	800080e7          	jalr	-2048(ra) # 20c <update_test>
     a14:	ff0100b7          	lui	ra,0xff010
     a18:	f0008093          	addi	ra,ra,-256 # ff00ff00 <SSEG+0xedf4ff00>
     a1c:	0f0f1137          	lui	sp,0xf0f1
     a20:	f0f10113          	addi	sp,sp,-241 # f0f0f0f <__sp+0xf0e0f0f>
     a24:	0020c133          	xor	sp,ra,sp
     a28:	f00ffeb7          	lui	t4,0xf00ff
     a2c:	00fe8e93          	addi	t4,t4,15 # f00ff00f <SSEG+0xdf03f00f>
     a30:	00700193          	li	gp,7
     a34:	ffd11a63          	bne	sp,t4,228 <fail>
     a38:	fffff097          	auipc	ra,0xfffff
     a3c:	7d4080e7          	jalr	2004(ra) # 20c <update_test>
     a40:	ff0100b7          	lui	ra,0xff010
     a44:	f0008093          	addi	ra,ra,-256 # ff00ff00 <SSEG+0xedf4ff00>
     a48:	0010c0b3          	xor	ra,ra,ra
     a4c:	00000e93          	li	t4,0
     a50:	00800193          	li	gp,8
     a54:	fdd09a63          	bne	ra,t4,228 <fail>
     a58:	fffff097          	auipc	ra,0xfffff
     a5c:	7b4080e7          	jalr	1972(ra) # 20c <update_test>
     a60:	000f8067          	jr	t6

00000a64 <sll_test>:
     a64:	00000513          	li	a0,0
     a68:	00a62023          	sw	a0,0(a2)
     a6c:	00100093          	li	ra,1
     a70:	00000113          	li	sp,0
     a74:	00209f33          	sll	t5,ra,sp
     a78:	00100e93          	li	t4,1
     a7c:	00200193          	li	gp,2
     a80:	fbdf1463          	bne	t5,t4,228 <fail>
     a84:	fffff097          	auipc	ra,0xfffff
     a88:	788080e7          	jalr	1928(ra) # 20c <update_test>
     a8c:	00100093          	li	ra,1
     a90:	00100113          	li	sp,1
     a94:	00209f33          	sll	t5,ra,sp
     a98:	00200e93          	li	t4,2
     a9c:	00300193          	li	gp,3
     aa0:	f9df1463          	bne	t5,t4,228 <fail>
     aa4:	fffff097          	auipc	ra,0xfffff
     aa8:	768080e7          	jalr	1896(ra) # 20c <update_test>
     aac:	00100093          	li	ra,1
     ab0:	00700113          	li	sp,7
     ab4:	00209f33          	sll	t5,ra,sp
     ab8:	08000e93          	li	t4,128
     abc:	00400193          	li	gp,4
     ac0:	f7df1463          	bne	t5,t4,228 <fail>
     ac4:	fffff097          	auipc	ra,0xfffff
     ac8:	748080e7          	jalr	1864(ra) # 20c <update_test>
     acc:	00100093          	li	ra,1
     ad0:	00e00113          	li	sp,14
     ad4:	00209f33          	sll	t5,ra,sp
     ad8:	00004eb7          	lui	t4,0x4
     adc:	00500193          	li	gp,5
     ae0:	f5df1463          	bne	t5,t4,228 <fail>
     ae4:	fffff097          	auipc	ra,0xfffff
     ae8:	728080e7          	jalr	1832(ra) # 20c <update_test>
     aec:	00100093          	li	ra,1
     af0:	01f00113          	li	sp,31
     af4:	00209f33          	sll	t5,ra,sp
     af8:	80000eb7          	lui	t4,0x80000
     afc:	00600193          	li	gp,6
     b00:	f3df1463          	bne	t5,t4,228 <fail>
     b04:	fffff097          	auipc	ra,0xfffff
     b08:	708080e7          	jalr	1800(ra) # 20c <update_test>
     b0c:	fff00093          	li	ra,-1
     b10:	00000113          	li	sp,0
     b14:	00209f33          	sll	t5,ra,sp
     b18:	fff00e93          	li	t4,-1
     b1c:	00700193          	li	gp,7
     b20:	f1df1463          	bne	t5,t4,228 <fail>
     b24:	fffff097          	auipc	ra,0xfffff
     b28:	6e8080e7          	jalr	1768(ra) # 20c <update_test>
     b2c:	fff00093          	li	ra,-1
     b30:	00100113          	li	sp,1
     b34:	00209f33          	sll	t5,ra,sp
     b38:	ffe00e93          	li	t4,-2
     b3c:	00800193          	li	gp,8
     b40:	efdf1463          	bne	t5,t4,228 <fail>
     b44:	fffff097          	auipc	ra,0xfffff
     b48:	6c8080e7          	jalr	1736(ra) # 20c <update_test>
     b4c:	fff00093          	li	ra,-1
     b50:	00700113          	li	sp,7
     b54:	00209f33          	sll	t5,ra,sp
     b58:	f8000e93          	li	t4,-128
     b5c:	00900193          	li	gp,9
     b60:	eddf1463          	bne	t5,t4,228 <fail>
     b64:	fffff097          	auipc	ra,0xfffff
     b68:	6a8080e7          	jalr	1704(ra) # 20c <update_test>
     b6c:	fff00093          	li	ra,-1
     b70:	00e00113          	li	sp,14
     b74:	00209f33          	sll	t5,ra,sp
     b78:	ffffceb7          	lui	t4,0xffffc
     b7c:	00a00193          	li	gp,10
     b80:	ebdf1463          	bne	t5,t4,228 <fail>
     b84:	fffff097          	auipc	ra,0xfffff
     b88:	688080e7          	jalr	1672(ra) # 20c <update_test>
     b8c:	fff00093          	li	ra,-1
     b90:	01f00113          	li	sp,31
     b94:	00209f33          	sll	t5,ra,sp
     b98:	80000eb7          	lui	t4,0x80000
     b9c:	00b00193          	li	gp,11
     ba0:	e9df1463          	bne	t5,t4,228 <fail>
     ba4:	fffff097          	auipc	ra,0xfffff
     ba8:	668080e7          	jalr	1640(ra) # 20c <update_test>
     bac:	212120b7          	lui	ra,0x21212
     bb0:	12108093          	addi	ra,ra,289 # 21212121 <SSEG+0x10152121>
     bb4:	00000113          	li	sp,0
     bb8:	00209f33          	sll	t5,ra,sp
     bbc:	21212eb7          	lui	t4,0x21212
     bc0:	121e8e93          	addi	t4,t4,289 # 21212121 <SSEG+0x10152121>
     bc4:	00c00193          	li	gp,12
     bc8:	e7df1063          	bne	t5,t4,228 <fail>
     bcc:	fffff097          	auipc	ra,0xfffff
     bd0:	640080e7          	jalr	1600(ra) # 20c <update_test>
     bd4:	212120b7          	lui	ra,0x21212
     bd8:	12108093          	addi	ra,ra,289 # 21212121 <SSEG+0x10152121>
     bdc:	00100113          	li	sp,1
     be0:	00209f33          	sll	t5,ra,sp
     be4:	42424eb7          	lui	t4,0x42424
     be8:	242e8e93          	addi	t4,t4,578 # 42424242 <SSEG+0x31364242>
     bec:	00d00193          	li	gp,13
     bf0:	e3df1c63          	bne	t5,t4,228 <fail>
     bf4:	fffff097          	auipc	ra,0xfffff
     bf8:	618080e7          	jalr	1560(ra) # 20c <update_test>
     bfc:	212120b7          	lui	ra,0x21212
     c00:	12108093          	addi	ra,ra,289 # 21212121 <SSEG+0x10152121>
     c04:	00700113          	li	sp,7
     c08:	00209f33          	sll	t5,ra,sp
     c0c:	90909eb7          	lui	t4,0x90909
     c10:	080e8e93          	addi	t4,t4,128 # 90909080 <SSEG+0x7f849080>
     c14:	00e00193          	li	gp,14
     c18:	e1df1863          	bne	t5,t4,228 <fail>
     c1c:	fffff097          	auipc	ra,0xfffff
     c20:	5f0080e7          	jalr	1520(ra) # 20c <update_test>
     c24:	212120b7          	lui	ra,0x21212
     c28:	12108093          	addi	ra,ra,289 # 21212121 <SSEG+0x10152121>
     c2c:	00e00113          	li	sp,14
     c30:	00209f33          	sll	t5,ra,sp
     c34:	48484eb7          	lui	t4,0x48484
     c38:	00f00193          	li	gp,15
     c3c:	dfdf1663          	bne	t5,t4,228 <fail>
     c40:	fffff097          	auipc	ra,0xfffff
     c44:	5cc080e7          	jalr	1484(ra) # 20c <update_test>
     c48:	212120b7          	lui	ra,0x21212
     c4c:	12108093          	addi	ra,ra,289 # 21212121 <SSEG+0x10152121>
     c50:	01f00113          	li	sp,31
     c54:	00209f33          	sll	t5,ra,sp
     c58:	80000eb7          	lui	t4,0x80000
     c5c:	01000193          	li	gp,16
     c60:	dddf1463          	bne	t5,t4,228 <fail>
     c64:	fffff097          	auipc	ra,0xfffff
     c68:	5a8080e7          	jalr	1448(ra) # 20c <update_test>
     c6c:	212120b7          	lui	ra,0x21212
     c70:	12108093          	addi	ra,ra,289 # 21212121 <SSEG+0x10152121>
     c74:	fc000113          	li	sp,-64
     c78:	00209f33          	sll	t5,ra,sp
     c7c:	21212eb7          	lui	t4,0x21212
     c80:	121e8e93          	addi	t4,t4,289 # 21212121 <SSEG+0x10152121>
     c84:	01100193          	li	gp,17
     c88:	dbdf1063          	bne	t5,t4,228 <fail>
     c8c:	fffff097          	auipc	ra,0xfffff
     c90:	580080e7          	jalr	1408(ra) # 20c <update_test>
     c94:	212120b7          	lui	ra,0x21212
     c98:	12108093          	addi	ra,ra,289 # 21212121 <SSEG+0x10152121>
     c9c:	fc100113          	li	sp,-63
     ca0:	00209f33          	sll	t5,ra,sp
     ca4:	42424eb7          	lui	t4,0x42424
     ca8:	242e8e93          	addi	t4,t4,578 # 42424242 <SSEG+0x31364242>
     cac:	01200193          	li	gp,18
     cb0:	d7df1c63          	bne	t5,t4,228 <fail>
     cb4:	fffff097          	auipc	ra,0xfffff
     cb8:	558080e7          	jalr	1368(ra) # 20c <update_test>
     cbc:	212120b7          	lui	ra,0x21212
     cc0:	12108093          	addi	ra,ra,289 # 21212121 <SSEG+0x10152121>
     cc4:	fc700113          	li	sp,-57
     cc8:	00209f33          	sll	t5,ra,sp
     ccc:	90909eb7          	lui	t4,0x90909
     cd0:	080e8e93          	addi	t4,t4,128 # 90909080 <SSEG+0x7f849080>
     cd4:	01300193          	li	gp,19
     cd8:	d5df1863          	bne	t5,t4,228 <fail>
     cdc:	fffff097          	auipc	ra,0xfffff
     ce0:	530080e7          	jalr	1328(ra) # 20c <update_test>
     ce4:	212120b7          	lui	ra,0x21212
     ce8:	12108093          	addi	ra,ra,289 # 21212121 <SSEG+0x10152121>
     cec:	fce00113          	li	sp,-50
     cf0:	00209f33          	sll	t5,ra,sp
     cf4:	48484eb7          	lui	t4,0x48484
     cf8:	01400193          	li	gp,20
     cfc:	d3df1663          	bne	t5,t4,228 <fail>
     d00:	fffff097          	auipc	ra,0xfffff
     d04:	50c080e7          	jalr	1292(ra) # 20c <update_test>
     d08:	000f8067          	jr	t6

00000d0c <srl_test>:
     d0c:	00000513          	li	a0,0
     d10:	00a62023          	sw	a0,0(a2)
     d14:	800000b7          	lui	ra,0x80000
     d18:	00000113          	li	sp,0
     d1c:	0020df33          	srl	t5,ra,sp
     d20:	80000eb7          	lui	t4,0x80000
     d24:	00200193          	li	gp,2
     d28:	d1df1063          	bne	t5,t4,228 <fail>
     d2c:	fffff097          	auipc	ra,0xfffff
     d30:	4e0080e7          	jalr	1248(ra) # 20c <update_test>
     d34:	800000b7          	lui	ra,0x80000
     d38:	00100113          	li	sp,1
     d3c:	0020df33          	srl	t5,ra,sp
     d40:	40000eb7          	lui	t4,0x40000
     d44:	00300193          	li	gp,3
     d48:	cfdf1063          	bne	t5,t4,228 <fail>
     d4c:	fffff097          	auipc	ra,0xfffff
     d50:	4c0080e7          	jalr	1216(ra) # 20c <update_test>
     d54:	800000b7          	lui	ra,0x80000
     d58:	00700113          	li	sp,7
     d5c:	0020df33          	srl	t5,ra,sp
     d60:	01000eb7          	lui	t4,0x1000
     d64:	00400193          	li	gp,4
     d68:	cddf1063          	bne	t5,t4,228 <fail>
     d6c:	fffff097          	auipc	ra,0xfffff
     d70:	4a0080e7          	jalr	1184(ra) # 20c <update_test>
     d74:	800000b7          	lui	ra,0x80000
     d78:	00e00113          	li	sp,14
     d7c:	0020df33          	srl	t5,ra,sp
     d80:	00020eb7          	lui	t4,0x20
     d84:	00500193          	li	gp,5
     d88:	cbdf1063          	bne	t5,t4,228 <fail>
     d8c:	fffff097          	auipc	ra,0xfffff
     d90:	480080e7          	jalr	1152(ra) # 20c <update_test>
     d94:	800000b7          	lui	ra,0x80000
     d98:	00108093          	addi	ra,ra,1 # 80000001 <SSEG+0x6ef40001>
     d9c:	01f00113          	li	sp,31
     da0:	0020df33          	srl	t5,ra,sp
     da4:	00100e93          	li	t4,1
     da8:	00600193          	li	gp,6
     dac:	c7df1e63          	bne	t5,t4,228 <fail>
     db0:	fffff097          	auipc	ra,0xfffff
     db4:	45c080e7          	jalr	1116(ra) # 20c <update_test>
     db8:	fff00093          	li	ra,-1
     dbc:	00000113          	li	sp,0
     dc0:	0020df33          	srl	t5,ra,sp
     dc4:	fff00e93          	li	t4,-1
     dc8:	00700193          	li	gp,7
     dcc:	c5df1e63          	bne	t5,t4,228 <fail>
     dd0:	fffff097          	auipc	ra,0xfffff
     dd4:	43c080e7          	jalr	1084(ra) # 20c <update_test>
     dd8:	fff00093          	li	ra,-1
     ddc:	00100113          	li	sp,1
     de0:	0020df33          	srl	t5,ra,sp
     de4:	80000eb7          	lui	t4,0x80000
     de8:	fffe8e93          	addi	t4,t4,-1 # 7fffffff <SSEG+0x6ef3ffff>
     dec:	00800193          	li	gp,8
     df0:	c3df1c63          	bne	t5,t4,228 <fail>
     df4:	fffff097          	auipc	ra,0xfffff
     df8:	418080e7          	jalr	1048(ra) # 20c <update_test>
     dfc:	fff00093          	li	ra,-1
     e00:	00700113          	li	sp,7
     e04:	0020df33          	srl	t5,ra,sp
     e08:	02000eb7          	lui	t4,0x2000
     e0c:	fffe8e93          	addi	t4,t4,-1 # 1ffffff <__sp+0x1feffff>
     e10:	00900193          	li	gp,9
     e14:	c1df1a63          	bne	t5,t4,228 <fail>
     e18:	fffff097          	auipc	ra,0xfffff
     e1c:	3f4080e7          	jalr	1012(ra) # 20c <update_test>
     e20:	fff00093          	li	ra,-1
     e24:	00e00113          	li	sp,14
     e28:	0020df33          	srl	t5,ra,sp
     e2c:	00040eb7          	lui	t4,0x40
     e30:	fffe8e93          	addi	t4,t4,-1 # 3ffff <__sp+0x2ffff>
     e34:	00a00193          	li	gp,10
     e38:	bfdf1863          	bne	t5,t4,228 <fail>
     e3c:	fffff097          	auipc	ra,0xfffff
     e40:	3d0080e7          	jalr	976(ra) # 20c <update_test>
     e44:	fff00093          	li	ra,-1
     e48:	01f00113          	li	sp,31
     e4c:	0020df33          	srl	t5,ra,sp
     e50:	00100e93          	li	t4,1
     e54:	00b00193          	li	gp,11
     e58:	bddf1863          	bne	t5,t4,228 <fail>
     e5c:	fffff097          	auipc	ra,0xfffff
     e60:	3b0080e7          	jalr	944(ra) # 20c <update_test>
     e64:	212120b7          	lui	ra,0x21212
     e68:	12108093          	addi	ra,ra,289 # 21212121 <SSEG+0x10152121>
     e6c:	00000113          	li	sp,0
     e70:	0020df33          	srl	t5,ra,sp
     e74:	21212eb7          	lui	t4,0x21212
     e78:	121e8e93          	addi	t4,t4,289 # 21212121 <SSEG+0x10152121>
     e7c:	00c00193          	li	gp,12
     e80:	bbdf1463          	bne	t5,t4,228 <fail>
     e84:	fffff097          	auipc	ra,0xfffff
     e88:	388080e7          	jalr	904(ra) # 20c <update_test>
     e8c:	212120b7          	lui	ra,0x21212
     e90:	12108093          	addi	ra,ra,289 # 21212121 <SSEG+0x10152121>
     e94:	00100113          	li	sp,1
     e98:	0020df33          	srl	t5,ra,sp
     e9c:	10909eb7          	lui	t4,0x10909
     ea0:	090e8e93          	addi	t4,t4,144 # 10909090 <__sp+0x108f9090>
     ea4:	00d00193          	li	gp,13
     ea8:	b9df1063          	bne	t5,t4,228 <fail>
     eac:	fffff097          	auipc	ra,0xfffff
     eb0:	360080e7          	jalr	864(ra) # 20c <update_test>
     eb4:	212120b7          	lui	ra,0x21212
     eb8:	12108093          	addi	ra,ra,289 # 21212121 <SSEG+0x10152121>
     ebc:	00700113          	li	sp,7
     ec0:	0020df33          	srl	t5,ra,sp
     ec4:	00424eb7          	lui	t4,0x424
     ec8:	242e8e93          	addi	t4,t4,578 # 424242 <__sp+0x414242>
     ecc:	00e00193          	li	gp,14
     ed0:	b5df1c63          	bne	t5,t4,228 <fail>
     ed4:	fffff097          	auipc	ra,0xfffff
     ed8:	338080e7          	jalr	824(ra) # 20c <update_test>
     edc:	212120b7          	lui	ra,0x21212
     ee0:	12108093          	addi	ra,ra,289 # 21212121 <SSEG+0x10152121>
     ee4:	00e00113          	li	sp,14
     ee8:	0020df33          	srl	t5,ra,sp
     eec:	00008eb7          	lui	t4,0x8
     ef0:	484e8e93          	addi	t4,t4,1156 # 8484 <__global_pointer$+0x3d60>
     ef4:	00f00193          	li	gp,15
     ef8:	b3df1863          	bne	t5,t4,228 <fail>
     efc:	fffff097          	auipc	ra,0xfffff
     f00:	310080e7          	jalr	784(ra) # 20c <update_test>
     f04:	212120b7          	lui	ra,0x21212
     f08:	12108093          	addi	ra,ra,289 # 21212121 <SSEG+0x10152121>
     f0c:	01f00113          	li	sp,31
     f10:	0020df33          	srl	t5,ra,sp
     f14:	00000e93          	li	t4,0
     f18:	01000193          	li	gp,16
     f1c:	b1df1663          	bne	t5,t4,228 <fail>
     f20:	fffff097          	auipc	ra,0xfffff
     f24:	2ec080e7          	jalr	748(ra) # 20c <update_test>
     f28:	212120b7          	lui	ra,0x21212
     f2c:	12108093          	addi	ra,ra,289 # 21212121 <SSEG+0x10152121>
     f30:	fc000113          	li	sp,-64
     f34:	0020df33          	srl	t5,ra,sp
     f38:	21212eb7          	lui	t4,0x21212
     f3c:	121e8e93          	addi	t4,t4,289 # 21212121 <SSEG+0x10152121>
     f40:	01100193          	li	gp,17
     f44:	afdf1263          	bne	t5,t4,228 <fail>
     f48:	fffff097          	auipc	ra,0xfffff
     f4c:	2c4080e7          	jalr	708(ra) # 20c <update_test>
     f50:	212120b7          	lui	ra,0x21212
     f54:	12108093          	addi	ra,ra,289 # 21212121 <SSEG+0x10152121>
     f58:	fc100113          	li	sp,-63
     f5c:	0020df33          	srl	t5,ra,sp
     f60:	10909eb7          	lui	t4,0x10909
     f64:	090e8e93          	addi	t4,t4,144 # 10909090 <__sp+0x108f9090>
     f68:	01200193          	li	gp,18
     f6c:	abdf1e63          	bne	t5,t4,228 <fail>
     f70:	fffff097          	auipc	ra,0xfffff
     f74:	29c080e7          	jalr	668(ra) # 20c <update_test>
     f78:	000f8067          	jr	t6

00000f7c <sra_test>:
     f7c:	00000513          	li	a0,0
     f80:	00a62023          	sw	a0,0(a2)
     f84:	800000b7          	lui	ra,0x80000
     f88:	00000113          	li	sp,0
     f8c:	4020df33          	sra	t5,ra,sp
     f90:	80000eb7          	lui	t4,0x80000
     f94:	00200193          	li	gp,2
     f98:	a9df1863          	bne	t5,t4,228 <fail>
     f9c:	fffff097          	auipc	ra,0xfffff
     fa0:	270080e7          	jalr	624(ra) # 20c <update_test>
     fa4:	800000b7          	lui	ra,0x80000
     fa8:	00100113          	li	sp,1
     fac:	4020df33          	sra	t5,ra,sp
     fb0:	c0000eb7          	lui	t4,0xc0000
     fb4:	00300193          	li	gp,3
     fb8:	a7df1863          	bne	t5,t4,228 <fail>
     fbc:	fffff097          	auipc	ra,0xfffff
     fc0:	250080e7          	jalr	592(ra) # 20c <update_test>
     fc4:	800000b7          	lui	ra,0x80000
     fc8:	00700113          	li	sp,7
     fcc:	4020df33          	sra	t5,ra,sp
     fd0:	ff000eb7          	lui	t4,0xff000
     fd4:	00400193          	li	gp,4
     fd8:	a5df1863          	bne	t5,t4,228 <fail>
     fdc:	fffff097          	auipc	ra,0xfffff
     fe0:	230080e7          	jalr	560(ra) # 20c <update_test>
     fe4:	800000b7          	lui	ra,0x80000
     fe8:	00e00113          	li	sp,14
     fec:	4020df33          	sra	t5,ra,sp
     ff0:	fffe0eb7          	lui	t4,0xfffe0
     ff4:	00500193          	li	gp,5
     ff8:	a3df1863          	bne	t5,t4,228 <fail>
     ffc:	fffff097          	auipc	ra,0xfffff
    1000:	210080e7          	jalr	528(ra) # 20c <update_test>
    1004:	800000b7          	lui	ra,0x80000
    1008:	00108093          	addi	ra,ra,1 # 80000001 <SSEG+0x6ef40001>
    100c:	01f00113          	li	sp,31
    1010:	4020df33          	sra	t5,ra,sp
    1014:	fff00e93          	li	t4,-1
    1018:	00600193          	li	gp,6
    101c:	a1df1663          	bne	t5,t4,228 <fail>
    1020:	fffff097          	auipc	ra,0xfffff
    1024:	1ec080e7          	jalr	492(ra) # 20c <update_test>
    1028:	800000b7          	lui	ra,0x80000
    102c:	fff08093          	addi	ra,ra,-1 # 7fffffff <SSEG+0x6ef3ffff>
    1030:	00000113          	li	sp,0
    1034:	4020df33          	sra	t5,ra,sp
    1038:	80000eb7          	lui	t4,0x80000
    103c:	fffe8e93          	addi	t4,t4,-1 # 7fffffff <SSEG+0x6ef3ffff>
    1040:	00700193          	li	gp,7
    1044:	9fdf1263          	bne	t5,t4,228 <fail>
    1048:	fffff097          	auipc	ra,0xfffff
    104c:	1c4080e7          	jalr	452(ra) # 20c <update_test>
    1050:	800000b7          	lui	ra,0x80000
    1054:	fff08093          	addi	ra,ra,-1 # 7fffffff <SSEG+0x6ef3ffff>
    1058:	00100113          	li	sp,1
    105c:	4020df33          	sra	t5,ra,sp
    1060:	40000eb7          	lui	t4,0x40000
    1064:	fffe8e93          	addi	t4,t4,-1 # 3fffffff <SSEG+0x2ef3ffff>
    1068:	00800193          	li	gp,8
    106c:	9bdf1e63          	bne	t5,t4,228 <fail>
    1070:	fffff097          	auipc	ra,0xfffff
    1074:	19c080e7          	jalr	412(ra) # 20c <update_test>
    1078:	800000b7          	lui	ra,0x80000
    107c:	fff08093          	addi	ra,ra,-1 # 7fffffff <SSEG+0x6ef3ffff>
    1080:	00700113          	li	sp,7
    1084:	4020df33          	sra	t5,ra,sp
    1088:	01000eb7          	lui	t4,0x1000
    108c:	fffe8e93          	addi	t4,t4,-1 # ffffff <__sp+0xfeffff>
    1090:	00900193          	li	gp,9
    1094:	99df1a63          	bne	t5,t4,228 <fail>
    1098:	fffff097          	auipc	ra,0xfffff
    109c:	174080e7          	jalr	372(ra) # 20c <update_test>
    10a0:	800000b7          	lui	ra,0x80000
    10a4:	fff08093          	addi	ra,ra,-1 # 7fffffff <SSEG+0x6ef3ffff>
    10a8:	00e00113          	li	sp,14
    10ac:	4020df33          	sra	t5,ra,sp
    10b0:	00020eb7          	lui	t4,0x20
    10b4:	fffe8e93          	addi	t4,t4,-1 # 1ffff <__sp+0xffff>
    10b8:	00a00193          	li	gp,10
    10bc:	97df1663          	bne	t5,t4,228 <fail>
    10c0:	fffff097          	auipc	ra,0xfffff
    10c4:	14c080e7          	jalr	332(ra) # 20c <update_test>
    10c8:	800000b7          	lui	ra,0x80000
    10cc:	fff08093          	addi	ra,ra,-1 # 7fffffff <SSEG+0x6ef3ffff>
    10d0:	01f00113          	li	sp,31
    10d4:	4020df33          	sra	t5,ra,sp
    10d8:	00000e93          	li	t4,0
    10dc:	00b00193          	li	gp,11
    10e0:	95df1463          	bne	t5,t4,228 <fail>
    10e4:	fffff097          	auipc	ra,0xfffff
    10e8:	128080e7          	jalr	296(ra) # 20c <update_test>
    10ec:	818180b7          	lui	ra,0x81818
    10f0:	18108093          	addi	ra,ra,385 # 81818181 <SSEG+0x70758181>
    10f4:	00000113          	li	sp,0
    10f8:	4020df33          	sra	t5,ra,sp
    10fc:	81818eb7          	lui	t4,0x81818
    1100:	181e8e93          	addi	t4,t4,385 # 81818181 <SSEG+0x70758181>
    1104:	00c00193          	li	gp,12
    1108:	93df1063          	bne	t5,t4,228 <fail>
    110c:	fffff097          	auipc	ra,0xfffff
    1110:	100080e7          	jalr	256(ra) # 20c <update_test>
    1114:	818180b7          	lui	ra,0x81818
    1118:	18108093          	addi	ra,ra,385 # 81818181 <SSEG+0x70758181>
    111c:	00100113          	li	sp,1
    1120:	4020df33          	sra	t5,ra,sp
    1124:	c0c0ceb7          	lui	t4,0xc0c0c
    1128:	0c0e8e93          	addi	t4,t4,192 # c0c0c0c0 <SSEG+0xafb4c0c0>
    112c:	00d00193          	li	gp,13
    1130:	8fdf1c63          	bne	t5,t4,228 <fail>
    1134:	fffff097          	auipc	ra,0xfffff
    1138:	0d8080e7          	jalr	216(ra) # 20c <update_test>
    113c:	818180b7          	lui	ra,0x81818
    1140:	18108093          	addi	ra,ra,385 # 81818181 <SSEG+0x70758181>
    1144:	00700113          	li	sp,7
    1148:	4020df33          	sra	t5,ra,sp
    114c:	ff030eb7          	lui	t4,0xff030
    1150:	303e8e93          	addi	t4,t4,771 # ff030303 <SSEG+0xedf70303>
    1154:	00e00193          	li	gp,14
    1158:	8ddf1863          	bne	t5,t4,228 <fail>
    115c:	fffff097          	auipc	ra,0xfffff
    1160:	0b0080e7          	jalr	176(ra) # 20c <update_test>
    1164:	818180b7          	lui	ra,0x81818
    1168:	18108093          	addi	ra,ra,385 # 81818181 <SSEG+0x70758181>
    116c:	00e00113          	li	sp,14
    1170:	4020df33          	sra	t5,ra,sp
    1174:	fffe0eb7          	lui	t4,0xfffe0
    1178:	606e8e93          	addi	t4,t4,1542 # fffe0606 <SSEG+0xeef20606>
    117c:	00f00193          	li	gp,15
    1180:	8bdf1463          	bne	t5,t4,228 <fail>
    1184:	fffff097          	auipc	ra,0xfffff
    1188:	088080e7          	jalr	136(ra) # 20c <update_test>
    118c:	818180b7          	lui	ra,0x81818
    1190:	18108093          	addi	ra,ra,385 # 81818181 <SSEG+0x70758181>
    1194:	01f00113          	li	sp,31
    1198:	4020df33          	sra	t5,ra,sp
    119c:	fff00e93          	li	t4,-1
    11a0:	01000193          	li	gp,16
    11a4:	89df1263          	bne	t5,t4,228 <fail>
    11a8:	fffff097          	auipc	ra,0xfffff
    11ac:	064080e7          	jalr	100(ra) # 20c <update_test>
    11b0:	818180b7          	lui	ra,0x81818
    11b4:	18108093          	addi	ra,ra,385 # 81818181 <SSEG+0x70758181>
    11b8:	fc000113          	li	sp,-64
    11bc:	4020df33          	sra	t5,ra,sp
    11c0:	81818eb7          	lui	t4,0x81818
    11c4:	181e8e93          	addi	t4,t4,385 # 81818181 <SSEG+0x70758181>
    11c8:	01100193          	li	gp,17
    11cc:	85df1e63          	bne	t5,t4,228 <fail>
    11d0:	fffff097          	auipc	ra,0xfffff
    11d4:	03c080e7          	jalr	60(ra) # 20c <update_test>
    11d8:	818180b7          	lui	ra,0x81818
    11dc:	18108093          	addi	ra,ra,385 # 81818181 <SSEG+0x70758181>
    11e0:	fc100113          	li	sp,-63
    11e4:	4020df33          	sra	t5,ra,sp
    11e8:	c0c0ceb7          	lui	t4,0xc0c0c
    11ec:	0c0e8e93          	addi	t4,t4,192 # c0c0c0c0 <SSEG+0xafb4c0c0>
    11f0:	01200193          	li	gp,18
    11f4:	83df1a63          	bne	t5,t4,228 <fail>
    11f8:	fffff097          	auipc	ra,0xfffff
    11fc:	014080e7          	jalr	20(ra) # 20c <update_test>
    1200:	818180b7          	lui	ra,0x81818
    1204:	18108093          	addi	ra,ra,385 # 81818181 <SSEG+0x70758181>
    1208:	fc700113          	li	sp,-57
    120c:	4020df33          	sra	t5,ra,sp
    1210:	ff030eb7          	lui	t4,0xff030
    1214:	303e8e93          	addi	t4,t4,771 # ff030303 <SSEG+0xedf70303>
    1218:	01300193          	li	gp,19
    121c:	81df1663          	bne	t5,t4,228 <fail>
    1220:	fffff097          	auipc	ra,0xfffff
    1224:	fec080e7          	jalr	-20(ra) # 20c <update_test>
    1228:	818180b7          	lui	ra,0x81818
    122c:	18108093          	addi	ra,ra,385 # 81818181 <SSEG+0x70758181>
    1230:	fce00113          	li	sp,-50
    1234:	4020df33          	sra	t5,ra,sp
    1238:	fffe0eb7          	lui	t4,0xfffe0
    123c:	606e8e93          	addi	t4,t4,1542 # fffe0606 <SSEG+0xeef20606>
    1240:	01400193          	li	gp,20
    1244:	01df0463          	beq	t5,t4,124c <sra_test+0x2d0>
    1248:	fe1fe06f          	j	228 <fail>
    124c:	fffff097          	auipc	ra,0xfffff
    1250:	fc0080e7          	jalr	-64(ra) # 20c <update_test>
    1254:	818180b7          	lui	ra,0x81818
    1258:	18108093          	addi	ra,ra,385 # 81818181 <SSEG+0x70758181>
    125c:	fff00113          	li	sp,-1
    1260:	4020df33          	sra	t5,ra,sp
    1264:	fff00e93          	li	t4,-1
    1268:	01500193          	li	gp,21
    126c:	01df0463          	beq	t5,t4,1274 <sra_test+0x2f8>
    1270:	fb9fe06f          	j	228 <fail>
    1274:	fffff097          	auipc	ra,0xfffff
    1278:	f98080e7          	jalr	-104(ra) # 20c <update_test>
    127c:	000f8067          	jr	t6

00001280 <slt_test>:
    1280:	00000513          	li	a0,0
    1284:	00a62023          	sw	a0,0(a2)
    1288:	00000093          	li	ra,0
    128c:	00000113          	li	sp,0
    1290:	0020af33          	slt	t5,ra,sp
    1294:	00000e93          	li	t4,0
    1298:	00200193          	li	gp,2
    129c:	01df0463          	beq	t5,t4,12a4 <slt_test+0x24>
    12a0:	f89fe06f          	j	228 <fail>
    12a4:	fffff097          	auipc	ra,0xfffff
    12a8:	f68080e7          	jalr	-152(ra) # 20c <update_test>
    12ac:	00100093          	li	ra,1
    12b0:	00100113          	li	sp,1
    12b4:	0020af33          	slt	t5,ra,sp
    12b8:	00000e93          	li	t4,0
    12bc:	00300193          	li	gp,3
    12c0:	01df0463          	beq	t5,t4,12c8 <slt_test+0x48>
    12c4:	f65fe06f          	j	228 <fail>
    12c8:	fffff097          	auipc	ra,0xfffff
    12cc:	f44080e7          	jalr	-188(ra) # 20c <update_test>
    12d0:	00300093          	li	ra,3
    12d4:	00700113          	li	sp,7
    12d8:	0020af33          	slt	t5,ra,sp
    12dc:	00100e93          	li	t4,1
    12e0:	00400193          	li	gp,4
    12e4:	01df0463          	beq	t5,t4,12ec <slt_test+0x6c>
    12e8:	f41fe06f          	j	228 <fail>
    12ec:	fffff097          	auipc	ra,0xfffff
    12f0:	f20080e7          	jalr	-224(ra) # 20c <update_test>
    12f4:	00700093          	li	ra,7
    12f8:	00300113          	li	sp,3
    12fc:	0020af33          	slt	t5,ra,sp
    1300:	00000e93          	li	t4,0
    1304:	00500193          	li	gp,5
    1308:	01df0463          	beq	t5,t4,1310 <slt_test+0x90>
    130c:	f1dfe06f          	j	228 <fail>
    1310:	fffff097          	auipc	ra,0xfffff
    1314:	efc080e7          	jalr	-260(ra) # 20c <update_test>
    1318:	00000093          	li	ra,0
    131c:	ffff8137          	lui	sp,0xffff8
    1320:	0020af33          	slt	t5,ra,sp
    1324:	00000e93          	li	t4,0
    1328:	00600193          	li	gp,6
    132c:	01df0463          	beq	t5,t4,1334 <slt_test+0xb4>
    1330:	ef9fe06f          	j	228 <fail>
    1334:	fffff097          	auipc	ra,0xfffff
    1338:	ed8080e7          	jalr	-296(ra) # 20c <update_test>
    133c:	800000b7          	lui	ra,0x80000
    1340:	00000113          	li	sp,0
    1344:	0020af33          	slt	t5,ra,sp
    1348:	00100e93          	li	t4,1
    134c:	00700193          	li	gp,7
    1350:	01df0463          	beq	t5,t4,1358 <slt_test+0xd8>
    1354:	ed5fe06f          	j	228 <fail>
    1358:	fffff097          	auipc	ra,0xfffff
    135c:	eb4080e7          	jalr	-332(ra) # 20c <update_test>
    1360:	800000b7          	lui	ra,0x80000
    1364:	ffff8137          	lui	sp,0xffff8
    1368:	0020af33          	slt	t5,ra,sp
    136c:	00100e93          	li	t4,1
    1370:	00800193          	li	gp,8
    1374:	01df0463          	beq	t5,t4,137c <slt_test+0xfc>
    1378:	eb1fe06f          	j	228 <fail>
    137c:	fffff097          	auipc	ra,0xfffff
    1380:	e90080e7          	jalr	-368(ra) # 20c <update_test>
    1384:	00000093          	li	ra,0
    1388:	00008137          	lui	sp,0x8
    138c:	fff10113          	addi	sp,sp,-1 # 7fff <__global_pointer$+0x38db>
    1390:	0020af33          	slt	t5,ra,sp
    1394:	00100e93          	li	t4,1
    1398:	00900193          	li	gp,9
    139c:	01df0463          	beq	t5,t4,13a4 <slt_test+0x124>
    13a0:	e89fe06f          	j	228 <fail>
    13a4:	fffff097          	auipc	ra,0xfffff
    13a8:	e68080e7          	jalr	-408(ra) # 20c <update_test>
    13ac:	800000b7          	lui	ra,0x80000
    13b0:	fff08093          	addi	ra,ra,-1 # 7fffffff <SSEG+0x6ef3ffff>
    13b4:	00000113          	li	sp,0
    13b8:	0020af33          	slt	t5,ra,sp
    13bc:	00000e93          	li	t4,0
    13c0:	00a00193          	li	gp,10
    13c4:	01df0463          	beq	t5,t4,13cc <slt_test+0x14c>
    13c8:	e61fe06f          	j	228 <fail>
    13cc:	fffff097          	auipc	ra,0xfffff
    13d0:	e40080e7          	jalr	-448(ra) # 20c <update_test>
    13d4:	800000b7          	lui	ra,0x80000
    13d8:	fff08093          	addi	ra,ra,-1 # 7fffffff <SSEG+0x6ef3ffff>
    13dc:	00008137          	lui	sp,0x8
    13e0:	fff10113          	addi	sp,sp,-1 # 7fff <__global_pointer$+0x38db>
    13e4:	0020af33          	slt	t5,ra,sp
    13e8:	00000e93          	li	t4,0
    13ec:	00b00193          	li	gp,11
    13f0:	01df0463          	beq	t5,t4,13f8 <slt_test+0x178>
    13f4:	e35fe06f          	j	228 <fail>
    13f8:	fffff097          	auipc	ra,0xfffff
    13fc:	e14080e7          	jalr	-492(ra) # 20c <update_test>
    1400:	800000b7          	lui	ra,0x80000
    1404:	00008137          	lui	sp,0x8
    1408:	fff10113          	addi	sp,sp,-1 # 7fff <__global_pointer$+0x38db>
    140c:	0020af33          	slt	t5,ra,sp
    1410:	00100e93          	li	t4,1
    1414:	00c00193          	li	gp,12
    1418:	01df0463          	beq	t5,t4,1420 <slt_test+0x1a0>
    141c:	e0dfe06f          	j	228 <fail>
    1420:	fffff097          	auipc	ra,0xfffff
    1424:	dec080e7          	jalr	-532(ra) # 20c <update_test>
    1428:	800000b7          	lui	ra,0x80000
    142c:	fff08093          	addi	ra,ra,-1 # 7fffffff <SSEG+0x6ef3ffff>
    1430:	ffff8137          	lui	sp,0xffff8
    1434:	0020af33          	slt	t5,ra,sp
    1438:	00000e93          	li	t4,0
    143c:	00d00193          	li	gp,13
    1440:	01df0463          	beq	t5,t4,1448 <slt_test+0x1c8>
    1444:	de5fe06f          	j	228 <fail>
    1448:	fffff097          	auipc	ra,0xfffff
    144c:	dc4080e7          	jalr	-572(ra) # 20c <update_test>
    1450:	00000093          	li	ra,0
    1454:	fff00113          	li	sp,-1
    1458:	0020af33          	slt	t5,ra,sp
    145c:	00000e93          	li	t4,0
    1460:	00e00193          	li	gp,14
    1464:	01df0463          	beq	t5,t4,146c <slt_test+0x1ec>
    1468:	dc1fe06f          	j	228 <fail>
    146c:	fffff097          	auipc	ra,0xfffff
    1470:	da0080e7          	jalr	-608(ra) # 20c <update_test>
    1474:	fff00093          	li	ra,-1
    1478:	00100113          	li	sp,1
    147c:	0020af33          	slt	t5,ra,sp
    1480:	00100e93          	li	t4,1
    1484:	00f00193          	li	gp,15
    1488:	01df0463          	beq	t5,t4,1490 <slt_test+0x210>
    148c:	d9dfe06f          	j	228 <fail>
    1490:	fffff097          	auipc	ra,0xfffff
    1494:	d7c080e7          	jalr	-644(ra) # 20c <update_test>
    1498:	fff00093          	li	ra,-1
    149c:	fff00113          	li	sp,-1
    14a0:	0020af33          	slt	t5,ra,sp
    14a4:	00000e93          	li	t4,0
    14a8:	01000193          	li	gp,16
    14ac:	01df0463          	beq	t5,t4,14b4 <slt_test+0x234>
    14b0:	d79fe06f          	j	228 <fail>
    14b4:	fffff097          	auipc	ra,0xfffff
    14b8:	d58080e7          	jalr	-680(ra) # 20c <update_test>
    14bc:	00e00093          	li	ra,14
    14c0:	00d00113          	li	sp,13
    14c4:	0020a0b3          	slt	ra,ra,sp
    14c8:	00000e93          	li	t4,0
    14cc:	01100193          	li	gp,17
    14d0:	01d08463          	beq	ra,t4,14d8 <slt_test+0x258>
    14d4:	d55fe06f          	j	228 <fail>
    14d8:	fffff097          	auipc	ra,0xfffff
    14dc:	d34080e7          	jalr	-716(ra) # 20c <update_test>
    14e0:	000f8067          	jr	t6

000014e4 <sltu_test>:
    14e4:	00000513          	li	a0,0
    14e8:	00a62023          	sw	a0,0(a2)
    14ec:	00000093          	li	ra,0
    14f0:	00000113          	li	sp,0
    14f4:	0020bf33          	sltu	t5,ra,sp
    14f8:	00000e93          	li	t4,0
    14fc:	00200193          	li	gp,2
    1500:	01df0463          	beq	t5,t4,1508 <sltu_test+0x24>
    1504:	d25fe06f          	j	228 <fail>
    1508:	fffff097          	auipc	ra,0xfffff
    150c:	d04080e7          	jalr	-764(ra) # 20c <update_test>
    1510:	00100093          	li	ra,1
    1514:	00100113          	li	sp,1
    1518:	0020bf33          	sltu	t5,ra,sp
    151c:	00000e93          	li	t4,0
    1520:	00300193          	li	gp,3
    1524:	01df0463          	beq	t5,t4,152c <sltu_test+0x48>
    1528:	d01fe06f          	j	228 <fail>
    152c:	fffff097          	auipc	ra,0xfffff
    1530:	ce0080e7          	jalr	-800(ra) # 20c <update_test>
    1534:	00300093          	li	ra,3
    1538:	00700113          	li	sp,7
    153c:	0020bf33          	sltu	t5,ra,sp
    1540:	00100e93          	li	t4,1
    1544:	00400193          	li	gp,4
    1548:	01df0463          	beq	t5,t4,1550 <sltu_test+0x6c>
    154c:	cddfe06f          	j	228 <fail>
    1550:	fffff097          	auipc	ra,0xfffff
    1554:	cbc080e7          	jalr	-836(ra) # 20c <update_test>
    1558:	00700093          	li	ra,7
    155c:	00300113          	li	sp,3
    1560:	0020bf33          	sltu	t5,ra,sp
    1564:	00000e93          	li	t4,0
    1568:	00500193          	li	gp,5
    156c:	01df0463          	beq	t5,t4,1574 <sltu_test+0x90>
    1570:	cb9fe06f          	j	228 <fail>
    1574:	fffff097          	auipc	ra,0xfffff
    1578:	c98080e7          	jalr	-872(ra) # 20c <update_test>
    157c:	00000093          	li	ra,0
    1580:	ffff8137          	lui	sp,0xffff8
    1584:	0020bf33          	sltu	t5,ra,sp
    1588:	00100e93          	li	t4,1
    158c:	00600193          	li	gp,6
    1590:	01df0463          	beq	t5,t4,1598 <sltu_test+0xb4>
    1594:	c95fe06f          	j	228 <fail>
    1598:	fffff097          	auipc	ra,0xfffff
    159c:	c74080e7          	jalr	-908(ra) # 20c <update_test>
    15a0:	800000b7          	lui	ra,0x80000
    15a4:	00000113          	li	sp,0
    15a8:	0020bf33          	sltu	t5,ra,sp
    15ac:	00000e93          	li	t4,0
    15b0:	00700193          	li	gp,7
    15b4:	01df0463          	beq	t5,t4,15bc <sltu_test+0xd8>
    15b8:	c71fe06f          	j	228 <fail>
    15bc:	fffff097          	auipc	ra,0xfffff
    15c0:	c50080e7          	jalr	-944(ra) # 20c <update_test>
    15c4:	800000b7          	lui	ra,0x80000
    15c8:	ffff8137          	lui	sp,0xffff8
    15cc:	0020bf33          	sltu	t5,ra,sp
    15d0:	00100e93          	li	t4,1
    15d4:	00800193          	li	gp,8
    15d8:	01df0463          	beq	t5,t4,15e0 <sltu_test+0xfc>
    15dc:	c4dfe06f          	j	228 <fail>
    15e0:	fffff097          	auipc	ra,0xfffff
    15e4:	c2c080e7          	jalr	-980(ra) # 20c <update_test>
    15e8:	00000093          	li	ra,0
    15ec:	00008137          	lui	sp,0x8
    15f0:	fff10113          	addi	sp,sp,-1 # 7fff <__global_pointer$+0x38db>
    15f4:	0020bf33          	sltu	t5,ra,sp
    15f8:	00100e93          	li	t4,1
    15fc:	00900193          	li	gp,9
    1600:	01df0463          	beq	t5,t4,1608 <sltu_test+0x124>
    1604:	c25fe06f          	j	228 <fail>
    1608:	fffff097          	auipc	ra,0xfffff
    160c:	c04080e7          	jalr	-1020(ra) # 20c <update_test>
    1610:	800000b7          	lui	ra,0x80000
    1614:	fff08093          	addi	ra,ra,-1 # 7fffffff <SSEG+0x6ef3ffff>
    1618:	00000113          	li	sp,0
    161c:	0020bf33          	sltu	t5,ra,sp
    1620:	00000e93          	li	t4,0
    1624:	00a00193          	li	gp,10
    1628:	01df0463          	beq	t5,t4,1630 <sltu_test+0x14c>
    162c:	bfdfe06f          	j	228 <fail>
    1630:	fffff097          	auipc	ra,0xfffff
    1634:	bdc080e7          	jalr	-1060(ra) # 20c <update_test>
    1638:	800000b7          	lui	ra,0x80000
    163c:	fff08093          	addi	ra,ra,-1 # 7fffffff <SSEG+0x6ef3ffff>
    1640:	00008137          	lui	sp,0x8
    1644:	fff10113          	addi	sp,sp,-1 # 7fff <__global_pointer$+0x38db>
    1648:	0020bf33          	sltu	t5,ra,sp
    164c:	00000e93          	li	t4,0
    1650:	00b00193          	li	gp,11
    1654:	01df0463          	beq	t5,t4,165c <sltu_test+0x178>
    1658:	bd1fe06f          	j	228 <fail>
    165c:	fffff097          	auipc	ra,0xfffff
    1660:	bb0080e7          	jalr	-1104(ra) # 20c <update_test>
    1664:	800000b7          	lui	ra,0x80000
    1668:	00008137          	lui	sp,0x8
    166c:	fff10113          	addi	sp,sp,-1 # 7fff <__global_pointer$+0x38db>
    1670:	0020bf33          	sltu	t5,ra,sp
    1674:	00000e93          	li	t4,0
    1678:	00c00193          	li	gp,12
    167c:	01df0463          	beq	t5,t4,1684 <sltu_test+0x1a0>
    1680:	ba9fe06f          	j	228 <fail>
    1684:	fffff097          	auipc	ra,0xfffff
    1688:	b88080e7          	jalr	-1144(ra) # 20c <update_test>
    168c:	800000b7          	lui	ra,0x80000
    1690:	fff08093          	addi	ra,ra,-1 # 7fffffff <SSEG+0x6ef3ffff>
    1694:	ffff8137          	lui	sp,0xffff8
    1698:	0020bf33          	sltu	t5,ra,sp
    169c:	00100e93          	li	t4,1
    16a0:	00d00193          	li	gp,13
    16a4:	01df0463          	beq	t5,t4,16ac <sltu_test+0x1c8>
    16a8:	b81fe06f          	j	228 <fail>
    16ac:	fffff097          	auipc	ra,0xfffff
    16b0:	b60080e7          	jalr	-1184(ra) # 20c <update_test>
    16b4:	00000093          	li	ra,0
    16b8:	fff00113          	li	sp,-1
    16bc:	0020bf33          	sltu	t5,ra,sp
    16c0:	00100e93          	li	t4,1
    16c4:	00e00193          	li	gp,14
    16c8:	01df0463          	beq	t5,t4,16d0 <sltu_test+0x1ec>
    16cc:	b5dfe06f          	j	228 <fail>
    16d0:	fffff097          	auipc	ra,0xfffff
    16d4:	b3c080e7          	jalr	-1220(ra) # 20c <update_test>
    16d8:	fff00093          	li	ra,-1
    16dc:	00100113          	li	sp,1
    16e0:	0020bf33          	sltu	t5,ra,sp
    16e4:	00000e93          	li	t4,0
    16e8:	00f00193          	li	gp,15
    16ec:	01df0463          	beq	t5,t4,16f4 <sltu_test+0x210>
    16f0:	b39fe06f          	j	228 <fail>
    16f4:	fffff097          	auipc	ra,0xfffff
    16f8:	b18080e7          	jalr	-1256(ra) # 20c <update_test>
    16fc:	fff00093          	li	ra,-1
    1700:	fff00113          	li	sp,-1
    1704:	0020bf33          	sltu	t5,ra,sp
    1708:	00000e93          	li	t4,0
    170c:	01000193          	li	gp,16
    1710:	01df0463          	beq	t5,t4,1718 <sltu_test+0x234>
    1714:	b15fe06f          	j	228 <fail>
    1718:	fffff097          	auipc	ra,0xfffff
    171c:	af4080e7          	jalr	-1292(ra) # 20c <update_test>
    1720:	00e00093          	li	ra,14
    1724:	00d00113          	li	sp,13
    1728:	0020b0b3          	sltu	ra,ra,sp
    172c:	00000e93          	li	t4,0
    1730:	01100193          	li	gp,17
    1734:	01d08463          	beq	ra,t4,173c <sltu_test+0x258>
    1738:	af1fe06f          	j	228 <fail>
    173c:	fffff097          	auipc	ra,0xfffff
    1740:	ad0080e7          	jalr	-1328(ra) # 20c <update_test>
    1744:	000f8067          	jr	t6

00001748 <addi_test>:
    1748:	00000513          	li	a0,0
    174c:	00a62023          	sw	a0,0(a2)
    1750:	00000093          	li	ra,0
    1754:	00008f13          	mv	t5,ra
    1758:	00000e93          	li	t4,0
    175c:	00200193          	li	gp,2
    1760:	01df0463          	beq	t5,t4,1768 <addi_test+0x20>
    1764:	ac5fe06f          	j	228 <fail>
    1768:	fffff097          	auipc	ra,0xfffff
    176c:	aa4080e7          	jalr	-1372(ra) # 20c <update_test>
    1770:	00100093          	li	ra,1
    1774:	00108f13          	addi	t5,ra,1
    1778:	00200e93          	li	t4,2
    177c:	00300193          	li	gp,3
    1780:	01df0463          	beq	t5,t4,1788 <addi_test+0x40>
    1784:	aa5fe06f          	j	228 <fail>
    1788:	fffff097          	auipc	ra,0xfffff
    178c:	a84080e7          	jalr	-1404(ra) # 20c <update_test>
    1790:	00300093          	li	ra,3
    1794:	00708f13          	addi	t5,ra,7
    1798:	00a00e93          	li	t4,10
    179c:	00400193          	li	gp,4
    17a0:	01df0463          	beq	t5,t4,17a8 <addi_test+0x60>
    17a4:	a85fe06f          	j	228 <fail>
    17a8:	fffff097          	auipc	ra,0xfffff
    17ac:	a64080e7          	jalr	-1436(ra) # 20c <update_test>
    17b0:	00000093          	li	ra,0
    17b4:	80008f13          	addi	t5,ra,-2048
    17b8:	80000e93          	li	t4,-2048
    17bc:	00500193          	li	gp,5
    17c0:	01df0463          	beq	t5,t4,17c8 <addi_test+0x80>
    17c4:	a65fe06f          	j	228 <fail>
    17c8:	fffff097          	auipc	ra,0xfffff
    17cc:	a44080e7          	jalr	-1468(ra) # 20c <update_test>
    17d0:	800000b7          	lui	ra,0x80000
    17d4:	00008f13          	mv	t5,ra
    17d8:	80000eb7          	lui	t4,0x80000
    17dc:	00600193          	li	gp,6
    17e0:	01df0463          	beq	t5,t4,17e8 <addi_test+0xa0>
    17e4:	a45fe06f          	j	228 <fail>
    17e8:	fffff097          	auipc	ra,0xfffff
    17ec:	a24080e7          	jalr	-1500(ra) # 20c <update_test>
    17f0:	800000b7          	lui	ra,0x80000
    17f4:	80008f13          	addi	t5,ra,-2048 # 7ffff800 <SSEG+0x6ef3f800>
    17f8:	80000eb7          	lui	t4,0x80000
    17fc:	800e8e93          	addi	t4,t4,-2048 # 7ffff800 <SSEG+0x6ef3f800>
    1800:	00700193          	li	gp,7
    1804:	01df0463          	beq	t5,t4,180c <addi_test+0xc4>
    1808:	a21fe06f          	j	228 <fail>
    180c:	fffff097          	auipc	ra,0xfffff
    1810:	a00080e7          	jalr	-1536(ra) # 20c <update_test>
    1814:	00000093          	li	ra,0
    1818:	7ff08f13          	addi	t5,ra,2047
    181c:	7ff00e93          	li	t4,2047
    1820:	00800193          	li	gp,8
    1824:	01df0463          	beq	t5,t4,182c <addi_test+0xe4>
    1828:	a01fe06f          	j	228 <fail>
    182c:	fffff097          	auipc	ra,0xfffff
    1830:	9e0080e7          	jalr	-1568(ra) # 20c <update_test>
    1834:	800000b7          	lui	ra,0x80000
    1838:	fff08093          	addi	ra,ra,-1 # 7fffffff <SSEG+0x6ef3ffff>
    183c:	00008f13          	mv	t5,ra
    1840:	80000eb7          	lui	t4,0x80000
    1844:	fffe8e93          	addi	t4,t4,-1 # 7fffffff <SSEG+0x6ef3ffff>
    1848:	00900193          	li	gp,9
    184c:	01df0463          	beq	t5,t4,1854 <addi_test+0x10c>
    1850:	9d9fe06f          	j	228 <fail>
    1854:	fffff097          	auipc	ra,0xfffff
    1858:	9b8080e7          	jalr	-1608(ra) # 20c <update_test>
    185c:	800000b7          	lui	ra,0x80000
    1860:	fff08093          	addi	ra,ra,-1 # 7fffffff <SSEG+0x6ef3ffff>
    1864:	7ff08f13          	addi	t5,ra,2047
    1868:	80000eb7          	lui	t4,0x80000
    186c:	7fee8e93          	addi	t4,t4,2046 # 800007fe <SSEG+0x6ef407fe>
    1870:	00a00193          	li	gp,10
    1874:	01df0463          	beq	t5,t4,187c <addi_test+0x134>
    1878:	9b1fe06f          	j	228 <fail>
    187c:	fffff097          	auipc	ra,0xfffff
    1880:	990080e7          	jalr	-1648(ra) # 20c <update_test>
    1884:	800000b7          	lui	ra,0x80000
    1888:	7ff08f13          	addi	t5,ra,2047 # 800007ff <SSEG+0x6ef407ff>
    188c:	80000eb7          	lui	t4,0x80000
    1890:	7ffe8e93          	addi	t4,t4,2047 # 800007ff <SSEG+0x6ef407ff>
    1894:	00b00193          	li	gp,11
    1898:	01df0463          	beq	t5,t4,18a0 <addi_test+0x158>
    189c:	98dfe06f          	j	228 <fail>
    18a0:	fffff097          	auipc	ra,0xfffff
    18a4:	96c080e7          	jalr	-1684(ra) # 20c <update_test>
    18a8:	800000b7          	lui	ra,0x80000
    18ac:	fff08093          	addi	ra,ra,-1 # 7fffffff <SSEG+0x6ef3ffff>
    18b0:	80008f13          	addi	t5,ra,-2048
    18b4:	7ffffeb7          	lui	t4,0x7ffff
    18b8:	7ffe8e93          	addi	t4,t4,2047 # 7ffff7ff <SSEG+0x6ef3f7ff>
    18bc:	00c00193          	li	gp,12
    18c0:	01df0463          	beq	t5,t4,18c8 <addi_test+0x180>
    18c4:	965fe06f          	j	228 <fail>
    18c8:	fffff097          	auipc	ra,0xfffff
    18cc:	944080e7          	jalr	-1724(ra) # 20c <update_test>
    18d0:	00000093          	li	ra,0
    18d4:	fff08f13          	addi	t5,ra,-1
    18d8:	fff00e93          	li	t4,-1
    18dc:	00d00193          	li	gp,13
    18e0:	01df0463          	beq	t5,t4,18e8 <addi_test+0x1a0>
    18e4:	945fe06f          	j	228 <fail>
    18e8:	fffff097          	auipc	ra,0xfffff
    18ec:	924080e7          	jalr	-1756(ra) # 20c <update_test>
    18f0:	fff00093          	li	ra,-1
    18f4:	00108f13          	addi	t5,ra,1
    18f8:	00000e93          	li	t4,0
    18fc:	00e00193          	li	gp,14
    1900:	01df0463          	beq	t5,t4,1908 <addi_test+0x1c0>
    1904:	925fe06f          	j	228 <fail>
    1908:	fffff097          	auipc	ra,0xfffff
    190c:	904080e7          	jalr	-1788(ra) # 20c <update_test>
    1910:	fff00093          	li	ra,-1
    1914:	fff08f13          	addi	t5,ra,-1
    1918:	ffe00e93          	li	t4,-2
    191c:	00f00193          	li	gp,15
    1920:	01df0463          	beq	t5,t4,1928 <addi_test+0x1e0>
    1924:	905fe06f          	j	228 <fail>
    1928:	fffff097          	auipc	ra,0xfffff
    192c:	8e4080e7          	jalr	-1820(ra) # 20c <update_test>
    1930:	800000b7          	lui	ra,0x80000
    1934:	fff08093          	addi	ra,ra,-1 # 7fffffff <SSEG+0x6ef3ffff>
    1938:	00108f13          	addi	t5,ra,1
    193c:	80000eb7          	lui	t4,0x80000
    1940:	01000193          	li	gp,16
    1944:	01df0463          	beq	t5,t4,194c <addi_test+0x204>
    1948:	8e1fe06f          	j	228 <fail>
    194c:	fffff097          	auipc	ra,0xfffff
    1950:	8c0080e7          	jalr	-1856(ra) # 20c <update_test>
    1954:	00d00093          	li	ra,13
    1958:	00b08093          	addi	ra,ra,11
    195c:	01800e93          	li	t4,24
    1960:	01100193          	li	gp,17
    1964:	01d08463          	beq	ra,t4,196c <addi_test+0x224>
    1968:	8c1fe06f          	j	228 <fail>
    196c:	fffff097          	auipc	ra,0xfffff
    1970:	8a0080e7          	jalr	-1888(ra) # 20c <update_test>
    1974:	000f8067          	jr	t6

00001978 <andi_test>:
    1978:	00000513          	li	a0,0
    197c:	00a62023          	sw	a0,0(a2)
    1980:	ff0100b7          	lui	ra,0xff010
    1984:	f0008093          	addi	ra,ra,-256 # ff00ff00 <SSEG+0xedf4ff00>
    1988:	f0f0ff13          	andi	t5,ra,-241
    198c:	ff010eb7          	lui	t4,0xff010
    1990:	f00e8e93          	addi	t4,t4,-256 # ff00ff00 <SSEG+0xedf4ff00>
    1994:	00200193          	li	gp,2
    1998:	01df0463          	beq	t5,t4,19a0 <andi_test+0x28>
    199c:	88dfe06f          	j	228 <fail>
    19a0:	fffff097          	auipc	ra,0xfffff
    19a4:	86c080e7          	jalr	-1940(ra) # 20c <update_test>
    19a8:	0ff010b7          	lui	ra,0xff01
    19ac:	ff008093          	addi	ra,ra,-16 # ff00ff0 <__sp+0xfef0ff0>
    19b0:	0f00ff13          	andi	t5,ra,240
    19b4:	0f000e93          	li	t4,240
    19b8:	00300193          	li	gp,3
    19bc:	01df0463          	beq	t5,t4,19c4 <andi_test+0x4c>
    19c0:	869fe06f          	j	228 <fail>
    19c4:	fffff097          	auipc	ra,0xfffff
    19c8:	848080e7          	jalr	-1976(ra) # 20c <update_test>
    19cc:	00ff00b7          	lui	ra,0xff0
    19d0:	0ff08093          	addi	ra,ra,255 # ff00ff <__sp+0xfe00ff>
    19d4:	70f0ff13          	andi	t5,ra,1807
    19d8:	00f00e93          	li	t4,15
    19dc:	00400193          	li	gp,4
    19e0:	01df0463          	beq	t5,t4,19e8 <andi_test+0x70>
    19e4:	845fe06f          	j	228 <fail>
    19e8:	fffff097          	auipc	ra,0xfffff
    19ec:	824080e7          	jalr	-2012(ra) # 20c <update_test>
    19f0:	f00ff0b7          	lui	ra,0xf00ff
    19f4:	00f08093          	addi	ra,ra,15 # f00ff00f <SSEG+0xdf03f00f>
    19f8:	0f00ff13          	andi	t5,ra,240
    19fc:	00000e93          	li	t4,0
    1a00:	00500193          	li	gp,5
    1a04:	01df0463          	beq	t5,t4,1a0c <andi_test+0x94>
    1a08:	821fe06f          	j	228 <fail>
    1a0c:	fffff097          	auipc	ra,0xfffff
    1a10:	800080e7          	jalr	-2048(ra) # 20c <update_test>
    1a14:	ff0100b7          	lui	ra,0xff010
    1a18:	f0008093          	addi	ra,ra,-256 # ff00ff00 <SSEG+0xedf4ff00>
    1a1c:	0f00f093          	andi	ra,ra,240
    1a20:	00000e93          	li	t4,0
    1a24:	00600193          	li	gp,6
    1a28:	01d08463          	beq	ra,t4,1a30 <andi_test+0xb8>
    1a2c:	ffcfe06f          	j	228 <fail>
    1a30:	ffffe097          	auipc	ra,0xffffe
    1a34:	7dc080e7          	jalr	2012(ra) # 20c <update_test>
    1a38:	000f8067          	jr	t6

00001a3c <ori_test>:
    1a3c:	00000513          	li	a0,0
    1a40:	00a62023          	sw	a0,0(a2)
    1a44:	ff0100b7          	lui	ra,0xff010
    1a48:	f0008093          	addi	ra,ra,-256 # ff00ff00 <SSEG+0xedf4ff00>
    1a4c:	f0f0ef13          	ori	t5,ra,-241
    1a50:	f0f00e93          	li	t4,-241
    1a54:	00200193          	li	gp,2
    1a58:	01df0463          	beq	t5,t4,1a60 <ori_test+0x24>
    1a5c:	fccfe06f          	j	228 <fail>
    1a60:	ffffe097          	auipc	ra,0xffffe
    1a64:	7ac080e7          	jalr	1964(ra) # 20c <update_test>
    1a68:	0ff010b7          	lui	ra,0xff01
    1a6c:	ff008093          	addi	ra,ra,-16 # ff00ff0 <__sp+0xfef0ff0>
    1a70:	0f00ef13          	ori	t5,ra,240
    1a74:	0ff01eb7          	lui	t4,0xff01
    1a78:	ff0e8e93          	addi	t4,t4,-16 # ff00ff0 <__sp+0xfef0ff0>
    1a7c:	00300193          	li	gp,3
    1a80:	01df0463          	beq	t5,t4,1a88 <ori_test+0x4c>
    1a84:	fa4fe06f          	j	228 <fail>
    1a88:	ffffe097          	auipc	ra,0xffffe
    1a8c:	784080e7          	jalr	1924(ra) # 20c <update_test>
    1a90:	00ff00b7          	lui	ra,0xff0
    1a94:	0ff08093          	addi	ra,ra,255 # ff00ff <__sp+0xfe00ff>
    1a98:	70f0ef13          	ori	t5,ra,1807
    1a9c:	00ff0eb7          	lui	t4,0xff0
    1aa0:	7ffe8e93          	addi	t4,t4,2047 # ff07ff <__sp+0xfe07ff>
    1aa4:	00400193          	li	gp,4
    1aa8:	01df0463          	beq	t5,t4,1ab0 <ori_test+0x74>
    1aac:	f7cfe06f          	j	228 <fail>
    1ab0:	ffffe097          	auipc	ra,0xffffe
    1ab4:	75c080e7          	jalr	1884(ra) # 20c <update_test>
    1ab8:	f00ff0b7          	lui	ra,0xf00ff
    1abc:	00f08093          	addi	ra,ra,15 # f00ff00f <SSEG+0xdf03f00f>
    1ac0:	0f00ef13          	ori	t5,ra,240
    1ac4:	f00ffeb7          	lui	t4,0xf00ff
    1ac8:	0ffe8e93          	addi	t4,t4,255 # f00ff0ff <SSEG+0xdf03f0ff>
    1acc:	00500193          	li	gp,5
    1ad0:	01df0463          	beq	t5,t4,1ad8 <ori_test+0x9c>
    1ad4:	f54fe06f          	j	228 <fail>
    1ad8:	ffffe097          	auipc	ra,0xffffe
    1adc:	734080e7          	jalr	1844(ra) # 20c <update_test>
    1ae0:	ff0100b7          	lui	ra,0xff010
    1ae4:	f0008093          	addi	ra,ra,-256 # ff00ff00 <SSEG+0xedf4ff00>
    1ae8:	0f00e093          	ori	ra,ra,240
    1aec:	ff010eb7          	lui	t4,0xff010
    1af0:	ff0e8e93          	addi	t4,t4,-16 # ff00fff0 <SSEG+0xedf4fff0>
    1af4:	00600193          	li	gp,6
    1af8:	01d08463          	beq	ra,t4,1b00 <ori_test+0xc4>
    1afc:	f2cfe06f          	j	228 <fail>
    1b00:	ffffe097          	auipc	ra,0xffffe
    1b04:	70c080e7          	jalr	1804(ra) # 20c <update_test>
    1b08:	000f8067          	jr	t6

00001b0c <xori_test>:
    1b0c:	00000513          	li	a0,0
    1b10:	00a62023          	sw	a0,0(a2)
    1b14:	00ff10b7          	lui	ra,0xff1
    1b18:	f0008093          	addi	ra,ra,-256 # ff0f00 <__sp+0xfe0f00>
    1b1c:	f0f0cf13          	xori	t5,ra,-241
    1b20:	ff00feb7          	lui	t4,0xff00f
    1b24:	00fe8e93          	addi	t4,t4,15 # ff00f00f <SSEG+0xedf4f00f>
    1b28:	00200193          	li	gp,2
    1b2c:	01df0463          	beq	t5,t4,1b34 <xori_test+0x28>
    1b30:	ef8fe06f          	j	228 <fail>
    1b34:	ffffe097          	auipc	ra,0xffffe
    1b38:	6d8080e7          	jalr	1752(ra) # 20c <update_test>
    1b3c:	0ff010b7          	lui	ra,0xff01
    1b40:	ff008093          	addi	ra,ra,-16 # ff00ff0 <__sp+0xfef0ff0>
    1b44:	0f00cf13          	xori	t5,ra,240
    1b48:	0ff01eb7          	lui	t4,0xff01
    1b4c:	f00e8e93          	addi	t4,t4,-256 # ff00f00 <__sp+0xfef0f00>
    1b50:	00300193          	li	gp,3
    1b54:	01df0463          	beq	t5,t4,1b5c <xori_test+0x50>
    1b58:	ed0fe06f          	j	228 <fail>
    1b5c:	ffffe097          	auipc	ra,0xffffe
    1b60:	6b0080e7          	jalr	1712(ra) # 20c <update_test>
    1b64:	00ff10b7          	lui	ra,0xff1
    1b68:	8ff08093          	addi	ra,ra,-1793 # ff08ff <__sp+0xfe08ff>
    1b6c:	70f0cf13          	xori	t5,ra,1807
    1b70:	00ff1eb7          	lui	t4,0xff1
    1b74:	ff0e8e93          	addi	t4,t4,-16 # ff0ff0 <__sp+0xfe0ff0>
    1b78:	00400193          	li	gp,4
    1b7c:	01df0463          	beq	t5,t4,1b84 <xori_test+0x78>
    1b80:	ea8fe06f          	j	228 <fail>
    1b84:	ffffe097          	auipc	ra,0xffffe
    1b88:	688080e7          	jalr	1672(ra) # 20c <update_test>
    1b8c:	f00ff0b7          	lui	ra,0xf00ff
    1b90:	00f08093          	addi	ra,ra,15 # f00ff00f <SSEG+0xdf03f00f>
    1b94:	0f00cf13          	xori	t5,ra,240
    1b98:	f00ffeb7          	lui	t4,0xf00ff
    1b9c:	0ffe8e93          	addi	t4,t4,255 # f00ff0ff <SSEG+0xdf03f0ff>
    1ba0:	00500193          	li	gp,5
    1ba4:	01df0463          	beq	t5,t4,1bac <xori_test+0xa0>
    1ba8:	e80fe06f          	j	228 <fail>
    1bac:	ffffe097          	auipc	ra,0xffffe
    1bb0:	660080e7          	jalr	1632(ra) # 20c <update_test>
    1bb4:	ff00f0b7          	lui	ra,0xff00f
    1bb8:	70008093          	addi	ra,ra,1792 # ff00f700 <SSEG+0xedf4f700>
    1bbc:	70f0c093          	xori	ra,ra,1807
    1bc0:	ff00feb7          	lui	t4,0xff00f
    1bc4:	00fe8e93          	addi	t4,t4,15 # ff00f00f <SSEG+0xedf4f00f>
    1bc8:	00600193          	li	gp,6
    1bcc:	01d08463          	beq	ra,t4,1bd4 <xori_test+0xc8>
    1bd0:	e58fe06f          	j	228 <fail>
    1bd4:	ffffe097          	auipc	ra,0xffffe
    1bd8:	638080e7          	jalr	1592(ra) # 20c <update_test>
    1bdc:	000f8067          	jr	t6

00001be0 <slli_test>:
    1be0:	00000513          	li	a0,0
    1be4:	00a62023          	sw	a0,0(a2)
    1be8:	00100093          	li	ra,1
    1bec:	00009f13          	slli	t5,ra,0x0
    1bf0:	00100e93          	li	t4,1
    1bf4:	00200193          	li	gp,2
    1bf8:	01df0463          	beq	t5,t4,1c00 <slli_test+0x20>
    1bfc:	e2cfe06f          	j	228 <fail>
    1c00:	ffffe097          	auipc	ra,0xffffe
    1c04:	60c080e7          	jalr	1548(ra) # 20c <update_test>
    1c08:	00100093          	li	ra,1
    1c0c:	00109f13          	slli	t5,ra,0x1
    1c10:	00200e93          	li	t4,2
    1c14:	00300193          	li	gp,3
    1c18:	01df0463          	beq	t5,t4,1c20 <slli_test+0x40>
    1c1c:	e0cfe06f          	j	228 <fail>
    1c20:	ffffe097          	auipc	ra,0xffffe
    1c24:	5ec080e7          	jalr	1516(ra) # 20c <update_test>
    1c28:	00100093          	li	ra,1
    1c2c:	00709f13          	slli	t5,ra,0x7
    1c30:	08000e93          	li	t4,128
    1c34:	00400193          	li	gp,4
    1c38:	01df0463          	beq	t5,t4,1c40 <slli_test+0x60>
    1c3c:	decfe06f          	j	228 <fail>
    1c40:	ffffe097          	auipc	ra,0xffffe
    1c44:	5cc080e7          	jalr	1484(ra) # 20c <update_test>
    1c48:	00100093          	li	ra,1
    1c4c:	00e09f13          	slli	t5,ra,0xe
    1c50:	00004eb7          	lui	t4,0x4
    1c54:	00500193          	li	gp,5
    1c58:	01df0463          	beq	t5,t4,1c60 <slli_test+0x80>
    1c5c:	dccfe06f          	j	228 <fail>
    1c60:	ffffe097          	auipc	ra,0xffffe
    1c64:	5ac080e7          	jalr	1452(ra) # 20c <update_test>
    1c68:	00100093          	li	ra,1
    1c6c:	01f09f13          	slli	t5,ra,0x1f
    1c70:	80000eb7          	lui	t4,0x80000
    1c74:	00600193          	li	gp,6
    1c78:	01df0463          	beq	t5,t4,1c80 <slli_test+0xa0>
    1c7c:	dacfe06f          	j	228 <fail>
    1c80:	ffffe097          	auipc	ra,0xffffe
    1c84:	58c080e7          	jalr	1420(ra) # 20c <update_test>
    1c88:	fff00093          	li	ra,-1
    1c8c:	00009f13          	slli	t5,ra,0x0
    1c90:	fff00e93          	li	t4,-1
    1c94:	00700193          	li	gp,7
    1c98:	01df0463          	beq	t5,t4,1ca0 <slli_test+0xc0>
    1c9c:	d8cfe06f          	j	228 <fail>
    1ca0:	ffffe097          	auipc	ra,0xffffe
    1ca4:	56c080e7          	jalr	1388(ra) # 20c <update_test>
    1ca8:	fff00093          	li	ra,-1
    1cac:	00109f13          	slli	t5,ra,0x1
    1cb0:	ffe00e93          	li	t4,-2
    1cb4:	00800193          	li	gp,8
    1cb8:	01df0463          	beq	t5,t4,1cc0 <slli_test+0xe0>
    1cbc:	d6cfe06f          	j	228 <fail>
    1cc0:	ffffe097          	auipc	ra,0xffffe
    1cc4:	54c080e7          	jalr	1356(ra) # 20c <update_test>
    1cc8:	fff00093          	li	ra,-1
    1ccc:	00709f13          	slli	t5,ra,0x7
    1cd0:	f8000e93          	li	t4,-128
    1cd4:	00900193          	li	gp,9
    1cd8:	01df0463          	beq	t5,t4,1ce0 <slli_test+0x100>
    1cdc:	d4cfe06f          	j	228 <fail>
    1ce0:	ffffe097          	auipc	ra,0xffffe
    1ce4:	52c080e7          	jalr	1324(ra) # 20c <update_test>
    1ce8:	fff00093          	li	ra,-1
    1cec:	00e09f13          	slli	t5,ra,0xe
    1cf0:	ffffceb7          	lui	t4,0xffffc
    1cf4:	00a00193          	li	gp,10
    1cf8:	01df0463          	beq	t5,t4,1d00 <slli_test+0x120>
    1cfc:	d2cfe06f          	j	228 <fail>
    1d00:	ffffe097          	auipc	ra,0xffffe
    1d04:	50c080e7          	jalr	1292(ra) # 20c <update_test>
    1d08:	fff00093          	li	ra,-1
    1d0c:	01f09f13          	slli	t5,ra,0x1f
    1d10:	80000eb7          	lui	t4,0x80000
    1d14:	00b00193          	li	gp,11
    1d18:	01df0463          	beq	t5,t4,1d20 <slli_test+0x140>
    1d1c:	d0cfe06f          	j	228 <fail>
    1d20:	ffffe097          	auipc	ra,0xffffe
    1d24:	4ec080e7          	jalr	1260(ra) # 20c <update_test>
    1d28:	212120b7          	lui	ra,0x21212
    1d2c:	12108093          	addi	ra,ra,289 # 21212121 <SSEG+0x10152121>
    1d30:	00009f13          	slli	t5,ra,0x0
    1d34:	21212eb7          	lui	t4,0x21212
    1d38:	121e8e93          	addi	t4,t4,289 # 21212121 <SSEG+0x10152121>
    1d3c:	00c00193          	li	gp,12
    1d40:	01df0463          	beq	t5,t4,1d48 <slli_test+0x168>
    1d44:	ce4fe06f          	j	228 <fail>
    1d48:	ffffe097          	auipc	ra,0xffffe
    1d4c:	4c4080e7          	jalr	1220(ra) # 20c <update_test>
    1d50:	212120b7          	lui	ra,0x21212
    1d54:	12108093          	addi	ra,ra,289 # 21212121 <SSEG+0x10152121>
    1d58:	00109f13          	slli	t5,ra,0x1
    1d5c:	42424eb7          	lui	t4,0x42424
    1d60:	242e8e93          	addi	t4,t4,578 # 42424242 <SSEG+0x31364242>
    1d64:	00d00193          	li	gp,13
    1d68:	01df0463          	beq	t5,t4,1d70 <slli_test+0x190>
    1d6c:	cbcfe06f          	j	228 <fail>
    1d70:	ffffe097          	auipc	ra,0xffffe
    1d74:	49c080e7          	jalr	1180(ra) # 20c <update_test>
    1d78:	212120b7          	lui	ra,0x21212
    1d7c:	12108093          	addi	ra,ra,289 # 21212121 <SSEG+0x10152121>
    1d80:	00709f13          	slli	t5,ra,0x7
    1d84:	90909eb7          	lui	t4,0x90909
    1d88:	080e8e93          	addi	t4,t4,128 # 90909080 <SSEG+0x7f849080>
    1d8c:	00e00193          	li	gp,14
    1d90:	01df0463          	beq	t5,t4,1d98 <slli_test+0x1b8>
    1d94:	c94fe06f          	j	228 <fail>
    1d98:	ffffe097          	auipc	ra,0xffffe
    1d9c:	474080e7          	jalr	1140(ra) # 20c <update_test>
    1da0:	212120b7          	lui	ra,0x21212
    1da4:	12108093          	addi	ra,ra,289 # 21212121 <SSEG+0x10152121>
    1da8:	00e09f13          	slli	t5,ra,0xe
    1dac:	48484eb7          	lui	t4,0x48484
    1db0:	00f00193          	li	gp,15
    1db4:	01df0463          	beq	t5,t4,1dbc <slli_test+0x1dc>
    1db8:	c70fe06f          	j	228 <fail>
    1dbc:	ffffe097          	auipc	ra,0xffffe
    1dc0:	450080e7          	jalr	1104(ra) # 20c <update_test>
    1dc4:	212120b7          	lui	ra,0x21212
    1dc8:	12108093          	addi	ra,ra,289 # 21212121 <SSEG+0x10152121>
    1dcc:	01f09f13          	slli	t5,ra,0x1f
    1dd0:	80000eb7          	lui	t4,0x80000
    1dd4:	01000193          	li	gp,16
    1dd8:	01df0463          	beq	t5,t4,1de0 <slli_test+0x200>
    1ddc:	c4cfe06f          	j	228 <fail>
    1de0:	ffffe097          	auipc	ra,0xffffe
    1de4:	42c080e7          	jalr	1068(ra) # 20c <update_test>
    1de8:	000f8067          	jr	t6

00001dec <srli_test>:
    1dec:	00000513          	li	a0,0
    1df0:	00a62023          	sw	a0,0(a2)
    1df4:	800000b7          	lui	ra,0x80000
    1df8:	0000df13          	srli	t5,ra,0x0
    1dfc:	80000eb7          	lui	t4,0x80000
    1e00:	00200193          	li	gp,2
    1e04:	01df0463          	beq	t5,t4,1e0c <srli_test+0x20>
    1e08:	c20fe06f          	j	228 <fail>
    1e0c:	ffffe097          	auipc	ra,0xffffe
    1e10:	400080e7          	jalr	1024(ra) # 20c <update_test>
    1e14:	800000b7          	lui	ra,0x80000
    1e18:	0010df13          	srli	t5,ra,0x1
    1e1c:	40000eb7          	lui	t4,0x40000
    1e20:	00300193          	li	gp,3
    1e24:	01df0463          	beq	t5,t4,1e2c <srli_test+0x40>
    1e28:	c00fe06f          	j	228 <fail>
    1e2c:	ffffe097          	auipc	ra,0xffffe
    1e30:	3e0080e7          	jalr	992(ra) # 20c <update_test>
    1e34:	800000b7          	lui	ra,0x80000
    1e38:	0070df13          	srli	t5,ra,0x7
    1e3c:	01000eb7          	lui	t4,0x1000
    1e40:	00400193          	li	gp,4
    1e44:	01df0463          	beq	t5,t4,1e4c <srli_test+0x60>
    1e48:	be0fe06f          	j	228 <fail>
    1e4c:	ffffe097          	auipc	ra,0xffffe
    1e50:	3c0080e7          	jalr	960(ra) # 20c <update_test>
    1e54:	800000b7          	lui	ra,0x80000
    1e58:	00e0df13          	srli	t5,ra,0xe
    1e5c:	00020eb7          	lui	t4,0x20
    1e60:	00500193          	li	gp,5
    1e64:	01df0463          	beq	t5,t4,1e6c <srli_test+0x80>
    1e68:	bc0fe06f          	j	228 <fail>
    1e6c:	ffffe097          	auipc	ra,0xffffe
    1e70:	3a0080e7          	jalr	928(ra) # 20c <update_test>
    1e74:	800000b7          	lui	ra,0x80000
    1e78:	00108093          	addi	ra,ra,1 # 80000001 <SSEG+0x6ef40001>
    1e7c:	01f0df13          	srli	t5,ra,0x1f
    1e80:	00100e93          	li	t4,1
    1e84:	00600193          	li	gp,6
    1e88:	01df0463          	beq	t5,t4,1e90 <srli_test+0xa4>
    1e8c:	b9cfe06f          	j	228 <fail>
    1e90:	ffffe097          	auipc	ra,0xffffe
    1e94:	37c080e7          	jalr	892(ra) # 20c <update_test>
    1e98:	fff00093          	li	ra,-1
    1e9c:	0000df13          	srli	t5,ra,0x0
    1ea0:	fff00e93          	li	t4,-1
    1ea4:	00700193          	li	gp,7
    1ea8:	01df0463          	beq	t5,t4,1eb0 <srli_test+0xc4>
    1eac:	b7cfe06f          	j	228 <fail>
    1eb0:	ffffe097          	auipc	ra,0xffffe
    1eb4:	35c080e7          	jalr	860(ra) # 20c <update_test>
    1eb8:	fff00093          	li	ra,-1
    1ebc:	0010df13          	srli	t5,ra,0x1
    1ec0:	80000eb7          	lui	t4,0x80000
    1ec4:	fffe8e93          	addi	t4,t4,-1 # 7fffffff <SSEG+0x6ef3ffff>
    1ec8:	00800193          	li	gp,8
    1ecc:	01df0463          	beq	t5,t4,1ed4 <srli_test+0xe8>
    1ed0:	b58fe06f          	j	228 <fail>
    1ed4:	ffffe097          	auipc	ra,0xffffe
    1ed8:	338080e7          	jalr	824(ra) # 20c <update_test>
    1edc:	fff00093          	li	ra,-1
    1ee0:	0070df13          	srli	t5,ra,0x7
    1ee4:	02000eb7          	lui	t4,0x2000
    1ee8:	fffe8e93          	addi	t4,t4,-1 # 1ffffff <__sp+0x1feffff>
    1eec:	00900193          	li	gp,9
    1ef0:	01df0463          	beq	t5,t4,1ef8 <srli_test+0x10c>
    1ef4:	b34fe06f          	j	228 <fail>
    1ef8:	ffffe097          	auipc	ra,0xffffe
    1efc:	314080e7          	jalr	788(ra) # 20c <update_test>
    1f00:	fff00093          	li	ra,-1
    1f04:	00e0df13          	srli	t5,ra,0xe
    1f08:	00040eb7          	lui	t4,0x40
    1f0c:	fffe8e93          	addi	t4,t4,-1 # 3ffff <__sp+0x2ffff>
    1f10:	00a00193          	li	gp,10
    1f14:	01df0463          	beq	t5,t4,1f1c <srli_test+0x130>
    1f18:	b10fe06f          	j	228 <fail>
    1f1c:	ffffe097          	auipc	ra,0xffffe
    1f20:	2f0080e7          	jalr	752(ra) # 20c <update_test>
    1f24:	fff00093          	li	ra,-1
    1f28:	01f0df13          	srli	t5,ra,0x1f
    1f2c:	00100e93          	li	t4,1
    1f30:	00b00193          	li	gp,11
    1f34:	01df0463          	beq	t5,t4,1f3c <srli_test+0x150>
    1f38:	af0fe06f          	j	228 <fail>
    1f3c:	ffffe097          	auipc	ra,0xffffe
    1f40:	2d0080e7          	jalr	720(ra) # 20c <update_test>
    1f44:	212120b7          	lui	ra,0x21212
    1f48:	12108093          	addi	ra,ra,289 # 21212121 <SSEG+0x10152121>
    1f4c:	0000df13          	srli	t5,ra,0x0
    1f50:	21212eb7          	lui	t4,0x21212
    1f54:	121e8e93          	addi	t4,t4,289 # 21212121 <SSEG+0x10152121>
    1f58:	00c00193          	li	gp,12
    1f5c:	01df0463          	beq	t5,t4,1f64 <srli_test+0x178>
    1f60:	ac8fe06f          	j	228 <fail>
    1f64:	ffffe097          	auipc	ra,0xffffe
    1f68:	2a8080e7          	jalr	680(ra) # 20c <update_test>
    1f6c:	212120b7          	lui	ra,0x21212
    1f70:	12108093          	addi	ra,ra,289 # 21212121 <SSEG+0x10152121>
    1f74:	0010df13          	srli	t5,ra,0x1
    1f78:	10909eb7          	lui	t4,0x10909
    1f7c:	090e8e93          	addi	t4,t4,144 # 10909090 <__sp+0x108f9090>
    1f80:	00d00193          	li	gp,13
    1f84:	01df0463          	beq	t5,t4,1f8c <srli_test+0x1a0>
    1f88:	aa0fe06f          	j	228 <fail>
    1f8c:	ffffe097          	auipc	ra,0xffffe
    1f90:	280080e7          	jalr	640(ra) # 20c <update_test>
    1f94:	212120b7          	lui	ra,0x21212
    1f98:	12108093          	addi	ra,ra,289 # 21212121 <SSEG+0x10152121>
    1f9c:	0070df13          	srli	t5,ra,0x7
    1fa0:	00424eb7          	lui	t4,0x424
    1fa4:	242e8e93          	addi	t4,t4,578 # 424242 <__sp+0x414242>
    1fa8:	00e00193          	li	gp,14
    1fac:	01df0463          	beq	t5,t4,1fb4 <srli_test+0x1c8>
    1fb0:	a78fe06f          	j	228 <fail>
    1fb4:	ffffe097          	auipc	ra,0xffffe
    1fb8:	258080e7          	jalr	600(ra) # 20c <update_test>
    1fbc:	212120b7          	lui	ra,0x21212
    1fc0:	12108093          	addi	ra,ra,289 # 21212121 <SSEG+0x10152121>
    1fc4:	00e0df13          	srli	t5,ra,0xe
    1fc8:	00008eb7          	lui	t4,0x8
    1fcc:	484e8e93          	addi	t4,t4,1156 # 8484 <__global_pointer$+0x3d60>
    1fd0:	00f00193          	li	gp,15
    1fd4:	01df0463          	beq	t5,t4,1fdc <srli_test+0x1f0>
    1fd8:	a50fe06f          	j	228 <fail>
    1fdc:	ffffe097          	auipc	ra,0xffffe
    1fe0:	230080e7          	jalr	560(ra) # 20c <update_test>
    1fe4:	212120b7          	lui	ra,0x21212
    1fe8:	12108093          	addi	ra,ra,289 # 21212121 <SSEG+0x10152121>
    1fec:	01f0df13          	srli	t5,ra,0x1f
    1ff0:	00000e93          	li	t4,0
    1ff4:	01000193          	li	gp,16
    1ff8:	01df0463          	beq	t5,t4,2000 <srli_test+0x214>
    1ffc:	a2cfe06f          	j	228 <fail>
    2000:	ffffe097          	auipc	ra,0xffffe
    2004:	20c080e7          	jalr	524(ra) # 20c <update_test>
    2008:	800000b7          	lui	ra,0x80000
    200c:	0070d093          	srli	ra,ra,0x7
    2010:	01000eb7          	lui	t4,0x1000
    2014:	01100193          	li	gp,17
    2018:	01d08463          	beq	ra,t4,2020 <srli_test+0x234>
    201c:	a0cfe06f          	j	228 <fail>
    2020:	ffffe097          	auipc	ra,0xffffe
    2024:	1ec080e7          	jalr	492(ra) # 20c <update_test>
    2028:	000f8067          	jr	t6

0000202c <srai_test>:
    202c:	00000513          	li	a0,0
    2030:	00a62023          	sw	a0,0(a2)
    2034:	00000093          	li	ra,0
    2038:	4000df13          	srai	t5,ra,0x0
    203c:	00000e93          	li	t4,0
    2040:	00200193          	li	gp,2
    2044:	01df0463          	beq	t5,t4,204c <srai_test+0x20>
    2048:	9e0fe06f          	j	228 <fail>
    204c:	ffffe097          	auipc	ra,0xffffe
    2050:	1c0080e7          	jalr	448(ra) # 20c <update_test>
    2054:	800000b7          	lui	ra,0x80000
    2058:	4010df13          	srai	t5,ra,0x1
    205c:	c0000eb7          	lui	t4,0xc0000
    2060:	00300193          	li	gp,3
    2064:	01df0463          	beq	t5,t4,206c <srai_test+0x40>
    2068:	9c0fe06f          	j	228 <fail>
    206c:	ffffe097          	auipc	ra,0xffffe
    2070:	1a0080e7          	jalr	416(ra) # 20c <update_test>
    2074:	800000b7          	lui	ra,0x80000
    2078:	4070df13          	srai	t5,ra,0x7
    207c:	ff000eb7          	lui	t4,0xff000
    2080:	00400193          	li	gp,4
    2084:	01df0463          	beq	t5,t4,208c <srai_test+0x60>
    2088:	9a0fe06f          	j	228 <fail>
    208c:	ffffe097          	auipc	ra,0xffffe
    2090:	180080e7          	jalr	384(ra) # 20c <update_test>
    2094:	800000b7          	lui	ra,0x80000
    2098:	40e0df13          	srai	t5,ra,0xe
    209c:	fffe0eb7          	lui	t4,0xfffe0
    20a0:	00500193          	li	gp,5
    20a4:	01df0463          	beq	t5,t4,20ac <srai_test+0x80>
    20a8:	980fe06f          	j	228 <fail>
    20ac:	ffffe097          	auipc	ra,0xffffe
    20b0:	160080e7          	jalr	352(ra) # 20c <update_test>
    20b4:	800000b7          	lui	ra,0x80000
    20b8:	00108093          	addi	ra,ra,1 # 80000001 <SSEG+0x6ef40001>
    20bc:	41f0df13          	srai	t5,ra,0x1f
    20c0:	fff00e93          	li	t4,-1
    20c4:	00600193          	li	gp,6
    20c8:	01df0463          	beq	t5,t4,20d0 <srai_test+0xa4>
    20cc:	95cfe06f          	j	228 <fail>
    20d0:	ffffe097          	auipc	ra,0xffffe
    20d4:	13c080e7          	jalr	316(ra) # 20c <update_test>
    20d8:	800000b7          	lui	ra,0x80000
    20dc:	fff08093          	addi	ra,ra,-1 # 7fffffff <SSEG+0x6ef3ffff>
    20e0:	4000df13          	srai	t5,ra,0x0
    20e4:	80000eb7          	lui	t4,0x80000
    20e8:	fffe8e93          	addi	t4,t4,-1 # 7fffffff <SSEG+0x6ef3ffff>
    20ec:	00700193          	li	gp,7
    20f0:	01df0463          	beq	t5,t4,20f8 <srai_test+0xcc>
    20f4:	934fe06f          	j	228 <fail>
    20f8:	ffffe097          	auipc	ra,0xffffe
    20fc:	114080e7          	jalr	276(ra) # 20c <update_test>
    2100:	800000b7          	lui	ra,0x80000
    2104:	fff08093          	addi	ra,ra,-1 # 7fffffff <SSEG+0x6ef3ffff>
    2108:	4010df13          	srai	t5,ra,0x1
    210c:	40000eb7          	lui	t4,0x40000
    2110:	fffe8e93          	addi	t4,t4,-1 # 3fffffff <SSEG+0x2ef3ffff>
    2114:	00800193          	li	gp,8
    2118:	01df0463          	beq	t5,t4,2120 <srai_test+0xf4>
    211c:	90cfe06f          	j	228 <fail>
    2120:	ffffe097          	auipc	ra,0xffffe
    2124:	0ec080e7          	jalr	236(ra) # 20c <update_test>
    2128:	800000b7          	lui	ra,0x80000
    212c:	fff08093          	addi	ra,ra,-1 # 7fffffff <SSEG+0x6ef3ffff>
    2130:	4070df13          	srai	t5,ra,0x7
    2134:	01000eb7          	lui	t4,0x1000
    2138:	fffe8e93          	addi	t4,t4,-1 # ffffff <__sp+0xfeffff>
    213c:	00900193          	li	gp,9
    2140:	01df0463          	beq	t5,t4,2148 <srai_test+0x11c>
    2144:	8e4fe06f          	j	228 <fail>
    2148:	ffffe097          	auipc	ra,0xffffe
    214c:	0c4080e7          	jalr	196(ra) # 20c <update_test>
    2150:	800000b7          	lui	ra,0x80000
    2154:	fff08093          	addi	ra,ra,-1 # 7fffffff <SSEG+0x6ef3ffff>
    2158:	40e0df13          	srai	t5,ra,0xe
    215c:	00020eb7          	lui	t4,0x20
    2160:	fffe8e93          	addi	t4,t4,-1 # 1ffff <__sp+0xffff>
    2164:	00a00193          	li	gp,10
    2168:	01df0463          	beq	t5,t4,2170 <srai_test+0x144>
    216c:	8bcfe06f          	j	228 <fail>
    2170:	ffffe097          	auipc	ra,0xffffe
    2174:	09c080e7          	jalr	156(ra) # 20c <update_test>
    2178:	800000b7          	lui	ra,0x80000
    217c:	fff08093          	addi	ra,ra,-1 # 7fffffff <SSEG+0x6ef3ffff>
    2180:	41f0df13          	srai	t5,ra,0x1f
    2184:	00000e93          	li	t4,0
    2188:	00b00193          	li	gp,11
    218c:	01df0463          	beq	t5,t4,2194 <srai_test+0x168>
    2190:	898fe06f          	j	228 <fail>
    2194:	ffffe097          	auipc	ra,0xffffe
    2198:	078080e7          	jalr	120(ra) # 20c <update_test>
    219c:	818180b7          	lui	ra,0x81818
    21a0:	18108093          	addi	ra,ra,385 # 81818181 <SSEG+0x70758181>
    21a4:	4000df13          	srai	t5,ra,0x0
    21a8:	81818eb7          	lui	t4,0x81818
    21ac:	181e8e93          	addi	t4,t4,385 # 81818181 <SSEG+0x70758181>
    21b0:	00c00193          	li	gp,12
    21b4:	01df0463          	beq	t5,t4,21bc <srai_test+0x190>
    21b8:	870fe06f          	j	228 <fail>
    21bc:	ffffe097          	auipc	ra,0xffffe
    21c0:	050080e7          	jalr	80(ra) # 20c <update_test>
    21c4:	818180b7          	lui	ra,0x81818
    21c8:	18108093          	addi	ra,ra,385 # 81818181 <SSEG+0x70758181>
    21cc:	4010df13          	srai	t5,ra,0x1
    21d0:	c0c0ceb7          	lui	t4,0xc0c0c
    21d4:	0c0e8e93          	addi	t4,t4,192 # c0c0c0c0 <SSEG+0xafb4c0c0>
    21d8:	00d00193          	li	gp,13
    21dc:	01df0463          	beq	t5,t4,21e4 <srai_test+0x1b8>
    21e0:	848fe06f          	j	228 <fail>
    21e4:	ffffe097          	auipc	ra,0xffffe
    21e8:	028080e7          	jalr	40(ra) # 20c <update_test>
    21ec:	818180b7          	lui	ra,0x81818
    21f0:	18108093          	addi	ra,ra,385 # 81818181 <SSEG+0x70758181>
    21f4:	4070df13          	srai	t5,ra,0x7
    21f8:	ff030eb7          	lui	t4,0xff030
    21fc:	303e8e93          	addi	t4,t4,771 # ff030303 <SSEG+0xedf70303>
    2200:	00e00193          	li	gp,14
    2204:	01df0463          	beq	t5,t4,220c <srai_test+0x1e0>
    2208:	820fe06f          	j	228 <fail>
    220c:	ffffe097          	auipc	ra,0xffffe
    2210:	000080e7          	jalr	ra # 20c <update_test>
    2214:	818180b7          	lui	ra,0x81818
    2218:	18108093          	addi	ra,ra,385 # 81818181 <SSEG+0x70758181>
    221c:	40e0df13          	srai	t5,ra,0xe
    2220:	fffe0eb7          	lui	t4,0xfffe0
    2224:	606e8e93          	addi	t4,t4,1542 # fffe0606 <SSEG+0xeef20606>
    2228:	00f00193          	li	gp,15
    222c:	01df0463          	beq	t5,t4,2234 <srai_test+0x208>
    2230:	ff9fd06f          	j	228 <fail>
    2234:	ffffe097          	auipc	ra,0xffffe
    2238:	fd8080e7          	jalr	-40(ra) # 20c <update_test>
    223c:	818180b7          	lui	ra,0x81818
    2240:	18108093          	addi	ra,ra,385 # 81818181 <SSEG+0x70758181>
    2244:	41f0df13          	srai	t5,ra,0x1f
    2248:	fff00e93          	li	t4,-1
    224c:	01000193          	li	gp,16
    2250:	01df0463          	beq	t5,t4,2258 <srai_test+0x22c>
    2254:	fd5fd06f          	j	228 <fail>
    2258:	ffffe097          	auipc	ra,0xffffe
    225c:	fb4080e7          	jalr	-76(ra) # 20c <update_test>
    2260:	800000b7          	lui	ra,0x80000
    2264:	4070d093          	srai	ra,ra,0x7
    2268:	ff000eb7          	lui	t4,0xff000
    226c:	01100193          	li	gp,17
    2270:	01d08463          	beq	ra,t4,2278 <srai_test+0x24c>
    2274:	fb5fd06f          	j	228 <fail>
    2278:	ffffe097          	auipc	ra,0xffffe
    227c:	f94080e7          	jalr	-108(ra) # 20c <update_test>
    2280:	000f8067          	jr	t6

00002284 <sltiu_test>:
    2284:	00000513          	li	a0,0
    2288:	00a62023          	sw	a0,0(a2)
    228c:	00000093          	li	ra,0
    2290:	0000bf13          	sltiu	t5,ra,0
    2294:	00000e93          	li	t4,0
    2298:	00200193          	li	gp,2
    229c:	01df0463          	beq	t5,t4,22a4 <sltiu_test+0x20>
    22a0:	f89fd06f          	j	228 <fail>
    22a4:	ffffe097          	auipc	ra,0xffffe
    22a8:	f68080e7          	jalr	-152(ra) # 20c <update_test>
    22ac:	00100093          	li	ra,1
    22b0:	0010bf13          	seqz	t5,ra
    22b4:	00000e93          	li	t4,0
    22b8:	00300193          	li	gp,3
    22bc:	01df0463          	beq	t5,t4,22c4 <sltiu_test+0x40>
    22c0:	f69fd06f          	j	228 <fail>
    22c4:	ffffe097          	auipc	ra,0xffffe
    22c8:	f48080e7          	jalr	-184(ra) # 20c <update_test>
    22cc:	00300093          	li	ra,3
    22d0:	0070bf13          	sltiu	t5,ra,7
    22d4:	00100e93          	li	t4,1
    22d8:	00400193          	li	gp,4
    22dc:	01df0463          	beq	t5,t4,22e4 <sltiu_test+0x60>
    22e0:	f49fd06f          	j	228 <fail>
    22e4:	ffffe097          	auipc	ra,0xffffe
    22e8:	f28080e7          	jalr	-216(ra) # 20c <update_test>
    22ec:	00700093          	li	ra,7
    22f0:	0030bf13          	sltiu	t5,ra,3
    22f4:	00000e93          	li	t4,0
    22f8:	00500193          	li	gp,5
    22fc:	01df0463          	beq	t5,t4,2304 <sltiu_test+0x80>
    2300:	f29fd06f          	j	228 <fail>
    2304:	ffffe097          	auipc	ra,0xffffe
    2308:	f08080e7          	jalr	-248(ra) # 20c <update_test>
    230c:	00000093          	li	ra,0
    2310:	8000bf13          	sltiu	t5,ra,-2048
    2314:	00100e93          	li	t4,1
    2318:	00600193          	li	gp,6
    231c:	01df0463          	beq	t5,t4,2324 <sltiu_test+0xa0>
    2320:	f09fd06f          	j	228 <fail>
    2324:	ffffe097          	auipc	ra,0xffffe
    2328:	ee8080e7          	jalr	-280(ra) # 20c <update_test>
    232c:	800000b7          	lui	ra,0x80000
    2330:	0000bf13          	sltiu	t5,ra,0
    2334:	00000e93          	li	t4,0
    2338:	00700193          	li	gp,7
    233c:	01df0463          	beq	t5,t4,2344 <sltiu_test+0xc0>
    2340:	ee9fd06f          	j	228 <fail>
    2344:	ffffe097          	auipc	ra,0xffffe
    2348:	ec8080e7          	jalr	-312(ra) # 20c <update_test>
    234c:	800000b7          	lui	ra,0x80000
    2350:	8000bf13          	sltiu	t5,ra,-2048
    2354:	00100e93          	li	t4,1
    2358:	00800193          	li	gp,8
    235c:	01df0463          	beq	t5,t4,2364 <sltiu_test+0xe0>
    2360:	ec9fd06f          	j	228 <fail>
    2364:	ffffe097          	auipc	ra,0xffffe
    2368:	ea8080e7          	jalr	-344(ra) # 20c <update_test>
    236c:	00000093          	li	ra,0
    2370:	7ff0bf13          	sltiu	t5,ra,2047
    2374:	00100e93          	li	t4,1
    2378:	00900193          	li	gp,9
    237c:	01df0463          	beq	t5,t4,2384 <sltiu_test+0x100>
    2380:	ea9fd06f          	j	228 <fail>
    2384:	ffffe097          	auipc	ra,0xffffe
    2388:	e88080e7          	jalr	-376(ra) # 20c <update_test>
    238c:	800000b7          	lui	ra,0x80000
    2390:	fff08093          	addi	ra,ra,-1 # 7fffffff <SSEG+0x6ef3ffff>
    2394:	0000bf13          	sltiu	t5,ra,0
    2398:	00000e93          	li	t4,0
    239c:	00a00193          	li	gp,10
    23a0:	01df0463          	beq	t5,t4,23a8 <sltiu_test+0x124>
    23a4:	e85fd06f          	j	228 <fail>
    23a8:	ffffe097          	auipc	ra,0xffffe
    23ac:	e64080e7          	jalr	-412(ra) # 20c <update_test>
    23b0:	800000b7          	lui	ra,0x80000
    23b4:	fff08093          	addi	ra,ra,-1 # 7fffffff <SSEG+0x6ef3ffff>
    23b8:	7ff0bf13          	sltiu	t5,ra,2047
    23bc:	00000e93          	li	t4,0
    23c0:	00b00193          	li	gp,11
    23c4:	01df0463          	beq	t5,t4,23cc <sltiu_test+0x148>
    23c8:	e61fd06f          	j	228 <fail>
    23cc:	ffffe097          	auipc	ra,0xffffe
    23d0:	e40080e7          	jalr	-448(ra) # 20c <update_test>
    23d4:	800000b7          	lui	ra,0x80000
    23d8:	7ff0bf13          	sltiu	t5,ra,2047
    23dc:	00000e93          	li	t4,0
    23e0:	00c00193          	li	gp,12
    23e4:	01df0463          	beq	t5,t4,23ec <sltiu_test+0x168>
    23e8:	e41fd06f          	j	228 <fail>
    23ec:	ffffe097          	auipc	ra,0xffffe
    23f0:	e20080e7          	jalr	-480(ra) # 20c <update_test>
    23f4:	800000b7          	lui	ra,0x80000
    23f8:	fff08093          	addi	ra,ra,-1 # 7fffffff <SSEG+0x6ef3ffff>
    23fc:	8000bf13          	sltiu	t5,ra,-2048
    2400:	00100e93          	li	t4,1
    2404:	00d00193          	li	gp,13
    2408:	01df0463          	beq	t5,t4,2410 <sltiu_test+0x18c>
    240c:	e1dfd06f          	j	228 <fail>
    2410:	ffffe097          	auipc	ra,0xffffe
    2414:	dfc080e7          	jalr	-516(ra) # 20c <update_test>
    2418:	00000093          	li	ra,0
    241c:	fff0bf13          	sltiu	t5,ra,-1
    2420:	00100e93          	li	t4,1
    2424:	00e00193          	li	gp,14
    2428:	01df0463          	beq	t5,t4,2430 <sltiu_test+0x1ac>
    242c:	dfdfd06f          	j	228 <fail>
    2430:	ffffe097          	auipc	ra,0xffffe
    2434:	ddc080e7          	jalr	-548(ra) # 20c <update_test>
    2438:	fff00093          	li	ra,-1
    243c:	0010bf13          	seqz	t5,ra
    2440:	00000e93          	li	t4,0
    2444:	00f00193          	li	gp,15
    2448:	01df0463          	beq	t5,t4,2450 <sltiu_test+0x1cc>
    244c:	dddfd06f          	j	228 <fail>
    2450:	ffffe097          	auipc	ra,0xffffe
    2454:	dbc080e7          	jalr	-580(ra) # 20c <update_test>
    2458:	fff00093          	li	ra,-1
    245c:	fff0bf13          	sltiu	t5,ra,-1
    2460:	00000e93          	li	t4,0
    2464:	01000193          	li	gp,16
    2468:	01df0463          	beq	t5,t4,2470 <sltiu_test+0x1ec>
    246c:	dbdfd06f          	j	228 <fail>
    2470:	ffffe097          	auipc	ra,0xffffe
    2474:	d9c080e7          	jalr	-612(ra) # 20c <update_test>
    2478:	00b00093          	li	ra,11
    247c:	00d0b093          	sltiu	ra,ra,13
    2480:	00100e93          	li	t4,1
    2484:	01100193          	li	gp,17
    2488:	01d08463          	beq	ra,t4,2490 <sltiu_test+0x20c>
    248c:	d9dfd06f          	j	228 <fail>
    2490:	ffffe097          	auipc	ra,0xffffe
    2494:	d7c080e7          	jalr	-644(ra) # 20c <update_test>
    2498:	000f8067          	jr	t6

0000249c <slti_test>:
    249c:	00000513          	li	a0,0
    24a0:	00a62023          	sw	a0,0(a2)
    24a4:	00000093          	li	ra,0
    24a8:	0000af13          	slti	t5,ra,0
    24ac:	00000e93          	li	t4,0
    24b0:	00200193          	li	gp,2
    24b4:	01df0463          	beq	t5,t4,24bc <slti_test+0x20>
    24b8:	d71fd06f          	j	228 <fail>
    24bc:	ffffe097          	auipc	ra,0xffffe
    24c0:	d50080e7          	jalr	-688(ra) # 20c <update_test>
    24c4:	00100093          	li	ra,1
    24c8:	0010af13          	slti	t5,ra,1
    24cc:	00000e93          	li	t4,0
    24d0:	00300193          	li	gp,3
    24d4:	01df0463          	beq	t5,t4,24dc <slti_test+0x40>
    24d8:	d51fd06f          	j	228 <fail>
    24dc:	ffffe097          	auipc	ra,0xffffe
    24e0:	d30080e7          	jalr	-720(ra) # 20c <update_test>
    24e4:	00300093          	li	ra,3
    24e8:	0070af13          	slti	t5,ra,7
    24ec:	00100e93          	li	t4,1
    24f0:	00400193          	li	gp,4
    24f4:	01df0463          	beq	t5,t4,24fc <slti_test+0x60>
    24f8:	d31fd06f          	j	228 <fail>
    24fc:	ffffe097          	auipc	ra,0xffffe
    2500:	d10080e7          	jalr	-752(ra) # 20c <update_test>
    2504:	00700093          	li	ra,7
    2508:	0030af13          	slti	t5,ra,3
    250c:	00000e93          	li	t4,0
    2510:	00500193          	li	gp,5
    2514:	01df0463          	beq	t5,t4,251c <slti_test+0x80>
    2518:	d11fd06f          	j	228 <fail>
    251c:	ffffe097          	auipc	ra,0xffffe
    2520:	cf0080e7          	jalr	-784(ra) # 20c <update_test>
    2524:	00000093          	li	ra,0
    2528:	8000af13          	slti	t5,ra,-2048
    252c:	00000e93          	li	t4,0
    2530:	00600193          	li	gp,6
    2534:	01df0463          	beq	t5,t4,253c <slti_test+0xa0>
    2538:	cf1fd06f          	j	228 <fail>
    253c:	ffffe097          	auipc	ra,0xffffe
    2540:	cd0080e7          	jalr	-816(ra) # 20c <update_test>
    2544:	800000b7          	lui	ra,0x80000
    2548:	0000af13          	slti	t5,ra,0
    254c:	00100e93          	li	t4,1
    2550:	00700193          	li	gp,7
    2554:	01df0463          	beq	t5,t4,255c <slti_test+0xc0>
    2558:	cd1fd06f          	j	228 <fail>
    255c:	ffffe097          	auipc	ra,0xffffe
    2560:	cb0080e7          	jalr	-848(ra) # 20c <update_test>
    2564:	800000b7          	lui	ra,0x80000
    2568:	8000af13          	slti	t5,ra,-2048
    256c:	00100e93          	li	t4,1
    2570:	00800193          	li	gp,8
    2574:	01df0463          	beq	t5,t4,257c <slti_test+0xe0>
    2578:	cb1fd06f          	j	228 <fail>
    257c:	ffffe097          	auipc	ra,0xffffe
    2580:	c90080e7          	jalr	-880(ra) # 20c <update_test>
    2584:	00000093          	li	ra,0
    2588:	7ff0af13          	slti	t5,ra,2047
    258c:	00100e93          	li	t4,1
    2590:	00900193          	li	gp,9
    2594:	01df0463          	beq	t5,t4,259c <slti_test+0x100>
    2598:	c91fd06f          	j	228 <fail>
    259c:	ffffe097          	auipc	ra,0xffffe
    25a0:	c70080e7          	jalr	-912(ra) # 20c <update_test>
    25a4:	800000b7          	lui	ra,0x80000
    25a8:	fff08093          	addi	ra,ra,-1 # 7fffffff <SSEG+0x6ef3ffff>
    25ac:	0000af13          	slti	t5,ra,0
    25b0:	00000e93          	li	t4,0
    25b4:	00a00193          	li	gp,10
    25b8:	01df0463          	beq	t5,t4,25c0 <slti_test+0x124>
    25bc:	c6dfd06f          	j	228 <fail>
    25c0:	ffffe097          	auipc	ra,0xffffe
    25c4:	c4c080e7          	jalr	-948(ra) # 20c <update_test>
    25c8:	800000b7          	lui	ra,0x80000
    25cc:	fff08093          	addi	ra,ra,-1 # 7fffffff <SSEG+0x6ef3ffff>
    25d0:	7ff0af13          	slti	t5,ra,2047
    25d4:	00000e93          	li	t4,0
    25d8:	00b00193          	li	gp,11
    25dc:	01df0463          	beq	t5,t4,25e4 <slti_test+0x148>
    25e0:	c49fd06f          	j	228 <fail>
    25e4:	ffffe097          	auipc	ra,0xffffe
    25e8:	c28080e7          	jalr	-984(ra) # 20c <update_test>
    25ec:	800000b7          	lui	ra,0x80000
    25f0:	7ff0af13          	slti	t5,ra,2047
    25f4:	00100e93          	li	t4,1
    25f8:	00c00193          	li	gp,12
    25fc:	01df0463          	beq	t5,t4,2604 <slti_test+0x168>
    2600:	c29fd06f          	j	228 <fail>
    2604:	ffffe097          	auipc	ra,0xffffe
    2608:	c08080e7          	jalr	-1016(ra) # 20c <update_test>
    260c:	800000b7          	lui	ra,0x80000
    2610:	fff08093          	addi	ra,ra,-1 # 7fffffff <SSEG+0x6ef3ffff>
    2614:	8000af13          	slti	t5,ra,-2048
    2618:	00000e93          	li	t4,0
    261c:	00d00193          	li	gp,13
    2620:	01df0463          	beq	t5,t4,2628 <slti_test+0x18c>
    2624:	c05fd06f          	j	228 <fail>
    2628:	ffffe097          	auipc	ra,0xffffe
    262c:	be4080e7          	jalr	-1052(ra) # 20c <update_test>
    2630:	00000093          	li	ra,0
    2634:	fff0af13          	slti	t5,ra,-1
    2638:	00000e93          	li	t4,0
    263c:	00e00193          	li	gp,14
    2640:	01df0463          	beq	t5,t4,2648 <slti_test+0x1ac>
    2644:	be5fd06f          	j	228 <fail>
    2648:	ffffe097          	auipc	ra,0xffffe
    264c:	bc4080e7          	jalr	-1084(ra) # 20c <update_test>
    2650:	fff00093          	li	ra,-1
    2654:	0010af13          	slti	t5,ra,1
    2658:	00100e93          	li	t4,1
    265c:	00f00193          	li	gp,15
    2660:	01df0463          	beq	t5,t4,2668 <slti_test+0x1cc>
    2664:	bc5fd06f          	j	228 <fail>
    2668:	ffffe097          	auipc	ra,0xffffe
    266c:	ba4080e7          	jalr	-1116(ra) # 20c <update_test>
    2670:	fff00093          	li	ra,-1
    2674:	fff0af13          	slti	t5,ra,-1
    2678:	00000e93          	li	t4,0
    267c:	01000193          	li	gp,16
    2680:	01df0463          	beq	t5,t4,2688 <slti_test+0x1ec>
    2684:	ba5fd06f          	j	228 <fail>
    2688:	ffffe097          	auipc	ra,0xffffe
    268c:	b84080e7          	jalr	-1148(ra) # 20c <update_test>
    2690:	00b00093          	li	ra,11
    2694:	00d0a093          	slti	ra,ra,13
    2698:	00100e93          	li	t4,1
    269c:	01100193          	li	gp,17
    26a0:	01d08463          	beq	ra,t4,26a8 <slti_test+0x20c>
    26a4:	b85fd06f          	j	228 <fail>
    26a8:	ffffe097          	auipc	ra,0xffffe
    26ac:	b64080e7          	jalr	-1180(ra) # 20c <update_test>
    26b0:	000f8067          	jr	t6

000026b4 <lw_test>:
    26b4:	00000513          	li	a0,0
    26b8:	00a62023          	sw	a0,0(a2)
    26bc:	00002097          	auipc	ra,0x2
    26c0:	87408093          	addi	ra,ra,-1932 # 3f30 <tdat1lw>
    26c4:	0000af03          	lw	t5,0(ra)
    26c8:	00ff0eb7          	lui	t4,0xff0
    26cc:	0ffe8e93          	addi	t4,t4,255 # ff00ff <__sp+0xfe00ff>
    26d0:	00200193          	li	gp,2
    26d4:	01df0463          	beq	t5,t4,26dc <lw_test+0x28>
    26d8:	b51fd06f          	j	228 <fail>
    26dc:	ffffe097          	auipc	ra,0xffffe
    26e0:	b30080e7          	jalr	-1232(ra) # 20c <update_test>
    26e4:	00002097          	auipc	ra,0x2
    26e8:	84c08093          	addi	ra,ra,-1972 # 3f30 <tdat1lw>
    26ec:	0040af03          	lw	t5,4(ra)
    26f0:	ff010eb7          	lui	t4,0xff010
    26f4:	f00e8e93          	addi	t4,t4,-256 # ff00ff00 <SSEG+0xedf4ff00>
    26f8:	00300193          	li	gp,3
    26fc:	01df0463          	beq	t5,t4,2704 <lw_test+0x50>
    2700:	b29fd06f          	j	228 <fail>
    2704:	ffffe097          	auipc	ra,0xffffe
    2708:	b08080e7          	jalr	-1272(ra) # 20c <update_test>
    270c:	00002097          	auipc	ra,0x2
    2710:	82408093          	addi	ra,ra,-2012 # 3f30 <tdat1lw>
    2714:	0080af03          	lw	t5,8(ra)
    2718:	0ff01eb7          	lui	t4,0xff01
    271c:	ff0e8e93          	addi	t4,t4,-16 # ff00ff0 <__sp+0xfef0ff0>
    2720:	00400193          	li	gp,4
    2724:	01df0463          	beq	t5,t4,272c <lw_test+0x78>
    2728:	b01fd06f          	j	228 <fail>
    272c:	ffffe097          	auipc	ra,0xffffe
    2730:	ae0080e7          	jalr	-1312(ra) # 20c <update_test>
    2734:	00001097          	auipc	ra,0x1
    2738:	7fc08093          	addi	ra,ra,2044 # 3f30 <tdat1lw>
    273c:	00c0af03          	lw	t5,12(ra)
    2740:	f00ffeb7          	lui	t4,0xf00ff
    2744:	00fe8e93          	addi	t4,t4,15 # f00ff00f <SSEG+0xdf03f00f>
    2748:	00500193          	li	gp,5
    274c:	01df0463          	beq	t5,t4,2754 <lw_test+0xa0>
    2750:	ad9fd06f          	j	228 <fail>
    2754:	ffffe097          	auipc	ra,0xffffe
    2758:	ab8080e7          	jalr	-1352(ra) # 20c <update_test>
    275c:	00001097          	auipc	ra,0x1
    2760:	7e008093          	addi	ra,ra,2016 # 3f3c <tdat4lw>
    2764:	ff40af03          	lw	t5,-12(ra)
    2768:	00ff0eb7          	lui	t4,0xff0
    276c:	0ffe8e93          	addi	t4,t4,255 # ff00ff <__sp+0xfe00ff>
    2770:	00600193          	li	gp,6
    2774:	01df0463          	beq	t5,t4,277c <lw_test+0xc8>
    2778:	ab1fd06f          	j	228 <fail>
    277c:	ffffe097          	auipc	ra,0xffffe
    2780:	a90080e7          	jalr	-1392(ra) # 20c <update_test>
    2784:	00001097          	auipc	ra,0x1
    2788:	7b808093          	addi	ra,ra,1976 # 3f3c <tdat4lw>
    278c:	ff80af03          	lw	t5,-8(ra)
    2790:	ff010eb7          	lui	t4,0xff010
    2794:	f00e8e93          	addi	t4,t4,-256 # ff00ff00 <SSEG+0xedf4ff00>
    2798:	00700193          	li	gp,7
    279c:	01df0463          	beq	t5,t4,27a4 <lw_test+0xf0>
    27a0:	a89fd06f          	j	228 <fail>
    27a4:	ffffe097          	auipc	ra,0xffffe
    27a8:	a68080e7          	jalr	-1432(ra) # 20c <update_test>
    27ac:	00001097          	auipc	ra,0x1
    27b0:	79008093          	addi	ra,ra,1936 # 3f3c <tdat4lw>
    27b4:	ffc0af03          	lw	t5,-4(ra)
    27b8:	0ff01eb7          	lui	t4,0xff01
    27bc:	ff0e8e93          	addi	t4,t4,-16 # ff00ff0 <__sp+0xfef0ff0>
    27c0:	00800193          	li	gp,8
    27c4:	01df0463          	beq	t5,t4,27cc <lw_test+0x118>
    27c8:	a61fd06f          	j	228 <fail>
    27cc:	ffffe097          	auipc	ra,0xffffe
    27d0:	a40080e7          	jalr	-1472(ra) # 20c <update_test>
    27d4:	00001097          	auipc	ra,0x1
    27d8:	76808093          	addi	ra,ra,1896 # 3f3c <tdat4lw>
    27dc:	0000af03          	lw	t5,0(ra)
    27e0:	f00ffeb7          	lui	t4,0xf00ff
    27e4:	00fe8e93          	addi	t4,t4,15 # f00ff00f <SSEG+0xdf03f00f>
    27e8:	00900193          	li	gp,9
    27ec:	01df0463          	beq	t5,t4,27f4 <lw_test+0x140>
    27f0:	a39fd06f          	j	228 <fail>
    27f4:	ffffe097          	auipc	ra,0xffffe
    27f8:	a18080e7          	jalr	-1512(ra) # 20c <update_test>
    27fc:	00001097          	auipc	ra,0x1
    2800:	73408093          	addi	ra,ra,1844 # 3f30 <tdat1lw>
    2804:	fe008093          	addi	ra,ra,-32
    2808:	0200a283          	lw	t0,32(ra)
    280c:	00ff0eb7          	lui	t4,0xff0
    2810:	0ffe8e93          	addi	t4,t4,255 # ff00ff <__sp+0xfe00ff>
    2814:	00a00193          	li	gp,10
    2818:	01d28463          	beq	t0,t4,2820 <lw_test+0x16c>
    281c:	a0dfd06f          	j	228 <fail>
    2820:	ffffe097          	auipc	ra,0xffffe
    2824:	9ec080e7          	jalr	-1556(ra) # 20c <update_test>
    2828:	000f8067          	jr	t6

0000282c <sw_test>:
    282c:	00000513          	li	a0,0
    2830:	00a62023          	sw	a0,0(a2)
    2834:	00001097          	auipc	ra,0x1
    2838:	70c08093          	addi	ra,ra,1804 # 3f40 <tdat>
    283c:	00aa0137          	lui	sp,0xaa0
    2840:	0aa10113          	addi	sp,sp,170 # aa00aa <__sp+0xa900aa>
    2844:	0020a023          	sw	sp,0(ra)
    2848:	0000af03          	lw	t5,0(ra)
    284c:	00aa0eb7          	lui	t4,0xaa0
    2850:	0aae8e93          	addi	t4,t4,170 # aa00aa <__sp+0xa900aa>
    2854:	00200193          	li	gp,2
    2858:	01df0463          	beq	t5,t4,2860 <sw_test+0x34>
    285c:	9cdfd06f          	j	228 <fail>
    2860:	ffffe097          	auipc	ra,0xffffe
    2864:	9ac080e7          	jalr	-1620(ra) # 20c <update_test>
    2868:	00001097          	auipc	ra,0x1
    286c:	6d808093          	addi	ra,ra,1752 # 3f40 <tdat>
    2870:	aa00b137          	lui	sp,0xaa00b
    2874:	a0010113          	addi	sp,sp,-1536 # aa00aa00 <SSEG+0x98f4aa00>
    2878:	0020a223          	sw	sp,4(ra)
    287c:	0040af03          	lw	t5,4(ra)
    2880:	aa00beb7          	lui	t4,0xaa00b
    2884:	a00e8e93          	addi	t4,t4,-1536 # aa00aa00 <SSEG+0x98f4aa00>
    2888:	00300193          	li	gp,3
    288c:	01df0463          	beq	t5,t4,2894 <sw_test+0x68>
    2890:	999fd06f          	j	228 <fail>
    2894:	ffffe097          	auipc	ra,0xffffe
    2898:	978080e7          	jalr	-1672(ra) # 20c <update_test>
    289c:	00001097          	auipc	ra,0x1
    28a0:	6a408093          	addi	ra,ra,1700 # 3f40 <tdat>
    28a4:	0aa01137          	lui	sp,0xaa01
    28a8:	aa010113          	addi	sp,sp,-1376 # aa00aa0 <__sp+0xa9f0aa0>
    28ac:	0020a423          	sw	sp,8(ra)
    28b0:	0080af03          	lw	t5,8(ra)
    28b4:	0aa01eb7          	lui	t4,0xaa01
    28b8:	aa0e8e93          	addi	t4,t4,-1376 # aa00aa0 <__sp+0xa9f0aa0>
    28bc:	00400193          	li	gp,4
    28c0:	01df0463          	beq	t5,t4,28c8 <sw_test+0x9c>
    28c4:	965fd06f          	j	228 <fail>
    28c8:	ffffe097          	auipc	ra,0xffffe
    28cc:	944080e7          	jalr	-1724(ra) # 20c <update_test>
    28d0:	00001097          	auipc	ra,0x1
    28d4:	67008093          	addi	ra,ra,1648 # 3f40 <tdat>
    28d8:	a00aa137          	lui	sp,0xa00aa
    28dc:	00a10113          	addi	sp,sp,10 # a00aa00a <SSEG+0x8efea00a>
    28e0:	0020a623          	sw	sp,12(ra)
    28e4:	00c0af03          	lw	t5,12(ra)
    28e8:	a00aaeb7          	lui	t4,0xa00aa
    28ec:	00ae8e93          	addi	t4,t4,10 # a00aa00a <SSEG+0x8efea00a>
    28f0:	00500193          	li	gp,5
    28f4:	01df0463          	beq	t5,t4,28fc <sw_test+0xd0>
    28f8:	931fd06f          	j	228 <fail>
    28fc:	ffffe097          	auipc	ra,0xffffe
    2900:	910080e7          	jalr	-1776(ra) # 20c <update_test>
    2904:	00001097          	auipc	ra,0x1
    2908:	65808093          	addi	ra,ra,1624 # 3f5c <tdat8>
    290c:	00aa0137          	lui	sp,0xaa0
    2910:	0aa10113          	addi	sp,sp,170 # aa00aa <__sp+0xa900aa>
    2914:	fe20aa23          	sw	sp,-12(ra)
    2918:	ff40af03          	lw	t5,-12(ra)
    291c:	00aa0eb7          	lui	t4,0xaa0
    2920:	0aae8e93          	addi	t4,t4,170 # aa00aa <__sp+0xa900aa>
    2924:	00600193          	li	gp,6
    2928:	01df0463          	beq	t5,t4,2930 <sw_test+0x104>
    292c:	8fdfd06f          	j	228 <fail>
    2930:	ffffe097          	auipc	ra,0xffffe
    2934:	8dc080e7          	jalr	-1828(ra) # 20c <update_test>
    2938:	00001097          	auipc	ra,0x1
    293c:	62408093          	addi	ra,ra,1572 # 3f5c <tdat8>
    2940:	aa00b137          	lui	sp,0xaa00b
    2944:	a0010113          	addi	sp,sp,-1536 # aa00aa00 <SSEG+0x98f4aa00>
    2948:	fe20ac23          	sw	sp,-8(ra)
    294c:	ff80af03          	lw	t5,-8(ra)
    2950:	aa00beb7          	lui	t4,0xaa00b
    2954:	a00e8e93          	addi	t4,t4,-1536 # aa00aa00 <SSEG+0x98f4aa00>
    2958:	00700193          	li	gp,7
    295c:	01df0463          	beq	t5,t4,2964 <sw_test+0x138>
    2960:	8c9fd06f          	j	228 <fail>
    2964:	ffffe097          	auipc	ra,0xffffe
    2968:	8a8080e7          	jalr	-1880(ra) # 20c <update_test>
    296c:	00001097          	auipc	ra,0x1
    2970:	5f008093          	addi	ra,ra,1520 # 3f5c <tdat8>
    2974:	0aa01137          	lui	sp,0xaa01
    2978:	aa010113          	addi	sp,sp,-1376 # aa00aa0 <__sp+0xa9f0aa0>
    297c:	fe20ae23          	sw	sp,-4(ra)
    2980:	ffc0af03          	lw	t5,-4(ra)
    2984:	0aa01eb7          	lui	t4,0xaa01
    2988:	aa0e8e93          	addi	t4,t4,-1376 # aa00aa0 <__sp+0xa9f0aa0>
    298c:	00800193          	li	gp,8
    2990:	01df0463          	beq	t5,t4,2998 <sw_test+0x16c>
    2994:	895fd06f          	j	228 <fail>
    2998:	ffffe097          	auipc	ra,0xffffe
    299c:	874080e7          	jalr	-1932(ra) # 20c <update_test>
    29a0:	00001097          	auipc	ra,0x1
    29a4:	5bc08093          	addi	ra,ra,1468 # 3f5c <tdat8>
    29a8:	a00aa137          	lui	sp,0xa00aa
    29ac:	00a10113          	addi	sp,sp,10 # a00aa00a <SSEG+0x8efea00a>
    29b0:	0020a023          	sw	sp,0(ra)
    29b4:	0000af03          	lw	t5,0(ra)
    29b8:	a00aaeb7          	lui	t4,0xa00aa
    29bc:	00ae8e93          	addi	t4,t4,10 # a00aa00a <SSEG+0x8efea00a>
    29c0:	00900193          	li	gp,9
    29c4:	01df0463          	beq	t5,t4,29cc <sw_test+0x1a0>
    29c8:	861fd06f          	j	228 <fail>
    29cc:	ffffe097          	auipc	ra,0xffffe
    29d0:	840080e7          	jalr	-1984(ra) # 20c <update_test>
    29d4:	00001097          	auipc	ra,0x1
    29d8:	58c08093          	addi	ra,ra,1420 # 3f60 <tdat9>
    29dc:	12345137          	lui	sp,0x12345
    29e0:	67810113          	addi	sp,sp,1656 # 12345678 <SSEG+0x1285678>
    29e4:	fe008213          	addi	tp,ra,-32
    29e8:	02222023          	sw	sp,32(tp) # 20 <main+0x8>
    29ec:	0000a283          	lw	t0,0(ra)
    29f0:	12345eb7          	lui	t4,0x12345
    29f4:	678e8e93          	addi	t4,t4,1656 # 12345678 <SSEG+0x1285678>
    29f8:	00a00193          	li	gp,10
    29fc:	01d28463          	beq	t0,t4,2a04 <sw_test+0x1d8>
    2a00:	829fd06f          	j	228 <fail>
    2a04:	ffffe097          	auipc	ra,0xffffe
    2a08:	808080e7          	jalr	-2040(ra) # 20c <update_test>
    2a0c:	000f8067          	jr	t6

00002a10 <beq_test>:
    2a10:	00000513          	li	a0,0
    2a14:	00a62023          	sw	a0,0(a2)
    2a18:	00200193          	li	gp,2
    2a1c:	00000093          	li	ra,0
    2a20:	00000113          	li	sp,0
    2a24:	00208863          	beq	ra,sp,2a34 <beq_test+0x24>
    2a28:	00300463          	beq	zero,gp,2a30 <beq_test+0x20>
    2a2c:	ffcfd06f          	j	228 <fail>
    2a30:	00301863          	bne	zero,gp,2a40 <beq_test+0x30>
    2a34:	fe208ee3          	beq	ra,sp,2a30 <beq_test+0x20>
    2a38:	00300463          	beq	zero,gp,2a40 <beq_test+0x30>
    2a3c:	fecfd06f          	j	228 <fail>
    2a40:	ffffd097          	auipc	ra,0xffffd
    2a44:	7cc080e7          	jalr	1996(ra) # 20c <update_test>
    2a48:	00300193          	li	gp,3
    2a4c:	00100093          	li	ra,1
    2a50:	00100113          	li	sp,1
    2a54:	00208863          	beq	ra,sp,2a64 <beq_test+0x54>
    2a58:	00300463          	beq	zero,gp,2a60 <beq_test+0x50>
    2a5c:	fccfd06f          	j	228 <fail>
    2a60:	00301863          	bne	zero,gp,2a70 <beq_test+0x60>
    2a64:	fe208ee3          	beq	ra,sp,2a60 <beq_test+0x50>
    2a68:	00300463          	beq	zero,gp,2a70 <beq_test+0x60>
    2a6c:	fbcfd06f          	j	228 <fail>
    2a70:	ffffd097          	auipc	ra,0xffffd
    2a74:	79c080e7          	jalr	1948(ra) # 20c <update_test>
    2a78:	00400193          	li	gp,4
    2a7c:	fff00093          	li	ra,-1
    2a80:	fff00113          	li	sp,-1
    2a84:	00208863          	beq	ra,sp,2a94 <beq_test+0x84>
    2a88:	00300463          	beq	zero,gp,2a90 <beq_test+0x80>
    2a8c:	f9cfd06f          	j	228 <fail>
    2a90:	00301863          	bne	zero,gp,2aa0 <beq_test+0x90>
    2a94:	fe208ee3          	beq	ra,sp,2a90 <beq_test+0x80>
    2a98:	00300463          	beq	zero,gp,2aa0 <beq_test+0x90>
    2a9c:	f8cfd06f          	j	228 <fail>
    2aa0:	ffffd097          	auipc	ra,0xffffd
    2aa4:	76c080e7          	jalr	1900(ra) # 20c <update_test>
    2aa8:	00500193          	li	gp,5
    2aac:	00000093          	li	ra,0
    2ab0:	00100113          	li	sp,1
    2ab4:	00208463          	beq	ra,sp,2abc <beq_test+0xac>
    2ab8:	00301663          	bne	zero,gp,2ac4 <beq_test+0xb4>
    2abc:	00300463          	beq	zero,gp,2ac4 <beq_test+0xb4>
    2ac0:	f68fd06f          	j	228 <fail>
    2ac4:	fe208ce3          	beq	ra,sp,2abc <beq_test+0xac>
    2ac8:	ffffd097          	auipc	ra,0xffffd
    2acc:	744080e7          	jalr	1860(ra) # 20c <update_test>
    2ad0:	00600193          	li	gp,6
    2ad4:	00100093          	li	ra,1
    2ad8:	00000113          	li	sp,0
    2adc:	00208463          	beq	ra,sp,2ae4 <beq_test+0xd4>
    2ae0:	00301663          	bne	zero,gp,2aec <beq_test+0xdc>
    2ae4:	00300463          	beq	zero,gp,2aec <beq_test+0xdc>
    2ae8:	f40fd06f          	j	228 <fail>
    2aec:	fe208ce3          	beq	ra,sp,2ae4 <beq_test+0xd4>
    2af0:	ffffd097          	auipc	ra,0xffffd
    2af4:	71c080e7          	jalr	1820(ra) # 20c <update_test>
    2af8:	00700193          	li	gp,7
    2afc:	fff00093          	li	ra,-1
    2b00:	00100113          	li	sp,1
    2b04:	00208463          	beq	ra,sp,2b0c <beq_test+0xfc>
    2b08:	00301663          	bne	zero,gp,2b14 <beq_test+0x104>
    2b0c:	00300463          	beq	zero,gp,2b14 <beq_test+0x104>
    2b10:	f18fd06f          	j	228 <fail>
    2b14:	fe208ce3          	beq	ra,sp,2b0c <beq_test+0xfc>
    2b18:	ffffd097          	auipc	ra,0xffffd
    2b1c:	6f4080e7          	jalr	1780(ra) # 20c <update_test>
    2b20:	00800193          	li	gp,8
    2b24:	00100093          	li	ra,1
    2b28:	fff00113          	li	sp,-1
    2b2c:	00208463          	beq	ra,sp,2b34 <beq_test+0x124>
    2b30:	00301663          	bne	zero,gp,2b3c <beq_test+0x12c>
    2b34:	00300463          	beq	zero,gp,2b3c <beq_test+0x12c>
    2b38:	ef0fd06f          	j	228 <fail>
    2b3c:	fe208ce3          	beq	ra,sp,2b34 <beq_test+0x124>
    2b40:	ffffd097          	auipc	ra,0xffffd
    2b44:	6cc080e7          	jalr	1740(ra) # 20c <update_test>
    2b48:	000f8067          	jr	t6

00002b4c <bne_test>:
    2b4c:	00000513          	li	a0,0
    2b50:	00a62023          	sw	a0,0(a2)
    2b54:	00200193          	li	gp,2
    2b58:	00000093          	li	ra,0
    2b5c:	00100113          	li	sp,1
    2b60:	00209863          	bne	ra,sp,2b70 <bne_test+0x24>
    2b64:	00300463          	beq	zero,gp,2b6c <bne_test+0x20>
    2b68:	ec0fd06f          	j	228 <fail>
    2b6c:	00301863          	bne	zero,gp,2b7c <bne_test+0x30>
    2b70:	fe209ee3          	bne	ra,sp,2b6c <bne_test+0x20>
    2b74:	00300463          	beq	zero,gp,2b7c <bne_test+0x30>
    2b78:	eb0fd06f          	j	228 <fail>
    2b7c:	ffffd097          	auipc	ra,0xffffd
    2b80:	690080e7          	jalr	1680(ra) # 20c <update_test>
    2b84:	00300193          	li	gp,3
    2b88:	00100093          	li	ra,1
    2b8c:	00000113          	li	sp,0
    2b90:	00209863          	bne	ra,sp,2ba0 <bne_test+0x54>
    2b94:	00300463          	beq	zero,gp,2b9c <bne_test+0x50>
    2b98:	e90fd06f          	j	228 <fail>
    2b9c:	00301863          	bne	zero,gp,2bac <bne_test+0x60>
    2ba0:	fe209ee3          	bne	ra,sp,2b9c <bne_test+0x50>
    2ba4:	00300463          	beq	zero,gp,2bac <bne_test+0x60>
    2ba8:	e80fd06f          	j	228 <fail>
    2bac:	ffffd097          	auipc	ra,0xffffd
    2bb0:	660080e7          	jalr	1632(ra) # 20c <update_test>
    2bb4:	00400193          	li	gp,4
    2bb8:	fff00093          	li	ra,-1
    2bbc:	00100113          	li	sp,1
    2bc0:	00209863          	bne	ra,sp,2bd0 <bne_test+0x84>
    2bc4:	00300463          	beq	zero,gp,2bcc <bne_test+0x80>
    2bc8:	e60fd06f          	j	228 <fail>
    2bcc:	00301863          	bne	zero,gp,2bdc <bne_test+0x90>
    2bd0:	fe209ee3          	bne	ra,sp,2bcc <bne_test+0x80>
    2bd4:	00300463          	beq	zero,gp,2bdc <bne_test+0x90>
    2bd8:	e50fd06f          	j	228 <fail>
    2bdc:	ffffd097          	auipc	ra,0xffffd
    2be0:	630080e7          	jalr	1584(ra) # 20c <update_test>
    2be4:	00500193          	li	gp,5
    2be8:	00100093          	li	ra,1
    2bec:	fff00113          	li	sp,-1
    2bf0:	00209863          	bne	ra,sp,2c00 <bne_test+0xb4>
    2bf4:	00300463          	beq	zero,gp,2bfc <bne_test+0xb0>
    2bf8:	e30fd06f          	j	228 <fail>
    2bfc:	00301863          	bne	zero,gp,2c0c <bne_test+0xc0>
    2c00:	fe209ee3          	bne	ra,sp,2bfc <bne_test+0xb0>
    2c04:	00300463          	beq	zero,gp,2c0c <bne_test+0xc0>
    2c08:	e20fd06f          	j	228 <fail>
    2c0c:	ffffd097          	auipc	ra,0xffffd
    2c10:	600080e7          	jalr	1536(ra) # 20c <update_test>
    2c14:	00600193          	li	gp,6
    2c18:	00000093          	li	ra,0
    2c1c:	00000113          	li	sp,0
    2c20:	00209463          	bne	ra,sp,2c28 <bne_test+0xdc>
    2c24:	00301663          	bne	zero,gp,2c30 <bne_test+0xe4>
    2c28:	00300463          	beq	zero,gp,2c30 <bne_test+0xe4>
    2c2c:	dfcfd06f          	j	228 <fail>
    2c30:	fe209ce3          	bne	ra,sp,2c28 <bne_test+0xdc>
    2c34:	ffffd097          	auipc	ra,0xffffd
    2c38:	5d8080e7          	jalr	1496(ra) # 20c <update_test>
    2c3c:	00700193          	li	gp,7
    2c40:	00100093          	li	ra,1
    2c44:	00100113          	li	sp,1
    2c48:	00209463          	bne	ra,sp,2c50 <bne_test+0x104>
    2c4c:	00301663          	bne	zero,gp,2c58 <bne_test+0x10c>
    2c50:	00300463          	beq	zero,gp,2c58 <bne_test+0x10c>
    2c54:	dd4fd06f          	j	228 <fail>
    2c58:	fe209ce3          	bne	ra,sp,2c50 <bne_test+0x104>
    2c5c:	ffffd097          	auipc	ra,0xffffd
    2c60:	5b0080e7          	jalr	1456(ra) # 20c <update_test>
    2c64:	00800193          	li	gp,8
    2c68:	fff00093          	li	ra,-1
    2c6c:	fff00113          	li	sp,-1
    2c70:	00209463          	bne	ra,sp,2c78 <bne_test+0x12c>
    2c74:	00301663          	bne	zero,gp,2c80 <bne_test+0x134>
    2c78:	00300463          	beq	zero,gp,2c80 <bne_test+0x134>
    2c7c:	dacfd06f          	j	228 <fail>
    2c80:	fe209ce3          	bne	ra,sp,2c78 <bne_test+0x12c>
    2c84:	ffffd097          	auipc	ra,0xffffd
    2c88:	588080e7          	jalr	1416(ra) # 20c <update_test>
    2c8c:	000f8067          	jr	t6

00002c90 <blt_test>:
    2c90:	00000513          	li	a0,0
    2c94:	00a62023          	sw	a0,0(a2)
    2c98:	00200193          	li	gp,2
    2c9c:	00000093          	li	ra,0
    2ca0:	00100113          	li	sp,1
    2ca4:	0020c863          	blt	ra,sp,2cb4 <blt_test+0x24>
    2ca8:	00300463          	beq	zero,gp,2cb0 <blt_test+0x20>
    2cac:	d7cfd06f          	j	228 <fail>
    2cb0:	00301863          	bne	zero,gp,2cc0 <blt_test+0x30>
    2cb4:	fe20cee3          	blt	ra,sp,2cb0 <blt_test+0x20>
    2cb8:	00300463          	beq	zero,gp,2cc0 <blt_test+0x30>
    2cbc:	d6cfd06f          	j	228 <fail>
    2cc0:	ffffd097          	auipc	ra,0xffffd
    2cc4:	54c080e7          	jalr	1356(ra) # 20c <update_test>
    2cc8:	00300193          	li	gp,3
    2ccc:	fff00093          	li	ra,-1
    2cd0:	00100113          	li	sp,1
    2cd4:	0020c863          	blt	ra,sp,2ce4 <blt_test+0x54>
    2cd8:	00300463          	beq	zero,gp,2ce0 <blt_test+0x50>
    2cdc:	d4cfd06f          	j	228 <fail>
    2ce0:	00301863          	bne	zero,gp,2cf0 <blt_test+0x60>
    2ce4:	fe20cee3          	blt	ra,sp,2ce0 <blt_test+0x50>
    2ce8:	00300463          	beq	zero,gp,2cf0 <blt_test+0x60>
    2cec:	d3cfd06f          	j	228 <fail>
    2cf0:	ffffd097          	auipc	ra,0xffffd
    2cf4:	51c080e7          	jalr	1308(ra) # 20c <update_test>
    2cf8:	00400193          	li	gp,4
    2cfc:	ffe00093          	li	ra,-2
    2d00:	fff00113          	li	sp,-1
    2d04:	0020c863          	blt	ra,sp,2d14 <blt_test+0x84>
    2d08:	00300463          	beq	zero,gp,2d10 <blt_test+0x80>
    2d0c:	d1cfd06f          	j	228 <fail>
    2d10:	00301863          	bne	zero,gp,2d20 <blt_test+0x90>
    2d14:	fe20cee3          	blt	ra,sp,2d10 <blt_test+0x80>
    2d18:	00300463          	beq	zero,gp,2d20 <blt_test+0x90>
    2d1c:	d0cfd06f          	j	228 <fail>
    2d20:	ffffd097          	auipc	ra,0xffffd
    2d24:	4ec080e7          	jalr	1260(ra) # 20c <update_test>
    2d28:	00500193          	li	gp,5
    2d2c:	00100093          	li	ra,1
    2d30:	00000113          	li	sp,0
    2d34:	0020c463          	blt	ra,sp,2d3c <blt_test+0xac>
    2d38:	00301663          	bne	zero,gp,2d44 <blt_test+0xb4>
    2d3c:	00300463          	beq	zero,gp,2d44 <blt_test+0xb4>
    2d40:	ce8fd06f          	j	228 <fail>
    2d44:	fe20cce3          	blt	ra,sp,2d3c <blt_test+0xac>
    2d48:	ffffd097          	auipc	ra,0xffffd
    2d4c:	4c4080e7          	jalr	1220(ra) # 20c <update_test>
    2d50:	00600193          	li	gp,6
    2d54:	00100093          	li	ra,1
    2d58:	fff00113          	li	sp,-1
    2d5c:	0020c463          	blt	ra,sp,2d64 <blt_test+0xd4>
    2d60:	00301663          	bne	zero,gp,2d6c <blt_test+0xdc>
    2d64:	00300463          	beq	zero,gp,2d6c <blt_test+0xdc>
    2d68:	cc0fd06f          	j	228 <fail>
    2d6c:	fe20cce3          	blt	ra,sp,2d64 <blt_test+0xd4>
    2d70:	ffffd097          	auipc	ra,0xffffd
    2d74:	49c080e7          	jalr	1180(ra) # 20c <update_test>
    2d78:	00700193          	li	gp,7
    2d7c:	fff00093          	li	ra,-1
    2d80:	ffe00113          	li	sp,-2
    2d84:	0020c463          	blt	ra,sp,2d8c <blt_test+0xfc>
    2d88:	00301663          	bne	zero,gp,2d94 <blt_test+0x104>
    2d8c:	00300463          	beq	zero,gp,2d94 <blt_test+0x104>
    2d90:	c98fd06f          	j	228 <fail>
    2d94:	fe20cce3          	blt	ra,sp,2d8c <blt_test+0xfc>
    2d98:	ffffd097          	auipc	ra,0xffffd
    2d9c:	474080e7          	jalr	1140(ra) # 20c <update_test>
    2da0:	00800193          	li	gp,8
    2da4:	00100093          	li	ra,1
    2da8:	ffe00113          	li	sp,-2
    2dac:	0020c463          	blt	ra,sp,2db4 <blt_test+0x124>
    2db0:	00301663          	bne	zero,gp,2dbc <blt_test+0x12c>
    2db4:	00300463          	beq	zero,gp,2dbc <blt_test+0x12c>
    2db8:	c70fd06f          	j	228 <fail>
    2dbc:	fe20cce3          	blt	ra,sp,2db4 <blt_test+0x124>
    2dc0:	ffffd097          	auipc	ra,0xffffd
    2dc4:	44c080e7          	jalr	1100(ra) # 20c <update_test>
    2dc8:	000f8067          	jr	t6

00002dcc <bge_test>:
    2dcc:	00000513          	li	a0,0
    2dd0:	00a62023          	sw	a0,0(a2)
    2dd4:	00200193          	li	gp,2
    2dd8:	00000093          	li	ra,0
    2ddc:	00000113          	li	sp,0
    2de0:	0020d863          	bge	ra,sp,2df0 <bge_test+0x24>
    2de4:	00300463          	beq	zero,gp,2dec <bge_test+0x20>
    2de8:	c40fd06f          	j	228 <fail>
    2dec:	00301863          	bne	zero,gp,2dfc <bge_test+0x30>
    2df0:	fe20dee3          	bge	ra,sp,2dec <bge_test+0x20>
    2df4:	00300463          	beq	zero,gp,2dfc <bge_test+0x30>
    2df8:	c30fd06f          	j	228 <fail>
    2dfc:	ffffd097          	auipc	ra,0xffffd
    2e00:	410080e7          	jalr	1040(ra) # 20c <update_test>
    2e04:	00300193          	li	gp,3
    2e08:	00100093          	li	ra,1
    2e0c:	00100113          	li	sp,1
    2e10:	0020d863          	bge	ra,sp,2e20 <bge_test+0x54>
    2e14:	00300463          	beq	zero,gp,2e1c <bge_test+0x50>
    2e18:	c10fd06f          	j	228 <fail>
    2e1c:	00301863          	bne	zero,gp,2e2c <bge_test+0x60>
    2e20:	fe20dee3          	bge	ra,sp,2e1c <bge_test+0x50>
    2e24:	00300463          	beq	zero,gp,2e2c <bge_test+0x60>
    2e28:	c00fd06f          	j	228 <fail>
    2e2c:	ffffd097          	auipc	ra,0xffffd
    2e30:	3e0080e7          	jalr	992(ra) # 20c <update_test>
    2e34:	00400193          	li	gp,4
    2e38:	fff00093          	li	ra,-1
    2e3c:	fff00113          	li	sp,-1
    2e40:	0020d863          	bge	ra,sp,2e50 <bge_test+0x84>
    2e44:	00300463          	beq	zero,gp,2e4c <bge_test+0x80>
    2e48:	be0fd06f          	j	228 <fail>
    2e4c:	00301863          	bne	zero,gp,2e5c <bge_test+0x90>
    2e50:	fe20dee3          	bge	ra,sp,2e4c <bge_test+0x80>
    2e54:	00300463          	beq	zero,gp,2e5c <bge_test+0x90>
    2e58:	bd0fd06f          	j	228 <fail>
    2e5c:	ffffd097          	auipc	ra,0xffffd
    2e60:	3b0080e7          	jalr	944(ra) # 20c <update_test>
    2e64:	00500193          	li	gp,5
    2e68:	00100093          	li	ra,1
    2e6c:	00000113          	li	sp,0
    2e70:	0020d863          	bge	ra,sp,2e80 <bge_test+0xb4>
    2e74:	00300463          	beq	zero,gp,2e7c <bge_test+0xb0>
    2e78:	bb0fd06f          	j	228 <fail>
    2e7c:	00301863          	bne	zero,gp,2e8c <bge_test+0xc0>
    2e80:	fe20dee3          	bge	ra,sp,2e7c <bge_test+0xb0>
    2e84:	00300463          	beq	zero,gp,2e8c <bge_test+0xc0>
    2e88:	ba0fd06f          	j	228 <fail>
    2e8c:	ffffd097          	auipc	ra,0xffffd
    2e90:	380080e7          	jalr	896(ra) # 20c <update_test>
    2e94:	00600193          	li	gp,6
    2e98:	00100093          	li	ra,1
    2e9c:	fff00113          	li	sp,-1
    2ea0:	0020d863          	bge	ra,sp,2eb0 <bge_test+0xe4>
    2ea4:	00300463          	beq	zero,gp,2eac <bge_test+0xe0>
    2ea8:	b80fd06f          	j	228 <fail>
    2eac:	00301863          	bne	zero,gp,2ebc <bge_test+0xf0>
    2eb0:	fe20dee3          	bge	ra,sp,2eac <bge_test+0xe0>
    2eb4:	00300463          	beq	zero,gp,2ebc <bge_test+0xf0>
    2eb8:	b70fd06f          	j	228 <fail>
    2ebc:	ffffd097          	auipc	ra,0xffffd
    2ec0:	350080e7          	jalr	848(ra) # 20c <update_test>
    2ec4:	00700193          	li	gp,7
    2ec8:	fff00093          	li	ra,-1
    2ecc:	ffe00113          	li	sp,-2
    2ed0:	0020d863          	bge	ra,sp,2ee0 <bge_test+0x114>
    2ed4:	00300463          	beq	zero,gp,2edc <bge_test+0x110>
    2ed8:	b50fd06f          	j	228 <fail>
    2edc:	00301863          	bne	zero,gp,2eec <bge_test+0x120>
    2ee0:	fe20dee3          	bge	ra,sp,2edc <bge_test+0x110>
    2ee4:	00300463          	beq	zero,gp,2eec <bge_test+0x120>
    2ee8:	b40fd06f          	j	228 <fail>
    2eec:	ffffd097          	auipc	ra,0xffffd
    2ef0:	320080e7          	jalr	800(ra) # 20c <update_test>
    2ef4:	00800193          	li	gp,8
    2ef8:	00000093          	li	ra,0
    2efc:	00100113          	li	sp,1
    2f00:	0020d463          	bge	ra,sp,2f08 <bge_test+0x13c>
    2f04:	00301663          	bne	zero,gp,2f10 <bge_test+0x144>
    2f08:	00300463          	beq	zero,gp,2f10 <bge_test+0x144>
    2f0c:	b1cfd06f          	j	228 <fail>
    2f10:	fe20dce3          	bge	ra,sp,2f08 <bge_test+0x13c>
    2f14:	ffffd097          	auipc	ra,0xffffd
    2f18:	2f8080e7          	jalr	760(ra) # 20c <update_test>
    2f1c:	00900193          	li	gp,9
    2f20:	fff00093          	li	ra,-1
    2f24:	00100113          	li	sp,1
    2f28:	0020d463          	bge	ra,sp,2f30 <bge_test+0x164>
    2f2c:	00301663          	bne	zero,gp,2f38 <bge_test+0x16c>
    2f30:	00300463          	beq	zero,gp,2f38 <bge_test+0x16c>
    2f34:	af4fd06f          	j	228 <fail>
    2f38:	fe20dce3          	bge	ra,sp,2f30 <bge_test+0x164>
    2f3c:	ffffd097          	auipc	ra,0xffffd
    2f40:	2d0080e7          	jalr	720(ra) # 20c <update_test>
    2f44:	00a00193          	li	gp,10
    2f48:	ffe00093          	li	ra,-2
    2f4c:	fff00113          	li	sp,-1
    2f50:	0020d463          	bge	ra,sp,2f58 <bge_test+0x18c>
    2f54:	00301663          	bne	zero,gp,2f60 <bge_test+0x194>
    2f58:	00300463          	beq	zero,gp,2f60 <bge_test+0x194>
    2f5c:	accfd06f          	j	228 <fail>
    2f60:	fe20dce3          	bge	ra,sp,2f58 <bge_test+0x18c>
    2f64:	ffffd097          	auipc	ra,0xffffd
    2f68:	2a8080e7          	jalr	680(ra) # 20c <update_test>
    2f6c:	00b00193          	li	gp,11
    2f70:	ffe00093          	li	ra,-2
    2f74:	00100113          	li	sp,1
    2f78:	0020d463          	bge	ra,sp,2f80 <bge_test+0x1b4>
    2f7c:	00301663          	bne	zero,gp,2f88 <bge_test+0x1bc>
    2f80:	00300463          	beq	zero,gp,2f88 <bge_test+0x1bc>
    2f84:	aa4fd06f          	j	228 <fail>
    2f88:	fe20dce3          	bge	ra,sp,2f80 <bge_test+0x1b4>
    2f8c:	ffffd097          	auipc	ra,0xffffd
    2f90:	280080e7          	jalr	640(ra) # 20c <update_test>
    2f94:	000f8067          	jr	t6

00002f98 <bltu_test>:
    2f98:	00000513          	li	a0,0
    2f9c:	00a62023          	sw	a0,0(a2)
    2fa0:	00200193          	li	gp,2
    2fa4:	00000093          	li	ra,0
    2fa8:	00100113          	li	sp,1
    2fac:	0020e863          	bltu	ra,sp,2fbc <bltu_test+0x24>
    2fb0:	00300463          	beq	zero,gp,2fb8 <bltu_test+0x20>
    2fb4:	a74fd06f          	j	228 <fail>
    2fb8:	00301863          	bne	zero,gp,2fc8 <bltu_test+0x30>
    2fbc:	fe20eee3          	bltu	ra,sp,2fb8 <bltu_test+0x20>
    2fc0:	00300463          	beq	zero,gp,2fc8 <bltu_test+0x30>
    2fc4:	a64fd06f          	j	228 <fail>
    2fc8:	ffffd097          	auipc	ra,0xffffd
    2fcc:	244080e7          	jalr	580(ra) # 20c <update_test>
    2fd0:	00300193          	li	gp,3
    2fd4:	ffe00093          	li	ra,-2
    2fd8:	fff00113          	li	sp,-1
    2fdc:	0020e863          	bltu	ra,sp,2fec <bltu_test+0x54>
    2fe0:	00300463          	beq	zero,gp,2fe8 <bltu_test+0x50>
    2fe4:	a44fd06f          	j	228 <fail>
    2fe8:	00301863          	bne	zero,gp,2ff8 <bltu_test+0x60>
    2fec:	fe20eee3          	bltu	ra,sp,2fe8 <bltu_test+0x50>
    2ff0:	00300463          	beq	zero,gp,2ff8 <bltu_test+0x60>
    2ff4:	a34fd06f          	j	228 <fail>
    2ff8:	ffffd097          	auipc	ra,0xffffd
    2ffc:	214080e7          	jalr	532(ra) # 20c <update_test>
    3000:	00400193          	li	gp,4
    3004:	00000093          	li	ra,0
    3008:	fff00113          	li	sp,-1
    300c:	0020e863          	bltu	ra,sp,301c <bltu_test+0x84>
    3010:	00300463          	beq	zero,gp,3018 <bltu_test+0x80>
    3014:	a14fd06f          	j	228 <fail>
    3018:	00301863          	bne	zero,gp,3028 <bltu_test+0x90>
    301c:	fe20eee3          	bltu	ra,sp,3018 <bltu_test+0x80>
    3020:	00300463          	beq	zero,gp,3028 <bltu_test+0x90>
    3024:	a04fd06f          	j	228 <fail>
    3028:	ffffd097          	auipc	ra,0xffffd
    302c:	1e4080e7          	jalr	484(ra) # 20c <update_test>
    3030:	00500193          	li	gp,5
    3034:	00100093          	li	ra,1
    3038:	00000113          	li	sp,0
    303c:	0020e463          	bltu	ra,sp,3044 <bltu_test+0xac>
    3040:	00301663          	bne	zero,gp,304c <bltu_test+0xb4>
    3044:	00300463          	beq	zero,gp,304c <bltu_test+0xb4>
    3048:	9e0fd06f          	j	228 <fail>
    304c:	fe20ece3          	bltu	ra,sp,3044 <bltu_test+0xac>
    3050:	ffffd097          	auipc	ra,0xffffd
    3054:	1bc080e7          	jalr	444(ra) # 20c <update_test>
    3058:	00600193          	li	gp,6
    305c:	fff00093          	li	ra,-1
    3060:	ffe00113          	li	sp,-2
    3064:	0020e463          	bltu	ra,sp,306c <bltu_test+0xd4>
    3068:	00301663          	bne	zero,gp,3074 <bltu_test+0xdc>
    306c:	00300463          	beq	zero,gp,3074 <bltu_test+0xdc>
    3070:	9b8fd06f          	j	228 <fail>
    3074:	fe20ece3          	bltu	ra,sp,306c <bltu_test+0xd4>
    3078:	ffffd097          	auipc	ra,0xffffd
    307c:	194080e7          	jalr	404(ra) # 20c <update_test>
    3080:	00700193          	li	gp,7
    3084:	fff00093          	li	ra,-1
    3088:	00000113          	li	sp,0
    308c:	0020e463          	bltu	ra,sp,3094 <bltu_test+0xfc>
    3090:	00301663          	bne	zero,gp,309c <bltu_test+0x104>
    3094:	00300463          	beq	zero,gp,309c <bltu_test+0x104>
    3098:	990fd06f          	j	228 <fail>
    309c:	fe20ece3          	bltu	ra,sp,3094 <bltu_test+0xfc>
    30a0:	ffffd097          	auipc	ra,0xffffd
    30a4:	16c080e7          	jalr	364(ra) # 20c <update_test>
    30a8:	00800193          	li	gp,8
    30ac:	800000b7          	lui	ra,0x80000
    30b0:	80000137          	lui	sp,0x80000
    30b4:	fff10113          	addi	sp,sp,-1 # 7fffffff <SSEG+0x6ef3ffff>
    30b8:	0020e463          	bltu	ra,sp,30c0 <bltu_test+0x128>
    30bc:	00301663          	bne	zero,gp,30c8 <bltu_test+0x130>
    30c0:	00300463          	beq	zero,gp,30c8 <bltu_test+0x130>
    30c4:	964fd06f          	j	228 <fail>
    30c8:	fe20ece3          	bltu	ra,sp,30c0 <bltu_test+0x128>
    30cc:	ffffd097          	auipc	ra,0xffffd
    30d0:	140080e7          	jalr	320(ra) # 20c <update_test>
    30d4:	000f8067          	jr	t6

000030d8 <bgeu_test>:
    30d8:	00000513          	li	a0,0
    30dc:	00a62023          	sw	a0,0(a2)
    30e0:	00200193          	li	gp,2
    30e4:	00000093          	li	ra,0
    30e8:	00000113          	li	sp,0
    30ec:	0020f863          	bgeu	ra,sp,30fc <bgeu_test+0x24>
    30f0:	00300463          	beq	zero,gp,30f8 <bgeu_test+0x20>
    30f4:	934fd06f          	j	228 <fail>
    30f8:	00301863          	bne	zero,gp,3108 <bgeu_test+0x30>
    30fc:	fe20fee3          	bgeu	ra,sp,30f8 <bgeu_test+0x20>
    3100:	00300463          	beq	zero,gp,3108 <bgeu_test+0x30>
    3104:	924fd06f          	j	228 <fail>
    3108:	ffffd097          	auipc	ra,0xffffd
    310c:	104080e7          	jalr	260(ra) # 20c <update_test>
    3110:	00300193          	li	gp,3
    3114:	00100093          	li	ra,1
    3118:	00100113          	li	sp,1
    311c:	0020f863          	bgeu	ra,sp,312c <bgeu_test+0x54>
    3120:	00300463          	beq	zero,gp,3128 <bgeu_test+0x50>
    3124:	904fd06f          	j	228 <fail>
    3128:	00301863          	bne	zero,gp,3138 <bgeu_test+0x60>
    312c:	fe20fee3          	bgeu	ra,sp,3128 <bgeu_test+0x50>
    3130:	00300463          	beq	zero,gp,3138 <bgeu_test+0x60>
    3134:	8f4fd06f          	j	228 <fail>
    3138:	ffffd097          	auipc	ra,0xffffd
    313c:	0d4080e7          	jalr	212(ra) # 20c <update_test>
    3140:	00400193          	li	gp,4
    3144:	fff00093          	li	ra,-1
    3148:	fff00113          	li	sp,-1
    314c:	0020f863          	bgeu	ra,sp,315c <bgeu_test+0x84>
    3150:	00300463          	beq	zero,gp,3158 <bgeu_test+0x80>
    3154:	8d4fd06f          	j	228 <fail>
    3158:	00301863          	bne	zero,gp,3168 <bgeu_test+0x90>
    315c:	fe20fee3          	bgeu	ra,sp,3158 <bgeu_test+0x80>
    3160:	00300463          	beq	zero,gp,3168 <bgeu_test+0x90>
    3164:	8c4fd06f          	j	228 <fail>
    3168:	ffffd097          	auipc	ra,0xffffd
    316c:	0a4080e7          	jalr	164(ra) # 20c <update_test>
    3170:	00500193          	li	gp,5
    3174:	00100093          	li	ra,1
    3178:	00000113          	li	sp,0
    317c:	0020f863          	bgeu	ra,sp,318c <bgeu_test+0xb4>
    3180:	00300463          	beq	zero,gp,3188 <bgeu_test+0xb0>
    3184:	8a4fd06f          	j	228 <fail>
    3188:	00301863          	bne	zero,gp,3198 <bgeu_test+0xc0>
    318c:	fe20fee3          	bgeu	ra,sp,3188 <bgeu_test+0xb0>
    3190:	00300463          	beq	zero,gp,3198 <bgeu_test+0xc0>
    3194:	894fd06f          	j	228 <fail>
    3198:	ffffd097          	auipc	ra,0xffffd
    319c:	074080e7          	jalr	116(ra) # 20c <update_test>
    31a0:	00600193          	li	gp,6
    31a4:	fff00093          	li	ra,-1
    31a8:	ffe00113          	li	sp,-2
    31ac:	0020f863          	bgeu	ra,sp,31bc <bgeu_test+0xe4>
    31b0:	00300463          	beq	zero,gp,31b8 <bgeu_test+0xe0>
    31b4:	874fd06f          	j	228 <fail>
    31b8:	00301863          	bne	zero,gp,31c8 <bgeu_test+0xf0>
    31bc:	fe20fee3          	bgeu	ra,sp,31b8 <bgeu_test+0xe0>
    31c0:	00300463          	beq	zero,gp,31c8 <bgeu_test+0xf0>
    31c4:	864fd06f          	j	228 <fail>
    31c8:	ffffd097          	auipc	ra,0xffffd
    31cc:	044080e7          	jalr	68(ra) # 20c <update_test>
    31d0:	00700193          	li	gp,7
    31d4:	fff00093          	li	ra,-1
    31d8:	00000113          	li	sp,0
    31dc:	0020f863          	bgeu	ra,sp,31ec <bgeu_test+0x114>
    31e0:	00300463          	beq	zero,gp,31e8 <bgeu_test+0x110>
    31e4:	844fd06f          	j	228 <fail>
    31e8:	00301863          	bne	zero,gp,31f8 <bgeu_test+0x120>
    31ec:	fe20fee3          	bgeu	ra,sp,31e8 <bgeu_test+0x110>
    31f0:	00300463          	beq	zero,gp,31f8 <bgeu_test+0x120>
    31f4:	834fd06f          	j	228 <fail>
    31f8:	ffffd097          	auipc	ra,0xffffd
    31fc:	014080e7          	jalr	20(ra) # 20c <update_test>
    3200:	00800193          	li	gp,8
    3204:	00000093          	li	ra,0
    3208:	00100113          	li	sp,1
    320c:	0020f463          	bgeu	ra,sp,3214 <bgeu_test+0x13c>
    3210:	00301663          	bne	zero,gp,321c <bgeu_test+0x144>
    3214:	00300463          	beq	zero,gp,321c <bgeu_test+0x144>
    3218:	810fd06f          	j	228 <fail>
    321c:	fe20fce3          	bgeu	ra,sp,3214 <bgeu_test+0x13c>
    3220:	ffffd097          	auipc	ra,0xffffd
    3224:	fec080e7          	jalr	-20(ra) # 20c <update_test>
    3228:	00900193          	li	gp,9
    322c:	ffe00093          	li	ra,-2
    3230:	fff00113          	li	sp,-1
    3234:	0020f463          	bgeu	ra,sp,323c <bgeu_test+0x164>
    3238:	00301663          	bne	zero,gp,3244 <bgeu_test+0x16c>
    323c:	00300463          	beq	zero,gp,3244 <bgeu_test+0x16c>
    3240:	fe9fc06f          	j	228 <fail>
    3244:	fe20fce3          	bgeu	ra,sp,323c <bgeu_test+0x164>
    3248:	ffffd097          	auipc	ra,0xffffd
    324c:	fc4080e7          	jalr	-60(ra) # 20c <update_test>
    3250:	00a00193          	li	gp,10
    3254:	00000093          	li	ra,0
    3258:	fff00113          	li	sp,-1
    325c:	0020f463          	bgeu	ra,sp,3264 <bgeu_test+0x18c>
    3260:	00301663          	bne	zero,gp,326c <bgeu_test+0x194>
    3264:	00300463          	beq	zero,gp,326c <bgeu_test+0x194>
    3268:	fc1fc06f          	j	228 <fail>
    326c:	fe20fce3          	bgeu	ra,sp,3264 <bgeu_test+0x18c>
    3270:	ffffd097          	auipc	ra,0xffffd
    3274:	f9c080e7          	jalr	-100(ra) # 20c <update_test>
    3278:	00b00193          	li	gp,11
    327c:	800000b7          	lui	ra,0x80000
    3280:	fff08093          	addi	ra,ra,-1 # 7fffffff <SSEG+0x6ef3ffff>
    3284:	80000137          	lui	sp,0x80000
    3288:	0020f463          	bgeu	ra,sp,3290 <bgeu_test+0x1b8>
    328c:	00301663          	bne	zero,gp,3298 <bgeu_test+0x1c0>
    3290:	00300463          	beq	zero,gp,3298 <bgeu_test+0x1c0>
    3294:	f95fc06f          	j	228 <fail>
    3298:	fe20fce3          	bgeu	ra,sp,3290 <bgeu_test+0x1b8>
    329c:	ffffd097          	auipc	ra,0xffffd
    32a0:	f70080e7          	jalr	-144(ra) # 20c <update_test>
    32a4:	000f8067          	jr	t6

000032a8 <auipc_test>:
    32a8:	00000513          	li	a0,0
    32ac:	00a62023          	sw	a0,0(a2)
    32b0:	00002e17          	auipc	t3,0x2
    32b4:	71ce0e13          	addi	t3,t3,1820 # 59cc <__global_pointer$+0x12a8>
    32b8:	00400def          	jal	s11,32bc <auipc_test+0x14>
    32bc:	41be0e33          	sub	t3,t3,s11
    32c0:	00002eb7          	lui	t4,0x2
    32c4:	710e8e93          	addi	t4,t4,1808 # 2710 <lw_test+0x5c>
    32c8:	00200193          	li	gp,2
    32cc:	01de0463          	beq	t3,t4,32d4 <auipc_test+0x2c>
    32d0:	f59fc06f          	j	228 <fail>
    32d4:	ffffd097          	auipc	ra,0xffffd
    32d8:	f38080e7          	jalr	-200(ra) # 20c <update_test>
    32dc:	00000013          	nop
    32e0:	ffffee17          	auipc	t3,0xffffe
    32e4:	8fce0e13          	addi	t3,t3,-1796 # bdc <sll_test+0x178>
    32e8:	00400def          	jal	s11,32ec <auipc_test+0x44>
    32ec:	41be0e33          	sub	t3,t3,s11
    32f0:	ffffeeb7          	lui	t4,0xffffe
    32f4:	8f0e8e93          	addi	t4,t4,-1808 # ffffd8f0 <SSEG+0xeef3d8f0>
    32f8:	00300193          	li	gp,3
    32fc:	01de0463          	beq	t3,t4,3304 <auipc_test+0x5c>
    3300:	f29fc06f          	j	228 <fail>
    3304:	ffffd097          	auipc	ra,0xffffd
    3308:	f08080e7          	jalr	-248(ra) # 20c <update_test>
    330c:	000f8067          	jr	t6

00003310 <lui_test>:
    3310:	00000513          	li	a0,0
    3314:	00a62023          	sw	a0,0(a2)
    3318:	000000b7          	lui	ra,0x0
    331c:	00000e93          	li	t4,0
    3320:	00200193          	li	gp,2
    3324:	01d08463          	beq	ra,t4,332c <lui_test+0x1c>
    3328:	f01fc06f          	j	228 <fail>
    332c:	ffffd097          	auipc	ra,0xffffd
    3330:	ee0080e7          	jalr	-288(ra) # 20c <update_test>
    3334:	fffff0b7          	lui	ra,0xfffff
    3338:	4010d093          	srai	ra,ra,0x1
    333c:	80000e93          	li	t4,-2048
    3340:	00300193          	li	gp,3
    3344:	01d08463          	beq	ra,t4,334c <lui_test+0x3c>
    3348:	ee1fc06f          	j	228 <fail>
    334c:	ffffd097          	auipc	ra,0xffffd
    3350:	ec0080e7          	jalr	-320(ra) # 20c <update_test>
    3354:	7ffff0b7          	lui	ra,0x7ffff
    3358:	4140d093          	srai	ra,ra,0x14
    335c:	7ff00e93          	li	t4,2047
    3360:	00400193          	li	gp,4
    3364:	01d08463          	beq	ra,t4,336c <lui_test+0x5c>
    3368:	ec1fc06f          	j	228 <fail>
    336c:	ffffd097          	auipc	ra,0xffffd
    3370:	ea0080e7          	jalr	-352(ra) # 20c <update_test>
    3374:	800000b7          	lui	ra,0x80000
    3378:	4140d093          	srai	ra,ra,0x14
    337c:	80000e93          	li	t4,-2048
    3380:	00500193          	li	gp,5
    3384:	01d08463          	beq	ra,t4,338c <lui_test+0x7c>
    3388:	ea1fc06f          	j	228 <fail>
    338c:	ffffd097          	auipc	ra,0xffffd
    3390:	e80080e7          	jalr	-384(ra) # 20c <update_test>
    3394:	80000037          	lui	zero,0x80000
    3398:	00000e93          	li	t4,0
    339c:	00600193          	li	gp,6
    33a0:	01d00463          	beq	zero,t4,33a8 <lui_test+0x98>
    33a4:	e85fc06f          	j	228 <fail>
    33a8:	ffffd097          	auipc	ra,0xffffd
    33ac:	e64080e7          	jalr	-412(ra) # 20c <update_test>
    33b0:	000f8067          	jr	t6

000033b4 <jal_test>:
    33b4:	00000513          	li	a0,0
    33b8:	00a62023          	sw	a0,0(a2)
    33bc:	00200193          	li	gp,2
    33c0:	00000093          	li	ra,0
    33c4:	0100026f          	jal	tp,33d4 <target_2>

000033c8 <linkaddr_2>:
    33c8:	00000013          	nop
    33cc:	00000013          	nop
    33d0:	e59fc06f          	j	228 <fail>

000033d4 <target_2>:
    33d4:	00000117          	auipc	sp,0x0
    33d8:	ff410113          	addi	sp,sp,-12 # 33c8 <linkaddr_2>
    33dc:	00410463          	beq	sp,tp,33e4 <target_2+0x10>
    33e0:	e49fc06f          	j	228 <fail>
    33e4:	ffffd097          	auipc	ra,0xffffd
    33e8:	e28080e7          	jalr	-472(ra) # 20c <update_test>
    33ec:	00100093          	li	ra,1
    33f0:	0140006f          	j	3404 <target_2+0x30>
    33f4:	00108093          	addi	ra,ra,1
    33f8:	00108093          	addi	ra,ra,1
    33fc:	00108093          	addi	ra,ra,1
    3400:	00108093          	addi	ra,ra,1
    3404:	00108093          	addi	ra,ra,1
    3408:	00108093          	addi	ra,ra,1
    340c:	00300e93          	li	t4,3
    3410:	00300193          	li	gp,3
    3414:	01d08463          	beq	ra,t4,341c <target_2+0x48>
    3418:	e11fc06f          	j	228 <fail>
    341c:	ffffd097          	auipc	ra,0xffffd
    3420:	df0080e7          	jalr	-528(ra) # 20c <update_test>
    3424:	000f8067          	jr	t6

00003428 <jalr_test>:
    3428:	00000513          	li	a0,0
    342c:	00a62023          	sw	a0,0(a2)

00003430 <test_2a>:
    3430:	00200193          	li	gp,2
    3434:	00000293          	li	t0,0
    3438:	00000317          	auipc	t1,0x0
    343c:	01030313          	addi	t1,t1,16 # 3448 <target_2a>
    3440:	000302e7          	jalr	t0,t1

00003444 <linkaddr_2a>:
    3444:	de5fc06f          	j	228 <fail>

00003448 <target_2a>:
    3448:	00000317          	auipc	t1,0x0
    344c:	ffc30313          	addi	t1,t1,-4 # 3444 <linkaddr_2a>
    3450:	00628463          	beq	t0,t1,3458 <target_2a+0x10>
    3454:	dd5fc06f          	j	228 <fail>
    3458:	ffffd097          	auipc	ra,0xffffd
    345c:	db4080e7          	jalr	-588(ra) # 20c <update_test>
    3460:	00400193          	li	gp,4
    3464:	00000213          	li	tp,0
    3468:	00000317          	auipc	t1,0x0
    346c:	01430313          	addi	t1,t1,20 # 347c <target_2a+0x34>
    3470:	000309e7          	jalr	s3,t1
    3474:	00300463          	beq	zero,gp,347c <target_2a+0x34>
    3478:	db1fc06f          	j	228 <fail>
    347c:	00120213          	addi	tp,tp,1 # 1 <DELAY_CNT>
    3480:	00200293          	li	t0,2
    3484:	fe5212e3          	bne	tp,t0,3468 <target_2a+0x20>
    3488:	ffffd097          	auipc	ra,0xffffd
    348c:	d84080e7          	jalr	-636(ra) # 20c <update_test>
    3490:	00500193          	li	gp,5
    3494:	00000213          	li	tp,0
    3498:	00000317          	auipc	t1,0x0
    349c:	01830313          	addi	t1,t1,24 # 34b0 <target_2a+0x68>
    34a0:	00000013          	nop
    34a4:	000309e7          	jalr	s3,t1
    34a8:	00300463          	beq	zero,gp,34b0 <target_2a+0x68>
    34ac:	d7dfc06f          	j	228 <fail>
    34b0:	00120213          	addi	tp,tp,1 # 1 <DELAY_CNT>
    34b4:	00200293          	li	t0,2
    34b8:	fe5210e3          	bne	tp,t0,3498 <target_2a+0x50>
    34bc:	ffffd097          	auipc	ra,0xffffd
    34c0:	d50080e7          	jalr	-688(ra) # 20c <update_test>
    34c4:	00600193          	li	gp,6
    34c8:	00000213          	li	tp,0
    34cc:	00000317          	auipc	t1,0x0
    34d0:	01c30313          	addi	t1,t1,28 # 34e8 <target_2a+0xa0>
    34d4:	00000013          	nop
    34d8:	00000013          	nop
    34dc:	000309e7          	jalr	s3,t1
    34e0:	00300463          	beq	zero,gp,34e8 <target_2a+0xa0>
    34e4:	d45fc06f          	j	228 <fail>
    34e8:	00120213          	addi	tp,tp,1 # 1 <DELAY_CNT>
    34ec:	00200293          	li	t0,2
    34f0:	fc521ee3          	bne	tp,t0,34cc <target_2a+0x84>
    34f4:	ffffd097          	auipc	ra,0xffffd
    34f8:	d18080e7          	jalr	-744(ra) # 20c <update_test>
    34fc:	000f8067          	jr	t6

00003500 <lh_test>:
    3500:	00000513          	li	a0,0
    3504:	00a62023          	sw	a0,0(a2)
    3508:	00001097          	auipc	ra,0x1
    350c:	a5c08093          	addi	ra,ra,-1444 # 3f64 <tdat1lh>
    3510:	00009f03          	lh	t5,0(ra)
    3514:	0ff00e93          	li	t4,255
    3518:	00200193          	li	gp,2
    351c:	01df0463          	beq	t5,t4,3524 <lh_test+0x24>
    3520:	d09fc06f          	j	228 <fail>
    3524:	ffffd097          	auipc	ra,0xffffd
    3528:	ce8080e7          	jalr	-792(ra) # 20c <update_test>
    352c:	00001097          	auipc	ra,0x1
    3530:	a3808093          	addi	ra,ra,-1480 # 3f64 <tdat1lh>
    3534:	00209f03          	lh	t5,2(ra)
    3538:	f0000e93          	li	t4,-256
    353c:	00300193          	li	gp,3
    3540:	01df0463          	beq	t5,t4,3548 <lh_test+0x48>
    3544:	ce5fc06f          	j	228 <fail>
    3548:	ffffd097          	auipc	ra,0xffffd
    354c:	cc4080e7          	jalr	-828(ra) # 20c <update_test>
    3550:	00001097          	auipc	ra,0x1
    3554:	a1408093          	addi	ra,ra,-1516 # 3f64 <tdat1lh>
    3558:	00409f03          	lh	t5,4(ra)
    355c:	00001eb7          	lui	t4,0x1
    3560:	ff0e8e93          	addi	t4,t4,-16 # ff0 <sra_test+0x74>
    3564:	00400193          	li	gp,4
    3568:	01df0463          	beq	t5,t4,3570 <lh_test+0x70>
    356c:	cbdfc06f          	j	228 <fail>
    3570:	ffffd097          	auipc	ra,0xffffd
    3574:	c9c080e7          	jalr	-868(ra) # 20c <update_test>
    3578:	00001097          	auipc	ra,0x1
    357c:	9ec08093          	addi	ra,ra,-1556 # 3f64 <tdat1lh>
    3580:	00609f03          	lh	t5,6(ra)
    3584:	fffffeb7          	lui	t4,0xfffff
    3588:	00fe8e93          	addi	t4,t4,15 # fffff00f <SSEG+0xeef3f00f>
    358c:	00500193          	li	gp,5
    3590:	01df0463          	beq	t5,t4,3598 <lh_test+0x98>
    3594:	c95fc06f          	j	228 <fail>
    3598:	ffffd097          	auipc	ra,0xffffd
    359c:	c74080e7          	jalr	-908(ra) # 20c <update_test>
    35a0:	00001097          	auipc	ra,0x1
    35a4:	9ca08093          	addi	ra,ra,-1590 # 3f6a <tdat4lh>
    35a8:	ffa09f03          	lh	t5,-6(ra)
    35ac:	0ff00e93          	li	t4,255
    35b0:	00600193          	li	gp,6
    35b4:	01df0463          	beq	t5,t4,35bc <lh_test+0xbc>
    35b8:	c71fc06f          	j	228 <fail>
    35bc:	ffffd097          	auipc	ra,0xffffd
    35c0:	c50080e7          	jalr	-944(ra) # 20c <update_test>
    35c4:	00001097          	auipc	ra,0x1
    35c8:	9a608093          	addi	ra,ra,-1626 # 3f6a <tdat4lh>
    35cc:	ffc09f03          	lh	t5,-4(ra)
    35d0:	f0000e93          	li	t4,-256
    35d4:	00700193          	li	gp,7
    35d8:	01df0463          	beq	t5,t4,35e0 <lh_test+0xe0>
    35dc:	c4dfc06f          	j	228 <fail>
    35e0:	ffffd097          	auipc	ra,0xffffd
    35e4:	c2c080e7          	jalr	-980(ra) # 20c <update_test>
    35e8:	00001097          	auipc	ra,0x1
    35ec:	98208093          	addi	ra,ra,-1662 # 3f6a <tdat4lh>
    35f0:	ffe09f03          	lh	t5,-2(ra)
    35f4:	00001eb7          	lui	t4,0x1
    35f8:	ff0e8e93          	addi	t4,t4,-16 # ff0 <sra_test+0x74>
    35fc:	00800193          	li	gp,8
    3600:	01df0463          	beq	t5,t4,3608 <lh_test+0x108>
    3604:	c25fc06f          	j	228 <fail>
    3608:	ffffd097          	auipc	ra,0xffffd
    360c:	c04080e7          	jalr	-1020(ra) # 20c <update_test>
    3610:	00001097          	auipc	ra,0x1
    3614:	95a08093          	addi	ra,ra,-1702 # 3f6a <tdat4lh>
    3618:	00009f03          	lh	t5,0(ra)
    361c:	fffffeb7          	lui	t4,0xfffff
    3620:	00fe8e93          	addi	t4,t4,15 # fffff00f <SSEG+0xeef3f00f>
    3624:	00900193          	li	gp,9
    3628:	01df0463          	beq	t5,t4,3630 <lh_test+0x130>
    362c:	bfdfc06f          	j	228 <fail>
    3630:	ffffd097          	auipc	ra,0xffffd
    3634:	bdc080e7          	jalr	-1060(ra) # 20c <update_test>
    3638:	00001097          	auipc	ra,0x1
    363c:	92c08093          	addi	ra,ra,-1748 # 3f64 <tdat1lh>
    3640:	fe008093          	addi	ra,ra,-32
    3644:	02009283          	lh	t0,32(ra)
    3648:	0ff00e93          	li	t4,255
    364c:	00a00193          	li	gp,10
    3650:	01d28463          	beq	t0,t4,3658 <lh_test+0x158>
    3654:	bd5fc06f          	j	228 <fail>
    3658:	ffffd097          	auipc	ra,0xffffd
    365c:	bb4080e7          	jalr	-1100(ra) # 20c <update_test>
    3660:	00001097          	auipc	ra,0x1
    3664:	90408093          	addi	ra,ra,-1788 # 3f64 <tdat1lh>
    3668:	ffb08093          	addi	ra,ra,-5
    366c:	00709283          	lh	t0,7(ra)
    3670:	f0000e93          	li	t4,-256
    3674:	00b00193          	li	gp,11
    3678:	01d28463          	beq	t0,t4,3680 <lh_test+0x180>
    367c:	badfc06f          	j	228 <fail>
    3680:	ffffd097          	auipc	ra,0xffffd
    3684:	b8c080e7          	jalr	-1140(ra) # 20c <update_test>
    3688:	000f8067          	jr	t6

0000368c <lb_test>:
    368c:	00000513          	li	a0,0
    3690:	00a62023          	sw	a0,0(a2)
    3694:	00151513          	slli	a0,a0,0x1
    3698:	00001097          	auipc	ra,0x1
    369c:	8d408093          	addi	ra,ra,-1836 # 3f6c <tdat1lb>
    36a0:	00008f03          	lb	t5,0(ra)
    36a4:	fff00e93          	li	t4,-1
    36a8:	00200193          	li	gp,2
    36ac:	01df0463          	beq	t5,t4,36b4 <lb_test+0x28>
    36b0:	b79fc06f          	j	228 <fail>
    36b4:	ffffd097          	auipc	ra,0xffffd
    36b8:	b58080e7          	jalr	-1192(ra) # 20c <update_test>
    36bc:	00001097          	auipc	ra,0x1
    36c0:	8b008093          	addi	ra,ra,-1872 # 3f6c <tdat1lb>
    36c4:	00108f03          	lb	t5,1(ra)
    36c8:	00000e93          	li	t4,0
    36cc:	00300193          	li	gp,3
    36d0:	01df0463          	beq	t5,t4,36d8 <lb_test+0x4c>
    36d4:	b55fc06f          	j	228 <fail>
    36d8:	ffffd097          	auipc	ra,0xffffd
    36dc:	b34080e7          	jalr	-1228(ra) # 20c <update_test>
    36e0:	00001097          	auipc	ra,0x1
    36e4:	88c08093          	addi	ra,ra,-1908 # 3f6c <tdat1lb>
    36e8:	00208f03          	lb	t5,2(ra)
    36ec:	ff000e93          	li	t4,-16
    36f0:	00400193          	li	gp,4
    36f4:	01df0463          	beq	t5,t4,36fc <lb_test+0x70>
    36f8:	b31fc06f          	j	228 <fail>
    36fc:	ffffd097          	auipc	ra,0xffffd
    3700:	b10080e7          	jalr	-1264(ra) # 20c <update_test>
    3704:	00001097          	auipc	ra,0x1
    3708:	86808093          	addi	ra,ra,-1944 # 3f6c <tdat1lb>
    370c:	00308f03          	lb	t5,3(ra)
    3710:	00f00e93          	li	t4,15
    3714:	00500193          	li	gp,5
    3718:	01df0463          	beq	t5,t4,3720 <lb_test+0x94>
    371c:	b0dfc06f          	j	228 <fail>
    3720:	ffffd097          	auipc	ra,0xffffd
    3724:	aec080e7          	jalr	-1300(ra) # 20c <update_test>
    3728:	00001097          	auipc	ra,0x1
    372c:	84708093          	addi	ra,ra,-1977 # 3f6f <tdat4lb>
    3730:	ffd08f03          	lb	t5,-3(ra)
    3734:	fff00e93          	li	t4,-1
    3738:	00600193          	li	gp,6
    373c:	01df0463          	beq	t5,t4,3744 <lb_test+0xb8>
    3740:	ae9fc06f          	j	228 <fail>
    3744:	ffffd097          	auipc	ra,0xffffd
    3748:	ac8080e7          	jalr	-1336(ra) # 20c <update_test>
    374c:	00001097          	auipc	ra,0x1
    3750:	82308093          	addi	ra,ra,-2013 # 3f6f <tdat4lb>
    3754:	ffe08f03          	lb	t5,-2(ra)
    3758:	00000e93          	li	t4,0
    375c:	00700193          	li	gp,7
    3760:	01df0463          	beq	t5,t4,3768 <lb_test+0xdc>
    3764:	ac5fc06f          	j	228 <fail>
    3768:	ffffd097          	auipc	ra,0xffffd
    376c:	aa4080e7          	jalr	-1372(ra) # 20c <update_test>
    3770:	00000097          	auipc	ra,0x0
    3774:	7ff08093          	addi	ra,ra,2047 # 3f6f <tdat4lb>
    3778:	fff08f03          	lb	t5,-1(ra)
    377c:	ff000e93          	li	t4,-16
    3780:	00800193          	li	gp,8
    3784:	01df0463          	beq	t5,t4,378c <lb_test+0x100>
    3788:	aa1fc06f          	j	228 <fail>
    378c:	ffffd097          	auipc	ra,0xffffd
    3790:	a80080e7          	jalr	-1408(ra) # 20c <update_test>
    3794:	00000097          	auipc	ra,0x0
    3798:	7db08093          	addi	ra,ra,2011 # 3f6f <tdat4lb>
    379c:	00008f03          	lb	t5,0(ra)
    37a0:	00f00e93          	li	t4,15
    37a4:	00900193          	li	gp,9
    37a8:	01df0463          	beq	t5,t4,37b0 <lb_test+0x124>
    37ac:	a7dfc06f          	j	228 <fail>
    37b0:	ffffd097          	auipc	ra,0xffffd
    37b4:	a5c080e7          	jalr	-1444(ra) # 20c <update_test>
    37b8:	00000097          	auipc	ra,0x0
    37bc:	7b408093          	addi	ra,ra,1972 # 3f6c <tdat1lb>
    37c0:	fe008093          	addi	ra,ra,-32
    37c4:	02008283          	lb	t0,32(ra)
    37c8:	fff00e93          	li	t4,-1
    37cc:	00a00193          	li	gp,10
    37d0:	01d28463          	beq	t0,t4,37d8 <lb_test+0x14c>
    37d4:	a55fc06f          	j	228 <fail>
    37d8:	ffffd097          	auipc	ra,0xffffd
    37dc:	a34080e7          	jalr	-1484(ra) # 20c <update_test>
    37e0:	00000097          	auipc	ra,0x0
    37e4:	78c08093          	addi	ra,ra,1932 # 3f6c <tdat1lb>
    37e8:	ffa08093          	addi	ra,ra,-6
    37ec:	00708283          	lb	t0,7(ra)
    37f0:	00000e93          	li	t4,0
    37f4:	00b00193          	li	gp,11
    37f8:	01d28463          	beq	t0,t4,3800 <lb_test+0x174>
    37fc:	a2dfc06f          	j	228 <fail>
    3800:	ffffd097          	auipc	ra,0xffffd
    3804:	a0c080e7          	jalr	-1524(ra) # 20c <update_test>
    3808:	000f8067          	jr	t6

0000380c <lbu_test>:
    380c:	00000513          	li	a0,0
    3810:	00a62023          	sw	a0,0(a2)
    3814:	00151513          	slli	a0,a0,0x1
    3818:	00000097          	auipc	ra,0x0
    381c:	75408093          	addi	ra,ra,1876 # 3f6c <tdat1lb>
    3820:	0000cf03          	lbu	t5,0(ra)
    3824:	0ff00e93          	li	t4,255
    3828:	00200193          	li	gp,2
    382c:	01df0463          	beq	t5,t4,3834 <lbu_test+0x28>
    3830:	9f9fc06f          	j	228 <fail>
    3834:	ffffd097          	auipc	ra,0xffffd
    3838:	9d8080e7          	jalr	-1576(ra) # 20c <update_test>
    383c:	00000097          	auipc	ra,0x0
    3840:	73008093          	addi	ra,ra,1840 # 3f6c <tdat1lb>
    3844:	0010cf03          	lbu	t5,1(ra)
    3848:	00000e93          	li	t4,0
    384c:	00300193          	li	gp,3
    3850:	01df0463          	beq	t5,t4,3858 <lbu_test+0x4c>
    3854:	9d5fc06f          	j	228 <fail>
    3858:	ffffd097          	auipc	ra,0xffffd
    385c:	9b4080e7          	jalr	-1612(ra) # 20c <update_test>
    3860:	00000097          	auipc	ra,0x0
    3864:	70c08093          	addi	ra,ra,1804 # 3f6c <tdat1lb>
    3868:	0020cf03          	lbu	t5,2(ra)
    386c:	0f000e93          	li	t4,240
    3870:	00400193          	li	gp,4
    3874:	01df0463          	beq	t5,t4,387c <lbu_test+0x70>
    3878:	9b1fc06f          	j	228 <fail>
    387c:	ffffd097          	auipc	ra,0xffffd
    3880:	990080e7          	jalr	-1648(ra) # 20c <update_test>
    3884:	00000097          	auipc	ra,0x0
    3888:	6e808093          	addi	ra,ra,1768 # 3f6c <tdat1lb>
    388c:	0030cf03          	lbu	t5,3(ra)
    3890:	00f00e93          	li	t4,15
    3894:	00500193          	li	gp,5
    3898:	01df0463          	beq	t5,t4,38a0 <lbu_test+0x94>
    389c:	98dfc06f          	j	228 <fail>
    38a0:	ffffd097          	auipc	ra,0xffffd
    38a4:	96c080e7          	jalr	-1684(ra) # 20c <update_test>
    38a8:	00000097          	auipc	ra,0x0
    38ac:	6c708093          	addi	ra,ra,1735 # 3f6f <tdat4lb>
    38b0:	ffd0cf03          	lbu	t5,-3(ra)
    38b4:	0ff00e93          	li	t4,255
    38b8:	00600193          	li	gp,6
    38bc:	01df0463          	beq	t5,t4,38c4 <lbu_test+0xb8>
    38c0:	969fc06f          	j	228 <fail>
    38c4:	ffffd097          	auipc	ra,0xffffd
    38c8:	948080e7          	jalr	-1720(ra) # 20c <update_test>
    38cc:	00000097          	auipc	ra,0x0
    38d0:	6a308093          	addi	ra,ra,1699 # 3f6f <tdat4lb>
    38d4:	ffe0cf03          	lbu	t5,-2(ra)
    38d8:	00000e93          	li	t4,0
    38dc:	00700193          	li	gp,7
    38e0:	01df0463          	beq	t5,t4,38e8 <lbu_test+0xdc>
    38e4:	945fc06f          	j	228 <fail>
    38e8:	ffffd097          	auipc	ra,0xffffd
    38ec:	924080e7          	jalr	-1756(ra) # 20c <update_test>
    38f0:	00000097          	auipc	ra,0x0
    38f4:	67f08093          	addi	ra,ra,1663 # 3f6f <tdat4lb>
    38f8:	fff0cf03          	lbu	t5,-1(ra)
    38fc:	0f000e93          	li	t4,240
    3900:	00800193          	li	gp,8
    3904:	01df0463          	beq	t5,t4,390c <lbu_test+0x100>
    3908:	921fc06f          	j	228 <fail>
    390c:	ffffd097          	auipc	ra,0xffffd
    3910:	900080e7          	jalr	-1792(ra) # 20c <update_test>
    3914:	00000097          	auipc	ra,0x0
    3918:	65b08093          	addi	ra,ra,1627 # 3f6f <tdat4lb>
    391c:	0000cf03          	lbu	t5,0(ra)
    3920:	00f00e93          	li	t4,15
    3924:	00900193          	li	gp,9
    3928:	01df0463          	beq	t5,t4,3930 <lbu_test+0x124>
    392c:	8fdfc06f          	j	228 <fail>
    3930:	ffffd097          	auipc	ra,0xffffd
    3934:	8dc080e7          	jalr	-1828(ra) # 20c <update_test>
    3938:	00000097          	auipc	ra,0x0
    393c:	63408093          	addi	ra,ra,1588 # 3f6c <tdat1lb>
    3940:	fe008093          	addi	ra,ra,-32
    3944:	0200c283          	lbu	t0,32(ra)
    3948:	0ff00e93          	li	t4,255
    394c:	00a00193          	li	gp,10
    3950:	01d28463          	beq	t0,t4,3958 <lbu_test+0x14c>
    3954:	8d5fc06f          	j	228 <fail>
    3958:	ffffd097          	auipc	ra,0xffffd
    395c:	8b4080e7          	jalr	-1868(ra) # 20c <update_test>
    3960:	00000097          	auipc	ra,0x0
    3964:	60c08093          	addi	ra,ra,1548 # 3f6c <tdat1lb>
    3968:	ffa08093          	addi	ra,ra,-6
    396c:	0070c283          	lbu	t0,7(ra)
    3970:	00000e93          	li	t4,0
    3974:	00b00193          	li	gp,11
    3978:	01d28463          	beq	t0,t4,3980 <lbu_test+0x174>
    397c:	8adfc06f          	j	228 <fail>
    3980:	ffffd097          	auipc	ra,0xffffd
    3984:	88c080e7          	jalr	-1908(ra) # 20c <update_test>
    3988:	000f8067          	jr	t6

0000398c <lhu_test>:
    398c:	00000513          	li	a0,0
    3990:	00a62023          	sw	a0,0(a2)
    3994:	00151513          	slli	a0,a0,0x1
    3998:	00000097          	auipc	ra,0x0
    399c:	5cc08093          	addi	ra,ra,1484 # 3f64 <tdat1lh>
    39a0:	0000df03          	lhu	t5,0(ra)
    39a4:	0ff00e93          	li	t4,255
    39a8:	00200193          	li	gp,2
    39ac:	01df0463          	beq	t5,t4,39b4 <lhu_test+0x28>
    39b0:	879fc06f          	j	228 <fail>
    39b4:	ffffd097          	auipc	ra,0xffffd
    39b8:	858080e7          	jalr	-1960(ra) # 20c <update_test>
    39bc:	00000097          	auipc	ra,0x0
    39c0:	5a808093          	addi	ra,ra,1448 # 3f64 <tdat1lh>
    39c4:	0020df03          	lhu	t5,2(ra)
    39c8:	00010eb7          	lui	t4,0x10
    39cc:	f00e8e93          	addi	t4,t4,-256 # ff00 <__global_pointer$+0xb7dc>
    39d0:	00300193          	li	gp,3
    39d4:	01df0463          	beq	t5,t4,39dc <lhu_test+0x50>
    39d8:	851fc06f          	j	228 <fail>
    39dc:	ffffd097          	auipc	ra,0xffffd
    39e0:	830080e7          	jalr	-2000(ra) # 20c <update_test>
    39e4:	00000097          	auipc	ra,0x0
    39e8:	58008093          	addi	ra,ra,1408 # 3f64 <tdat1lh>
    39ec:	0040df03          	lhu	t5,4(ra)
    39f0:	00001eb7          	lui	t4,0x1
    39f4:	ff0e8e93          	addi	t4,t4,-16 # ff0 <sra_test+0x74>
    39f8:	00400193          	li	gp,4
    39fc:	01df0463          	beq	t5,t4,3a04 <lhu_test+0x78>
    3a00:	829fc06f          	j	228 <fail>
    3a04:	ffffd097          	auipc	ra,0xffffd
    3a08:	808080e7          	jalr	-2040(ra) # 20c <update_test>
    3a0c:	00000097          	auipc	ra,0x0
    3a10:	55808093          	addi	ra,ra,1368 # 3f64 <tdat1lh>
    3a14:	0060df03          	lhu	t5,6(ra)
    3a18:	0000feb7          	lui	t4,0xf
    3a1c:	00fe8e93          	addi	t4,t4,15 # f00f <__global_pointer$+0xa8eb>
    3a20:	00500193          	li	gp,5
    3a24:	01df0463          	beq	t5,t4,3a2c <lhu_test+0xa0>
    3a28:	801fc06f          	j	228 <fail>
    3a2c:	ffffc097          	auipc	ra,0xffffc
    3a30:	7e0080e7          	jalr	2016(ra) # 20c <update_test>
    3a34:	00000097          	auipc	ra,0x0
    3a38:	53608093          	addi	ra,ra,1334 # 3f6a <tdat4lh>
    3a3c:	ffa0df03          	lhu	t5,-6(ra)
    3a40:	0ff00e93          	li	t4,255
    3a44:	00600193          	li	gp,6
    3a48:	01df0463          	beq	t5,t4,3a50 <lhu_test+0xc4>
    3a4c:	fdcfc06f          	j	228 <fail>
    3a50:	ffffc097          	auipc	ra,0xffffc
    3a54:	7bc080e7          	jalr	1980(ra) # 20c <update_test>
    3a58:	00000097          	auipc	ra,0x0
    3a5c:	51208093          	addi	ra,ra,1298 # 3f6a <tdat4lh>
    3a60:	ffc0df03          	lhu	t5,-4(ra)
    3a64:	00010eb7          	lui	t4,0x10
    3a68:	f00e8e93          	addi	t4,t4,-256 # ff00 <__global_pointer$+0xb7dc>
    3a6c:	00700193          	li	gp,7
    3a70:	01df0463          	beq	t5,t4,3a78 <lhu_test+0xec>
    3a74:	fb4fc06f          	j	228 <fail>
    3a78:	ffffc097          	auipc	ra,0xffffc
    3a7c:	794080e7          	jalr	1940(ra) # 20c <update_test>
    3a80:	00000097          	auipc	ra,0x0
    3a84:	4ea08093          	addi	ra,ra,1258 # 3f6a <tdat4lh>
    3a88:	ffe0df03          	lhu	t5,-2(ra)
    3a8c:	00001eb7          	lui	t4,0x1
    3a90:	ff0e8e93          	addi	t4,t4,-16 # ff0 <sra_test+0x74>
    3a94:	00800193          	li	gp,8
    3a98:	01df0463          	beq	t5,t4,3aa0 <lhu_test+0x114>
    3a9c:	f8cfc06f          	j	228 <fail>
    3aa0:	ffffc097          	auipc	ra,0xffffc
    3aa4:	76c080e7          	jalr	1900(ra) # 20c <update_test>
    3aa8:	00000097          	auipc	ra,0x0
    3aac:	4c208093          	addi	ra,ra,1218 # 3f6a <tdat4lh>
    3ab0:	0000df03          	lhu	t5,0(ra)
    3ab4:	0000feb7          	lui	t4,0xf
    3ab8:	00fe8e93          	addi	t4,t4,15 # f00f <__global_pointer$+0xa8eb>
    3abc:	00900193          	li	gp,9
    3ac0:	01df0463          	beq	t5,t4,3ac8 <lhu_test+0x13c>
    3ac4:	f64fc06f          	j	228 <fail>
    3ac8:	ffffc097          	auipc	ra,0xffffc
    3acc:	744080e7          	jalr	1860(ra) # 20c <update_test>
    3ad0:	00000097          	auipc	ra,0x0
    3ad4:	49408093          	addi	ra,ra,1172 # 3f64 <tdat1lh>
    3ad8:	fe008093          	addi	ra,ra,-32
    3adc:	0200d283          	lhu	t0,32(ra)
    3ae0:	0ff00e93          	li	t4,255
    3ae4:	00a00193          	li	gp,10
    3ae8:	01d28463          	beq	t0,t4,3af0 <lhu_test+0x164>
    3aec:	f3cfc06f          	j	228 <fail>
    3af0:	ffffc097          	auipc	ra,0xffffc
    3af4:	71c080e7          	jalr	1820(ra) # 20c <update_test>
    3af8:	00000097          	auipc	ra,0x0
    3afc:	46c08093          	addi	ra,ra,1132 # 3f64 <tdat1lh>
    3b00:	ffb08093          	addi	ra,ra,-5
    3b04:	0070d283          	lhu	t0,7(ra)
    3b08:	00010eb7          	lui	t4,0x10
    3b0c:	f00e8e93          	addi	t4,t4,-256 # ff00 <__global_pointer$+0xb7dc>
    3b10:	00b00193          	li	gp,11
    3b14:	01d28463          	beq	t0,t4,3b1c <lhu_test+0x190>
    3b18:	f10fc06f          	j	228 <fail>
    3b1c:	ffffc097          	auipc	ra,0xffffc
    3b20:	6f0080e7          	jalr	1776(ra) # 20c <update_test>
    3b24:	000f8067          	jr	t6

00003b28 <sh_test>:
    3b28:	00000513          	li	a0,0
    3b2c:	00a62023          	sw	a0,0(a2)
    3b30:	00151513          	slli	a0,a0,0x1
    3b34:	00000097          	auipc	ra,0x0
    3b38:	44608093          	addi	ra,ra,1094 # 3f7a <tdat1sh>
    3b3c:	0aa00113          	li	sp,170
    3b40:	00209023          	sh	sp,0(ra)
    3b44:	00009f03          	lh	t5,0(ra)
    3b48:	0aa00e93          	li	t4,170
    3b4c:	00200193          	li	gp,2
    3b50:	01df0463          	beq	t5,t4,3b58 <sh_test+0x30>
    3b54:	ed4fc06f          	j	228 <fail>
    3b58:	ffffc097          	auipc	ra,0xffffc
    3b5c:	6b4080e7          	jalr	1716(ra) # 20c <update_test>
    3b60:	00000097          	auipc	ra,0x0
    3b64:	41a08093          	addi	ra,ra,1050 # 3f7a <tdat1sh>
    3b68:	ffffb137          	lui	sp,0xffffb
    3b6c:	a0010113          	addi	sp,sp,-1536 # ffffaa00 <SSEG+0xeef3aa00>
    3b70:	00209123          	sh	sp,2(ra)
    3b74:	00209f03          	lh	t5,2(ra)
    3b78:	ffffbeb7          	lui	t4,0xffffb
    3b7c:	a00e8e93          	addi	t4,t4,-1536 # ffffaa00 <SSEG+0xeef3aa00>
    3b80:	00300193          	li	gp,3
    3b84:	01df0463          	beq	t5,t4,3b8c <sh_test+0x64>
    3b88:	ea0fc06f          	j	228 <fail>
    3b8c:	ffffc097          	auipc	ra,0xffffc
    3b90:	680080e7          	jalr	1664(ra) # 20c <update_test>
    3b94:	00000097          	auipc	ra,0x0
    3b98:	3e608093          	addi	ra,ra,998 # 3f7a <tdat1sh>
    3b9c:	beef1137          	lui	sp,0xbeef1
    3ba0:	aa010113          	addi	sp,sp,-1376 # beef0aa0 <SSEG+0xade30aa0>
    3ba4:	00209223          	sh	sp,4(ra)
    3ba8:	00409f03          	lh	t5,4(ra)
    3bac:	00001eb7          	lui	t4,0x1
    3bb0:	aa0e8e93          	addi	t4,t4,-1376 # aa0 <sll_test+0x3c>
    3bb4:	00400193          	li	gp,4
    3bb8:	01df0463          	beq	t5,t4,3bc0 <sh_test+0x98>
    3bbc:	e6cfc06f          	j	228 <fail>
    3bc0:	ffffc097          	auipc	ra,0xffffc
    3bc4:	64c080e7          	jalr	1612(ra) # 20c <update_test>
    3bc8:	00000097          	auipc	ra,0x0
    3bcc:	3b208093          	addi	ra,ra,946 # 3f7a <tdat1sh>
    3bd0:	ffffa137          	lui	sp,0xffffa
    3bd4:	00a10113          	addi	sp,sp,10 # ffffa00a <SSEG+0xeef3a00a>
    3bd8:	00209323          	sh	sp,6(ra)
    3bdc:	00609f03          	lh	t5,6(ra)
    3be0:	ffffaeb7          	lui	t4,0xffffa
    3be4:	00ae8e93          	addi	t4,t4,10 # ffffa00a <SSEG+0xeef3a00a>
    3be8:	00500193          	li	gp,5
    3bec:	01df0463          	beq	t5,t4,3bf4 <sh_test+0xcc>
    3bf0:	e38fc06f          	j	228 <fail>
    3bf4:	ffffc097          	auipc	ra,0xffffc
    3bf8:	618080e7          	jalr	1560(ra) # 20c <update_test>
    3bfc:	00000097          	auipc	ra,0x0
    3c00:	38c08093          	addi	ra,ra,908 # 3f88 <tdat8sh>
    3c04:	0aa00113          	li	sp,170
    3c08:	fe209d23          	sh	sp,-6(ra)
    3c0c:	ffa09f03          	lh	t5,-6(ra)
    3c10:	0aa00e93          	li	t4,170
    3c14:	00600193          	li	gp,6
    3c18:	01df0463          	beq	t5,t4,3c20 <sh_test+0xf8>
    3c1c:	e0cfc06f          	j	228 <fail>
    3c20:	ffffc097          	auipc	ra,0xffffc
