
build/program.elf:     file format elf32-littleriscv

Contents of section .text.init:
 0000 17010100 130101fe 97000000 e7800001  ................
 0010 6f000000                             o...            
Contents of section .text:
 0018 37080011 b7050c11 37060811 b7480f00  7.......7....H..
 0028 93880824 1307f0ff 97000000 e780801c  ...$............
 0038 ef0f4020 97000000 e780c01b ef0f4045  ..@ ..........@E
 0048 97000000 e780001b ef0fc067 97000000  ...........g....
 0058 e780401a ef0f407a 97000000 e7808019  ..@...@z........
 0068 ef0f100d 97000000 e780c018 ef0f901f  ................
 0078 97000000 e7800018 ef0f5049 97000000  ..........PI....
 0088 e7804017 ef0f906f 97000000 e7808016  ..@....o........
 0098 ef1f001f 97000000 e780c015 ef1f8044  ...............D
 00a8 97000000 e7800015 ef1f006a 97000000  ...........j....
 00b8 e7804014 ef1f500c 97000000 e7808013  ..@...P.........
 00c8 ef1fd017 97000000 e780c012 ef1f1024  ...............$
 00d8 97000000 e7800012 ef1f9030 97000000  ...........0....
 00e8 e7804011 ef1f9050 97000000 e7808010  ..@....P........
 00f8 ef1fd073 97000000 e780c00f ef2f8018  ...s........./..
 0108 97000000 e780000f ef2f4039 97000000  ........./@9....
 0118 e780400e ef2f005a 97000000 e780800d  ..@../.Z........
 0128 ef2fc070 97000000 e780c00c ef2f500e  ./.p........./P.
 0138 97000000 e780000c ef2f5021 97000000  ........./P!....
 0148 e780400b ef2fd034 97000000 e780800a  ..@../.4........
 0158 ef2fd047 97000000 e780c009 ef2fd063  ./.G........./.c
 0168 97000000 e7800009 ef2f1077 97000000  ........./.w....
 0178 e7804008 ef3f4013 97000000 e7808007  ..@..?@.........
 0188 ef3f0019 97000000 e780c006 ef3f8022  .?...........?."
 0198 97000000 e7800006 ef3f0029 97000000  .........?.)....
 01a8 e7804005 ef3fc035 97000000 e7808004  ..@..?.5........
 01b8 ef3fc04d 97000000 e780c003 ef3f007d  .?.M.........?.}
 01c8 97000000 e7800003 ef3f4064 97000000  .........?@d....
 01d8 e7804002 ef3f5015 97000000 e7808001  ..@..?P.........
 01e8 ef3f1036 97000000 e780c000 6ff09fe3  .?.6........o...
 01f8 83260800 93f61600 e39c06fe 13071700  .&..............
 0208 23a0e500 67800000 13151500 13051500  #...g...........
 0218 2320a600 b7480f00 93880824 9388f8ff  # ...H.....$....
 0228 e39e08fe 67800000 9307f0ff 23a0f500  ....g.......#...
 0238 67800f00 13050000 2320a600 93000000  g.......# ......
 0248 13010000 338f2000 930e0000 93012000  ....3. ....... .
 0258 e31cdffd 97000000 e78040fb 93001000  ..........@.....
 0268 13011000 338f2000 930e2000 93013000  ....3. ... ...0.
 0278 e31cdffb 97000000 e78040f9 93003000  ..........@...0.
 0288 13017000 338f2000 930ea000 93014000  ..p.3. .......@.
 0298 e31cdff9 97000000 e78040f7 93000000  ..........@.....
 02a8 3781ffff 338f2000 b78effff 93015000  7...3. .......P.
 02b8 e31cdff7 97000000 e78040f5 b7000080  ..........@.....
 02c8 13010000 338f2000 b70e0080 93016000  ....3. .......`.
 02d8 e31cdff5 97000000 e78040f3 b7000080  ..........@.....
 02e8 3781ffff 338f2000 b78eff7f 93017000  7...3. .......p.
 02f8 e31cdff3 97000000 e78040f1 93000000  ..........@.....
 0308 37810000 1301f1ff 338f2000 b78e0000  7.......3. .....
 0318 938efeff 93018000 e318dff1 97000000  ................
 0328 e780c0ee b7000080 9380f0ff 13010000  ................
 0338 338f2000 b70e0080 938efeff 93019000  3. .............
 0348 e314dfef 97000000 e78040ec b7000080  ..........@.....
 0358 9380f0ff 37810000 1301f1ff 338f2000  ....7.......3. .
 0368 b78e0080 938eeeff 9301a000 e31edfeb  ................
 0378 97000000 e78080e9 b7000080 37810000  ............7...
 0388 1301f1ff 338f2000 b78e0080 938efeff  ....3. .........
 0398 9301b000 e31adfe9 97000000 e78000e7  ................
 03a8 b7000080 9380f0ff 3781ffff 338f2000  ........7...3. .
 03b8 b78eff7f 938efeff 9301c000 e316dfe7  ................
 03c8 97000000 e78080e4 93000000 1301f0ff  ................
 03d8 338f2000 930ef0ff 9301d000 e316dfe5  3. .............
 03e8 97000000 e78080e2 9300f0ff 13011000  ................
 03f8 338f2000 930e0000 9301e000 e316dfe3  3. .............
 0408 97000000 e78080e0 9300f0ff 1301f0ff  ................
 0418 338f2000 930ee0ff 9301f000 e316dfe1  3. .............
 0428 97000000 e78080de 93001000 37010080  ............7...
 0438 1301f1ff 338f2000 b70e0080 93010001  ....3. .........
 0448 e314dfdf 97000000 e78040dc 9300d000  ..........@.....
 0458 1301b000 b3802000 930e8001 93011001  ...... .........
 0468 e394d0dd 97000000 e78040da 9300e000  ..........@.....
 0478 1301b000 33812000 930e9001 93012001  ....3. ....... .
 0488 e314d1db 97000000 e78040d8 67800f00  ..........@.g...
 0498 13050000 2320a600 93000000 13010000  ....# ..........
 04a8 338f2040 930e0000 93012000 e31edfd7  3. @...... .....
 04b8 97000000 e78080d5 93001000 13011000  ................
 04c8 338f2040 930e0000 93013000 e31edfd5  3. @......0.....
 04d8 97000000 e78080d3 93003000 13017000  ..........0...p.
 04e8 338f2040 930ec0ff 93014000 e31edfd3  3. @......@.....
 04f8 97000000 e78080d1 93000000 3781ffff  ............7...
 0508 338f2040 b78e0000 93015000 e31edfd1  3. @......P.....
 0518 97000000 e78080cf b7000080 13010000  ................
 0528 338f2040 b70e0080 93016000 e31edfcf  3. @......`.....
 0538 97000000 e78080cd b7000080 3781ffff  ............7...
 0548 338f2040 b78e0080 93017000 e31edfcd  3. @......p.....
 0558 97000000 e78080cb 93000000 37810000  ............7...
 0568 1301f1ff 338f2040 b78effff 938e1e00  ....3. @........
 0578 93018000 e31adfcb 97000000 e78000c9  ................
 0588 b7000080 9380f0ff 13010000 338f2040  ............3. @
 0598 b70e0080 938efeff 93019000 e316dfc9  ................
 05a8 97000000 e78080c6 b7000080 9380f0ff  ................
 05b8 37810000 1301f1ff 338f2040 b78eff7f  7.......3. @....
 05c8 9301a000 e312dfc7 97000000 e78000c4  ................
 05d8 b7000080 37810000 1301f1ff 338f2040  ....7.......3. @
 05e8 b78eff7f 938e1e00 9301b000 e31edfc3  ................
 05f8 97000000 e78080c1 b7000080 9380f0ff  ................
 0608 3781ffff 338f2040 b78e0080 938efeff  7...3. @........
 0618 9301c000 e31adfc1 97000000 e78000bf  ................
 0628 93000000 1301f0ff 338f2040 930e1000  ........3. @....
 0638 9301d000 e31adfbf 97000000 e78000bd  ................
 0648 9300f0ff 13011000 338f2040 930ee0ff  ........3. @....
 0658 9301e000 e31adfbd 97000000 e78000bb  ................
 0668 9300f0ff 1301f0ff 338f2040 930e0000  ........3. @....
 0678 9301f000 e31adfbb 97000000 e78000b9  ................
 0688 9300d000 1301b000 b3802040 930e2000  .......... @.. .
 0698 93010001 e39ad0b9 97000000 e78000b7  ................
 06a8 9300e000 1301b000 33812040 930e3000  ........3. @..0.
 06b8 93011001 e31ad1b7 97000000 e78000b5  ................
 06c8 67800f00 13050000 2320a600 b70001ff  g.......# ......
 06d8 938000f0 37110f0f 1301f1f0 33ff2000  ....7.......3. .
 06e8 b71e000f 938e0ef0 93012000 e31edfb3  .......... .....
 06f8 97000000 e78080b1 b710f00f 938000ff  ................
 0708 37f1f0f0 1301010f 33ff2000 b70ef000  7.......3. .....
 0718 938e0e0f 93013000 e318dfb1 97000000  ......0.........
 0728 e780c0ae b700ff00 9380f00f 37110f0f  ............7...
 0738 1301f1f0 33ff2000 b70e0f00 938efe00  ....3. .........
 0748 93014000 e312dfaf 97000000 e78000ac  ..@.............
 0758 b7f00ff0 9380f000 37f1f0f0 1301010f  ........7.......
 0768 33ff2000 b7fe00f0 93015000 e31edfab  3. .......P.....
 0778 97000000 e78080a9 b70001ff 938000f0  ................
 0788 37110f0f 1301f1f0 b3f02000 b71e000f  7......... .....
 0798 938e0ef0 93016000 e398d0a9 97000000  ......`.........
 07a8 e780c0a6 b710f00f 938000ff 37f1f0f0  ............7...
 07b8 1301010f 33f12000 b70ef000 938e0e0f  ....3. .........
 07c8 93017000 e312d1a7 97000000 e78000a4  ..p.............
 07d8 b70001ff 938000f0 b3f01000 b70e01ff  ................
 07e8 938e0ef0 93018000 e390d0a5 97000000  ................
 07f8 e780c0a1 67800f00 13050000 2320a600  ....g.......# ..
 0808 b70001ff 938000f0 37110f0f 1301f1f0  ........7.......
 0818 33ef2000 b70e10ff 938efef0 93012000  3. ........... .
 0828 e314dfa1 97000000 e780409e b710f00f  ..........@.....
 0838 938000ff 37f1f0f0 1301010f 33ef2000  ....7.......3. .
 0848 b70ef1ff 938e0eff 93013000 e31edf9d  ..........0.....
 0858 97000000 e780809b b700ff00 9380f00f  ................
 0868 37110f0f 1301f1f0 33ef2000 b71eff0f  7.......3. .....
 0878 938efeff 93014000 e318df9b 97000000  ......@.........
 0888 e780c098 b7f00ff0 9380f000 37f1f0f0  ............7...
 0898 1301010f 33ef2000 b7fefff0 938efe0f  ....3. .........
 08a8 93015000 e312df99 97000000 e7800096  ..P.............
 08b8 b70001ff 938000f0 37110f0f 1301f1f0  ........7.......
 08c8 b3e02000 b70e10ff 938efef0 93016000  .. ...........`.
 08d8 e39cd095 97000000 e7804093 b70001ff  ..........@.....
 08e8 938000f0 37110f0f 1301f1f0 33e12000  ....7.......3. .
 08f8 b70e10ff 938efef0 93017000 e316d193  ..........p.....
 0908 97000000 e7808090 b70001ff 938000f0  ................
 0918 b3e01000 b70e01ff 938e0ef0 93018000  ................
 0928 e394d091 97000000 e780408e 67800f00  ..........@.g...
 0938 13050000 2320a600 b70001ff 938000f0  ....# ..........
 0948 37110f0f 1301f1f0 33cf2000 b7fe0ff0  7.......3. .....
 0958 938efe00 93012000 e318df8d 97000000  ...... .........
 0968 e780c08a b710f00f 938000ff 37f1f0f0  ............7...
 0978 1301010f 33cf2000 b70e01ff 938e0ef0  ....3. .........
 0988 93013000 e312df8b 97000000 e7800088  ..0.............
 0998 b700ff00 9380f00f 37110f0f 1301f1f0  ........7.......
 09a8 33cf2000 b71ef00f 938e0eff 93014000  3. ...........@.
 09b8 e31cdf87 97000000 e7804085 b7f00ff0  ..........@.....
 09c8 9380f000 37f1f0f0 1301010f 33cf2000  ....7.......3. .
 09d8 b70eff00 938efe0f 93015000 e316df85  ..........P.....
 09e8 97000000 e7808082 b70001ff 938000f0  ................
 09f8 37110f0f 1301f1f0 b3c02000 b7fe0ff0  7......... .....
 0a08 938efe00 93016000 e390d083 97f0ffff  ......`.........
 0a18 e780c07f b70001ff 938000f0 37110f0f  ............7...
 0a28 1301f1f0 33c12000 b7fe0ff0 938efe00  ....3. .........
 0a38 93017000 631ad1ff 97f0ffff e780007d  ..p.c..........}
 0a48 b70001ff 938000f0 b3c01000 930e0000  ................
 0a58 93018000 639ad0fd 97f0ffff e780007b  ....c..........{
 0a68 67800f00 13050000 2320a600 93001000  g.......# ......
 0a78 13010000 339f2000 930e1000 93012000  ....3. ....... .
 0a88 6314dffb 97f0ffff e7804078 93001000  c.........@x....
 0a98 13011000 339f2000 930e2000 93013000  ....3. ... ...0.
 0aa8 6314dff9 97f0ffff e7804076 93001000  c.........@v....
 0ab8 13017000 339f2000 930e0008 93014000  ..p.3. .......@.
 0ac8 6314dff7 97f0ffff e7804074 93001000  c.........@t....
 0ad8 1301e000 339f2000 b74e0000 93015000  ....3. ..N....P.
 0ae8 6314dff5 97f0ffff e7804072 93001000  c.........@r....
 0af8 1301f001 339f2000 b70e0080 93016000  ....3. .......`.
 0b08 6314dff3 97f0ffff e7804070 9300f0ff  c.........@p....
 0b18 13010000 339f2000 930ef0ff 93017000  ....3. .......p.
 0b28 6314dff1 97f0ffff e780406e 9300f0ff  c.........@n....
 0b38 13011000 339f2000 930ee0ff 93018000  ....3. .........
 0b48 6314dfef 97f0ffff e780406c 9300f0ff  c.........@l....
 0b58 13017000 339f2000 930e00f8 93019000  ..p.3. .........
 0b68 6314dfed 97f0ffff e780406a 9300f0ff  c.........@j....
 0b78 1301e000 339f2000 b7ceffff 9301a000  ....3. .........
 0b88 6314dfeb 97f0ffff e7804068 9300f0ff  c.........@h....
 0b98 1301f001 339f2000 b70e0080 9301b000  ....3. .........
 0ba8 6314dfe9 97f0ffff e7804066 b7202121  c.........@f. !!
 0bb8 93801012 13010000 339f2000 b72e2121  ........3. ...!!
 0bc8 938e1e12 9301c000 6310dfe7 97f0ffff  ........c.......
 0bd8 e780c063 b7202121 93801012 13011000  ...c. !!........
 0be8 339f2000 b74e4242 938e2e24 9301d000  3. ..NBB...$....
 0bf8 631cdfe3 97f0ffff e7804061 b7202121  c.........@a. !!
 0c08 93801012 13017000 339f2000 b79e9090  ......p.3. .....
 0c18 938e0e08 9301e000 6318dfe1 97f0ffff  ........c.......
 0c28 e780c05e b7202121 93801012 1301e000  ...^. !!........
 0c38 339f2000 b74e4848 9301f000 6316dfdf  3. ..NHH....c...
 0c48 97f0ffff e780805c b7202121 93801012  .......\. !!....
 0c58 1301f001 339f2000 b70e0080 93010001  ....3. .........
 0c68 6314dfdd 97f0ffff e780405a b7202121  c.........@Z. !!
 0c78 93801012 130100fc 339f2000 b72e2121  ........3. ...!!
 0c88 938e1e12 93011001 6310dfdb 97f0ffff  ........c.......
 0c98 e780c057 b7202121 93801012 130110fc  ...W. !!........
 0ca8 339f2000 b74e4242 938e2e24 93012001  3. ..NBB...$.. .
 0cb8 631cdfd7 97f0ffff e7804055 b7202121  c.........@U. !!
 0cc8 93801012 130170fc 339f2000 b79e9090  ......p.3. .....
 0cd8 938e0e08 93013001 6318dfd5 97f0ffff  ......0.c.......
 0ce8 e780c052 b7202121 93801012 1301e0fc  ...R. !!........
 0cf8 339f2000 b74e4848 93014001 6316dfd3  3. ..NHH..@.c...
 0d08 97f0ffff e7808050 67800f00 13050000  .......Pg.......
 0d18 2320a600 b7000080 13010000 33df2000  # ..........3. .
 0d28 b70e0080 93012000 6310dfd1 97f0ffff  ...... .c.......
 0d38 e780c04d b7000080 13011000 33df2000  ...M........3. .
 0d48 b70e0040 93013000 6310dfcf 97f0ffff  ...@..0.c.......
 0d58 e780c04b b7000080 13017000 33df2000  ...K......p.3. .
 0d68 b70e0001 93014000 6310dfcd 97f0ffff  ......@.c.......
 0d78 e780c049 b7000080 1301e000 33df2000  ...I........3. .
 0d88 b70e0200 93015000 6310dfcb 97f0ffff  ......P.c.......
 0d98 e780c047 b7000080 93801000 1301f001  ...G............
 0da8 33df2000 930e1000 93016000 631edfc7  3. .......`.c...
 0db8 97f0ffff e7808045 9300f0ff 13010000  .......E........
 0dc8 33df2000 930ef0ff 93017000 631edfc5  3. .......p.c...
 0dd8 97f0ffff e7808043 9300f0ff 13011000  .......C........
 0de8 33df2000 b70e0080 938efeff 93018000  3. .............
 0df8 631cdfc3 97f0ffff e7804041 9300f0ff  c.........@A....
 0e08 13017000 33df2000 b70e0002 938efeff  ..p.3. .........
 0e18 93019000 631adfc1 97f0ffff e780003f  ....c..........?
 0e28 9300f0ff 1301e000 33df2000 b70e0400  ........3. .....
 0e38 938efeff 9301a000 6318dfbf 97f0ffff  ........c.......
 0e48 e780c03c 9300f0ff 1301f001 33df2000  ...<........3. .
 0e58 930e1000 9301b000 6318dfbd 97f0ffff  ........c.......
 0e68 e780c03a b7202121 93801012 13010000  ...:. !!........
 0e78 33df2000 b72e2121 938e1e12 9301c000  3. ...!!........
 0e88 6314dfbb 97f0ffff e7804038 b7202121  c.........@8. !!
 0e98 93801012 13011000 33df2000 b79e9010  ........3. .....
 0ea8 938e0e09 9301d000 6310dfb9 97f0ffff  ........c.......
 0eb8 e780c035 b7202121 93801012 13017000  ...5. !!......p.
 0ec8 33df2000 b74e4200 938e2e24 9301e000  3. ..NB....$....
 0ed8 631cdfb5 97f0ffff e7804033 b7202121  c.........@3. !!
 0ee8 93801012 1301e000 33df2000 b78e0000  ........3. .....
 0ef8 938e4e48 9301f000 6318dfb3 97f0ffff  ..NH....c.......
 0f08 e780c030 b7202121 93801012 1301f001  ...0. !!........
 0f18 33df2000 930e0000 93010001 6316dfb1  3. .........c...
 0f28 97f0ffff e780802e b7202121 93801012  ......... !!....
 0f38 130100fc 33df2000 b72e2121 938e1e12  ....3. ...!!....
 0f48 93011001 6312dfaf 97f0ffff e780002c  ....c..........,
 0f58 b7202121 93801012 130110fc 33df2000  . !!........3. .
 0f68 b79e9010 938e0e09 93012001 631edfab  .......... .c...
 0f78 97f0ffff e7808029 67800f00 13050000  .......)g.......
 0f88 2320a600 b7000080 13010000 33df2040  # ..........3. @
 0f98 b70e0080 93012000 6318dfa9 97f0ffff  ...... .c.......
 0fa8 e780c026 b7000080 13011000 33df2040  ...&........3. @
 0fb8 b70e00c0 93013000 6318dfa7 97f0ffff  ......0.c.......
 0fc8 e780c024 b7000080 13017000 33df2040  ...$......p.3. @
 0fd8 b70e00ff 93014000 6318dfa5 97f0ffff  ......@.c.......
 0fe8 e780c022 b7000080 1301e000 33df2040  ..."........3. @
 0ff8 b70efeff 93015000 6318dfa3 97f0ffff  ......P.c.......
 1008 e780c020 b7000080 93801000 1301f001  ... ............
 1018 33df2040 930ef0ff 93016000 6316dfa1  3. @......`.c...
 1028 97f0ffff e780801e b7000080 9380f0ff  ................
 1038 13010000 33df2040 b70e0080 938efeff  ....3. @........
 1048 93017000 6312df9f 97f0ffff e780001c  ..p.c...........
 1058 b7000080 9380f0ff 13011000 33df2040  ............3. @
 1068 b70e0040 938efeff 93018000 631edf9b  ...@........c...
 1078 97f0ffff e7808019 b7000080 9380f0ff  ................
 1088 13017000 33df2040 b70e0001 938efeff  ..p.3. @........
 1098 93019000 631adf99 97f0ffff e7800017  ....c...........
 10a8 b7000080 9380f0ff 1301e000 33df2040  ............3. @
 10b8 b70e0200 938efeff 9301a000 6316df97  ............c...
 10c8 97f0ffff e7808014 b7000080 9380f0ff  ................
 10d8 1301f001 33df2040 930e0000 9301b000  ....3. @........
 10e8 6314df95 97f0ffff e7804012 b7808181  c.........@.....
 10f8 93801018 13010000 33df2040 b78e8181  ........3. @....
 1108 938e1e18 9301c000 6310df93 97f0ffff  ........c.......
 1118 e780c00f b7808181 93801018 13011000  ................
 1128 33df2040 b7cec0c0 938e0e0c 9301d000  3. @............
 1138 631cdf8f 97f0ffff e780400d b7808181  c.........@.....
 1148 93801018 13017000 33df2040 b70e03ff  ......p.3. @....
 1158 938e3e30 9301e000 6318df8d 97f0ffff  ..>0....c.......
 1168 e780c00a b7808181 93801018 1301e000  ................
 1178 33df2040 b70efeff 938e6e60 9301f000  3. @......n`....
 1188 6314df8b 97f0ffff e7804008 b7808181  c.........@.....
 1198 93801018 1301f001 33df2040 930ef0ff  ........3. @....
 11a8 93010001 6312df89 97f0ffff e7800006  ....c...........
 11b8 b7808181 93801018 130100fc 33df2040  ............3. @
 11c8 b78e8181 938e1e18 93011001 631edf85  ............c...
 11d8 97f0ffff e7808003 b7808181 93801018  ................
 11e8 130110fc 33df2040 b7cec0c0 938e0e0c  ....3. @........
 11f8 93012001 631adf83 97f0ffff e7800001  .. .c...........
 1208 b7808181 93801018 130170fc 33df2040  ..........p.3. @
 1218 b70e03ff 938e3e30 93013001 6316df81  ......>0..0.c...
 1228 97f0ffff e78080fe b7808181 93801018  ................
 1238 1301e0fc 33df2040 b70efeff 938e6e60  ....3. @......n`
 1248 93014001 6304df01 6fe01ffe 97f0ffff  ..@.c...o.......
 1258 e780c0fb b7808181 93801018 1301f0ff  ................
 1268 33df2040 930ef0ff 93015001 6304df01  3. @......P.c...
 1278 6fe09ffb 97f0ffff e78040f9 67800f00  o.........@.g...
 1288 13050000 2320a600 93000000 13010000  ....# ..........
 1298 33af2000 930e0000 93012000 6304df01  3. ....... .c...
 12a8 6fe09ff8 97f0ffff e78040f6 93001000  o.........@.....
 12b8 13011000 33af2000 930e0000 93013000  ....3. .......0.
 12c8 6304df01 6fe05ff6 97f0ffff e78000f4  c...o._.........
 12d8 93003000 13017000 33af2000 930e1000  ..0...p.3. .....
 12e8 93014000 6304df01 6fe01ff4 97f0ffff  ..@.c...o.......
 12f8 e780c0f1 93007000 13013000 33af2000  ......p...0.3. .
 1308 930e0000 93015000 6304df01 6fe0dff1  ......P.c...o...
 1318 97f0ffff e78080ef 93000000 3781ffff  ............7...
 1328 33af2000 930e0000 93016000 6304df01  3. .......`.c...
 1338 6fe09fef 97f0ffff e78040ed b7000080  o.........@.....
 1348 13010000 33af2000 930e1000 93017000  ....3. .......p.
 1358 6304df01 6fe05fed 97f0ffff e78000eb  c...o._.........
 1368 b7000080 3781ffff 33af2000 930e1000  ....7...3. .....
 1378 93018000 6304df01 6fe01feb 97f0ffff  ....c...o.......
 1388 e780c0e8 93000000 37810000 1301f1ff  ........7.......
 1398 33af2000 930e1000 93019000 6304df01  3. .........c...
 13a8 6fe09fe8 97f0ffff e78040e6 b7000080  o.........@.....
 13b8 9380f0ff 13010000 33af2000 930e0000  ........3. .....
 13c8 9301a000 6304df01 6fe01fe6 97f0ffff  ....c...o.......
 13d8 e780c0e3 b7000080 9380f0ff 37810000  ............7...
 13e8 1301f1ff 33af2000 930e0000 9301b000  ....3. .........
 13f8 6304df01 6fe05fe3 97f0ffff e78000e1  c...o._.........
 1408 b7000080 37810000 1301f1ff 33af2000  ....7.......3. .
 1418 930e1000 9301c000 6304df01 6fe0dfe0  ........c...o...
 1428 97f0ffff e78080de b7000080 9380f0ff  ................
 1438 3781ffff 33af2000 930e0000 9301d000  7...3. .........
 1448 6304df01 6fe05fde 97f0ffff e78000dc  c...o._.........
 1458 93000000 1301f0ff 33af2000 930e0000  ........3. .....
 1468 9301e000 6304df01 6fe01fdc 97f0ffff  ....c...o.......
 1478 e780c0d9 9300f0ff 13011000 33af2000  ............3. .
 1488 930e1000 9301f000 6304df01 6fe0dfd9  ........c...o...
 1498 97f0ffff e78080d7 9300f0ff 1301f0ff  ................
 14a8 33af2000 930e0000 93010001 6304df01  3. .........c...
 14b8 6fe09fd7 97f0ffff e78040d5 9300e000  o.........@.....
 14c8 1301d000 b3a02000 930e0000 93011001  ...... .........
 14d8 6384d001 6fe05fd5 97f0ffff e78000d3  c...o._.........
 14e8 67800f00 13050000 2320a600 93000000  g.......# ......
 14f8 13010000 33bf2000 930e0000 93012000  ....3. ....... .
 1508 6304df01 6fe05fd2 97f0ffff e78000d0  c...o._.........
 1518 93001000 13011000 33bf2000 930e0000  ........3. .....
 1528 93013000 6304df01 6fe01fd0 97f0ffff  ..0.c...o.......
 1538 e780c0cd 93003000 13017000 33bf2000  ......0...p.3. .
 1548 930e1000 93014000 6304df01 6fe0dfcd  ......@.c...o...
 1558 97f0ffff e78080cb 93007000 13013000  ..........p...0.
 1568 33bf2000 930e0000 93015000 6304df01  3. .......P.c...
 1578 6fe09fcb 97f0ffff e78040c9 93000000  o.........@.....
 1588 3781ffff 33bf2000 930e1000 93016000  7...3. .......`.
 1598 6304df01 6fe05fc9 97f0ffff e78000c7  c...o._.........
 15a8 b7000080 13010000 33bf2000 930e0000  ........3. .....
 15b8 93017000 6304df01 6fe01fc7 97f0ffff  ..p.c...o.......
 15c8 e780c0c4 b7000080 3781ffff 33bf2000  ........7...3. .
 15d8 930e1000 93018000 6304df01 6fe0dfc4  ........c...o...
 15e8 97f0ffff e78080c2 93000000 37810000  ............7...
 15f8 1301f1ff 33bf2000 930e1000 93019000  ....3. .........
 1608 6304df01 6fe05fc2 97f0ffff e78000c0  c...o._.........
 1618 b7000080 9380f0ff 13010000 33bf2000  ............3. .
 1628 930e0000 9301a000 6304df01 6fe0dfbf  ........c...o...
 1638 97f0ffff e78080bd b7000080 9380f0ff  ................
 1648 37810000 1301f1ff 33bf2000 930e0000  7.......3. .....
 1658 9301b000 6304df01 6fe01fbd 97f0ffff  ....c...o.......
 1668 e780c0ba b7000080 37810000 1301f1ff  ........7.......
 1678 33bf2000 930e0000 9301c000 6304df01  3. .........c...
 1688 6fe09fba 97f0ffff e78040b8 b7000080  o.........@.....
 1698 9380f0ff 3781ffff 33bf2000 930e1000  ....7...3. .....
 16a8 9301d000 6304df01 6fe01fb8 97f0ffff  ....c...o.......
 16b8 e780c0b5 93000000 1301f0ff 33bf2000  ............3. .
 16c8 930e1000 9301e000 6304df01 6fe0dfb5  ........c...o...
 16d8 97f0ffff e78080b3 9300f0ff 13011000  ................
 16e8 33bf2000 930e0000 9301f000 6304df01  3. .........c...
 16f8 6fe09fb3 97f0ffff e78040b1 9300f0ff  o.........@.....
 1708 1301f0ff 33bf2000 930e0000 93010001  ....3. .........
 1718 6304df01 6fe05fb1 97f0ffff e78000af  c...o._.........
 1728 9300e000 1301d000 b3b02000 930e0000  .......... .....
 1738 93011001 6384d001 6fe01faf 97f0ffff  ....c...o.......
 1748 e780c0ac 67800f00 13050000 2320a600  ....g.......# ..
 1758 93000000 138f0000 930e0000 93012000  .............. .
 1768 6304df01 6fe05fac 97f0ffff e78000aa  c...o._.........
 1778 93001000 138f1000 930e2000 93013000  .......... ...0.
 1788 6304df01 6fe05faa 97f0ffff e78000a8  c...o._.........
 1798 93003000 138f7000 930ea000 93014000  ..0...p.......@.
 17a8 6304df01 6fe05fa8 97f0ffff e78000a6  c...o._.........
 17b8 93000000 138f0080 930e0080 93015000  ..............P.
 17c8 6304df01 6fe05fa6 97f0ffff e78000a4  c...o._.........
 17d8 b7000080 138f0000 b70e0080 93016000  ..............`.
 17e8 6304df01 6fe05fa4 97f0ffff e78000a2  c...o._.........
 17f8 b7000080 138f0080 b70e0080 938e0e80  ................
 1808 93017000 6304df01 6fe01fa2 97f0ffff  ..p.c...o.......
 1818 e780c09f 93000000 138ff07f 930ef07f  ................
 1828 93018000 6304df01 6fe01fa0 97f0ffff  ....c...o.......
 1838 e780c09d b7000080 9380f0ff 138f0000  ................
 1848 b70e0080 938efeff 93019000 6304df01  ............c...
 1858 6fe09f9d 97f0ffff e780409b b7000080  o.........@.....
 1868 9380f0ff 138ff07f b70e0080 938eee7f  ................
 1878 9301a000 6304df01 6fe01f9b 97f0ffff  ....c...o.......
 1888 e780c098 b7000080 138ff07f b70e0080  ................
 1898 938efe7f 9301b000 6304df01 6fe0df98  ........c...o...
 18a8 97f0ffff e7808096 b7000080 9380f0ff  ................
 18b8 138f0080 b7feff7f 938efe7f 9301c000  ................
 18c8 6304df01 6fe05f96 97f0ffff e7800094  c...o._.........
 18d8 93000000 138ff0ff 930ef0ff 9301d000  ................
 18e8 6304df01 6fe05f94 97f0ffff e7800092  c...o._.........
 18f8 9300f0ff 138f1000 930e0000 9301e000  ................
 1908 6304df01 6fe05f92 97f0ffff e7800090  c...o._.........
 1918 9300f0ff 138ff0ff 930ee0ff 9301f000  ................
 1928 6304df01 6fe05f90 97f0ffff e780008e  c...o._.........
 1938 b7000080 9380f0ff 138f1000 b70e0080  ................
 1948 93010001 6304df01 6fe01f8e 97f0ffff  ....c...o.......
 1958 e780c08b 9300d000 9380b000 930e8001  ................
 1968 93011001 6384d001 6fe01f8c 97f0ffff  ....c...o.......
 1978 e780c089 67800f00 13050000 2320a600  ....g.......# ..
 1988 b70001ff 938000f0 13fff0f0 b70e01ff  ................
 1998 938e0ef0 93012000 6304df01 6fe0df88  ...... .c...o...
 19a8 97f0ffff e7808086 b710f00f 938000ff  ................
 19b8 13ff000f 930e000f 93013000 6304df01  ..........0.c...
 19c8 6fe09f86 97f0ffff e7804084 b700ff00  o.........@.....
 19d8 9380f00f 13fff070 930ef000 93014000  .......p......@.
 19e8 6304df01 6fe05f84 97f0ffff e7800082  c...o._.........
 19f8 b7f00ff0 9380f000 13ff000f 930e0000  ................
 1a08 93015000 6304df01 6fe01f82 97e0ffff  ..P.c...o.......
 1a18 e780c07f b70001ff 938000f0 93f0000f  ................
 1a28 930e0000 93016000 6384d001 6fe0cfff  ......`.c...o...
 1a38 97e0ffff e780807d 67800f00 13050000  .......}g.......
 1a48 2320a600 b70001ff 938000f0 13eff0f0  # ..............
 1a58 930ef0f0 93012000 6304df01 6fe0cffc  ...... .c...o...
 1a68 97e0ffff e780807a b710f00f 938000ff  .......z........
 1a78 13ef000f b71ef00f 938e0eff 93013000  ..............0.
 1a88 6304df01 6fe04ffa 97e0ffff e7800078  c...o.O........x
 1a98 b700ff00 9380f00f 13eff070 b70eff00  ...........p....
 1aa8 938efe7f 93014000 6304df01 6fe0cff7  ......@.c...o...
 1ab8 97e0ffff e7808075 b7f00ff0 9380f000  .......u........
 1ac8 13ef000f b7fe0ff0 938efe0f 93015000  ..............P.
 1ad8 6304df01 6fe04ff5 97e0ffff e7800073  c...o.O........s
 1ae8 b70001ff 938000f0 93e0000f b70e01ff  ................
 1af8 938e0eff 93016000 6384d001 6fe0cff2  ......`.c...o...
 1b08 97e0ffff e7808070 67800f00 13050000  .......pg.......
 1b18 2320a600 b710ff00 938000f0 13cff0f0  # ..............
 1b28 b7fe00ff 938efe00 93012000 6304df01  .......... .c...
 1b38 6fe08fef 97e0ffff e780406d b710f00f  o.........@m....
 1b48 938000ff 13cf000f b71ef00f 938e0ef0  ................
 1b58 93013000 6304df01 6fe00fed 97e0ffff  ..0.c...o.......
 1b68 e780c06a b710ff00 9380f08f 13cff070  ...j...........p
 1b78 b71eff00 938e0eff 93014000 6304df01  ..........@.c...
 1b88 6fe08fea 97e0ffff e7804068 b7f00ff0  o.........@h....
 1b98 9380f000 13cf000f b7fe0ff0 938efe0f  ................
 1ba8 93015000 6304df01 6fe00fe8 97e0ffff  ..P.c...o.......
 1bb8 e780c065 b7f000ff 93800070 93c0f070  ...e.......p...p
 1bc8 b7fe00ff 938efe00 93016000 6384d001  ..........`.c...
 1bd8 6fe08fe5 97e0ffff e7804063 67800f00  o.........@cg...
 1be8 13050000 2320a600 93001000 139f0000  ....# ..........
 1bf8 930e1000 93012000 6304df01 6fe0cfe2  ...... .c...o...
 1c08 97e0ffff e7808060 93001000 139f1000  .......`........
 1c18 930e2000 93013000 6304df01 6fe0cfe0  .. ...0.c...o...
 1c28 97e0ffff e780805e 93001000 139f7000  .......^......p.
 1c38 930e0008 93014000 6304df01 6fe0cfde  ......@.c...o...
 1c48 97e0ffff e780805c 93001000 139fe000  .......\........
 1c58 b74e0000 93015000 6304df01 6fe0cfdc  .N....P.c...o...
 1c68 97e0ffff e780805a 93001000 139ff001  .......Z........
 1c78 b70e0080 93016000 6304df01 6fe0cfda  ......`.c...o...
 1c88 97e0ffff e7808058 9300f0ff 139f0000  .......X........
 1c98 930ef0ff 93017000 6304df01 6fe0cfd8  ......p.c...o...
 1ca8 97e0ffff e7808056 9300f0ff 139f1000  .......V........
 1cb8 930ee0ff 93018000 6304df01 6fe0cfd6  ........c...o...
 1cc8 97e0ffff e7808054 9300f0ff 139f7000  .......T......p.
 1cd8 930e00f8 93019000 6304df01 6fe0cfd4  ........c...o...
 1ce8 97e0ffff e7808052 9300f0ff 139fe000  .......R........
 1cf8 b7ceffff 9301a000 6304df01 6fe0cfd2  ........c...o...
 1d08 97e0ffff e7808050 9300f0ff 139ff001  .......P........
 1d18 b70e0080 9301b000 6304df01 6fe0cfd0  ........c...o...
 1d28 97e0ffff e780804e b7202121 93801012  .......N. !!....
 1d38 139f0000 b72e2121 938e1e12 9301c000  ......!!........
 1d48 6304df01 6fe04fce 97e0ffff e780004c  c...o.O........L
 1d58 b7202121 93801012 139f1000 b74e4242  . !!.........NBB
 1d68 938e2e24 9301d000 6304df01 6fe0cfcb  ...$....c...o...
 1d78 97e0ffff e7808049 b7202121 93801012  .......I. !!....
 1d88 139f7000 b79e9090 938e0e08 9301e000  ..p.............
 1d98 6304df01 6fe04fc9 97e0ffff e7800047  c...o.O........G
 1da8 b7202121 93801012 139fe000 b74e4848  . !!.........NHH
 1db8 9301f000 6304df01 6fe00fc7 97e0ffff  ....c...o.......
 1dc8 e780c044 b7202121 93801012 139ff001  ...D. !!........
 1dd8 b70e0080 93010001 6304df01 6fe0cfc4  ........c...o...
 1de8 97e0ffff e7808042 67800f00 13050000  .......Bg.......
 1df8 2320a600 b7000080 13df0000 b70e0080  # ..............
 1e08 93012000 6304df01 6fe00fc2 97e0ffff  .. .c...o.......
 1e18 e780c03f b7000080 13df1000 b70e0040  ...?...........@
 1e28 93013000 6304df01 6fe00fc0 97e0ffff  ..0.c...o.......
 1e38 e780c03d b7000080 13df7000 b70e0001  ...=......p.....
 1e48 93014000 6304df01 6fe00fbe 97e0ffff  ..@.c...o.......
 1e58 e780c03b b7000080 13dfe000 b70e0200  ...;............
 1e68 93015000 6304df01 6fe00fbc 97e0ffff  ..P.c...o.......
 1e78 e780c039 b7000080 93801000 13dff001  ...9............
 1e88 930e1000 93016000 6304df01 6fe0cfb9  ......`.c...o...
 1e98 97e0ffff e7808037 9300f0ff 13df0000  .......7........
 1ea8 930ef0ff 93017000 6304df01 6fe0cfb7  ......p.c...o...
 1eb8 97e0ffff e7808035 9300f0ff 13df1000  .......5........
 1ec8 b70e0080 938efeff 93018000 6304df01  ............c...
 1ed8 6fe08fb5 97e0ffff e7804033 9300f0ff  o.........@3....
 1ee8 13df7000 b70e0002 938efeff 93019000  ..p.............
 1ef8 6304df01 6fe04fb3 97e0ffff e7800031  c...o.O........1
 1f08 9300f0ff 13dfe000 b70e0400 938efeff  ................
 1f18 9301a000 6304df01 6fe00fb1 97e0ffff  ....c...o.......
 1f28 e780c02e 9300f0ff 13dff001 930e1000  ................
 1f38 9301b000 6304df01 6fe00faf 97e0ffff  ....c...o.......
 1f48 e780c02c b7202121 93801012 13df0000  ...,. !!........
 1f58 b72e2121 938e1e12 9301c000 6304df01  ..!!........c...
 1f68 6fe08fac 97e0ffff e780402a b7202121  o.........@*. !!
 1f78 93801012 13df1000 b79e9010 938e0e09  ................
 1f88 9301d000 6304df01 6fe00faa 97e0ffff  ....c...o.......
 1f98 e780c027 b7202121 93801012 13df7000  ...'. !!......p.
 1fa8 b74e4200 938e2e24 9301e000 6304df01  .NB....$....c...
 1fb8 6fe08fa7 97e0ffff e7804025 b7202121  o.........@%. !!
 1fc8 93801012 13dfe000 b78e0000 938e4e48  ..............NH
 1fd8 9301f000 6304df01 6fe00fa5 97e0ffff  ....c...o.......
 1fe8 e780c022 b7202121 93801012 13dff001  ...". !!........
 1ff8 930e0000 93010001 6304df01 6fe0cfa2  ........c...o...
 2008 97e0ffff e7808020 b7000080 93d07000  ....... ......p.
 2018 b70e0001 93011001 6384d001 6fe0cfa0  ........c...o...
 2028 97e0ffff e780801e 67800f00 13050000  ........g.......
 2038 2320a600 93000000 13df0040 930e0000  # .........@....
 2048 93012000 6304df01 6fe00f9e 97e0ffff  .. .c...o.......
 2058 e780c01b b7000080 13df1040 b70e00c0  ...........@....
 2068 93013000 6304df01 6fe00f9c 97e0ffff  ..0.c...o.......
 2078 e780c019 b7000080 13df7040 b70e00ff  ..........p@....
 2088 93014000 6304df01 6fe00f9a 97e0ffff  ..@.c...o.......
 2098 e780c017 b7000080 13dfe040 b70efeff  ...........@....
 20a8 93015000 6304df01 6fe00f98 97e0ffff  ..P.c...o.......
 20b8 e780c015 b7000080 93801000 13dff041  ...............A
 20c8 930ef0ff 93016000 6304df01 6fe0cf95  ......`.c...o...
 20d8 97e0ffff e7808013 b7000080 9380f0ff  ................
 20e8 13df0040 b70e0080 938efeff 93017000  ...@..........p.
 20f8 6304df01 6fe04f93 97e0ffff e7800011  c...o.O.........
 2108 b7000080 9380f0ff 13df1040 b70e0040  ...........@...@
 2118 938efeff 93018000 6304df01 6fe0cf90  ........c...o...
 2128 97e0ffff e780800e b7000080 9380f0ff  ................
 2138 13df7040 b70e0001 938efeff 93019000  ..p@............
 2148 6304df01 6fe04f8e 97e0ffff e780000c  c...o.O.........
 2158 b7000080 9380f0ff 13dfe040 b70e0200  ...........@....
 2168 938efeff 9301a000 6304df01 6fe0cf8b  ........c...o...
 2178 97e0ffff e7808009 b7000080 9380f0ff  ................
 2188 13dff041 930e0000 9301b000 6304df01  ...A........c...
 2198 6fe08f89 97e0ffff e7804007 b7808181  o.........@.....
 21a8 93801018 13df0040 b78e8181 938e1e18  .......@........
 21b8 9301c000 6304df01 6fe00f87 97e0ffff  ....c...o.......
 21c8 e780c004 b7808181 93801018 13df1040  ...............@
 21d8 b7cec0c0 938e0e0c 9301d000 6304df01  ............c...
 21e8 6fe08f84 97e0ffff e7804002 b7808181  o.........@.....
 21f8 93801018 13df7040 b70e03ff 938e3e30  ......p@......>0
 2208 9301e000 6304df01 6fe00f82 97e0ffff  ....c...o.......
 2218 e780c0ff b7808181 93801018 13dfe040  ...............@
 2228 b70efeff 938e6e60 9301f000 6304df01  ......n`....c...
 2238 6fd09fff 97e0ffff e78040fd b7808181  o.........@.....
 2248 93801018 13dff041 930ef0ff 93010001  .......A........
 2258 6304df01 6fd05ffd 97e0ffff e78000fb  c...o._.........
 2268 b7000080 93d07040 b70e00ff 93011001  ......p@........
 2278 6384d001 6fd05ffb 97e0ffff e78000f9  c...o._.........
 2288 67800f00 13050000 2320a600 93000000  g.......# ......
 2298 13bf0000 930e0000 93012000 6304df01  .......... .c...
 22a8 6fd09ff8 97e0ffff e78040f6 93001000  o.........@.....
 22b8 13bf1000 930e0000 93013000 6304df01  ..........0.c...
 22c8 6fd09ff6 97e0ffff e78040f4 93003000  o.........@...0.
 22d8 13bf7000 930e1000 93014000 6304df01  ..p.......@.c...
 22e8 6fd09ff4 97e0ffff e78040f2 93007000  o.........@...p.
 22f8 13bf3000 930e0000 93015000 6304df01  ..0.......P.c...
 2308 6fd09ff2 97e0ffff e78040f0 93000000  o.........@.....
 2318 13bf0080 930e1000 93016000 6304df01  ..........`.c...
 2328 6fd09ff0 97e0ffff e78040ee b7000080  o.........@.....
 2338 13bf0000 930e0000 93017000 6304df01  ..........p.c...
 2348 6fd09fee 97e0ffff e78040ec b7000080  o.........@.....
 2358 13bf0080 930e1000 93018000 6304df01  ............c...
 2368 6fd09fec 97e0ffff e78040ea 93000000  o.........@.....
 2378 13bff07f 930e1000 93019000 6304df01  ............c...
 2388 6fd09fea 97e0ffff e78040e8 b7000080  o.........@.....
 2398 9380f0ff 13bf0000 930e0000 9301a000  ................
 23a8 6304df01 6fd05fe8 97e0ffff e78000e6  c...o._.........
 23b8 b7000080 9380f0ff 13bff07f 930e0000  ................
 23c8 9301b000 6304df01 6fd01fe6 97e0ffff  ....c...o.......
 23d8 e780c0e3 b7000080 13bff07f 930e0000  ................
 23e8 9301c000 6304df01 6fd01fe4 97e0ffff  ....c...o.......
 23f8 e780c0e1 b7000080 9380f0ff 13bf0080  ................
 2408 930e1000 9301d000 6304df01 6fd0dfe1  ........c...o...
 2418 97e0ffff e78080df 93000000 13bff0ff  ................
 2428 930e1000 9301e000 6304df01 6fd0dfdf  ........c...o...
 2438 97e0ffff e78080dd 9300f0ff 13bf1000  ................
 2448 930e0000 9301f000 6304df01 6fd0dfdd  ........c...o...
 2458 97e0ffff e78080db 9300f0ff 13bff0ff  ................
 2468 930e0000 93010001 6304df01 6fd0dfdb  ........c...o...
 2478 97e0ffff e78080d9 9300b000 93b0d000  ................
 2488 930e1000 93011001 6384d001 6fd0dfd9  ........c...o...
 2498 97e0ffff e78080d7 67800f00 13050000  ........g.......
 24a8 2320a600 93000000 13af0000 930e0000  # ..............
 24b8 93012000 6304df01 6fd01fd7 97e0ffff  .. .c...o.......
 24c8 e780c0d4 93001000 13af1000 930e0000  ................
 24d8 93013000 6304df01 6fd01fd5 97e0ffff  ..0.c...o.......
 24e8 e780c0d2 93003000 13af7000 930e1000  ......0...p.....
 24f8 93014000 6304df01 6fd01fd3 97e0ffff  ..@.c...o.......
 2508 e780c0d0 93007000 13af3000 930e0000  ......p...0.....
 2518 93015000 6304df01 6fd01fd1 97e0ffff  ..P.c...o.......
 2528 e780c0ce 93000000 13af0080 930e0000  ................
 2538 93016000 6304df01 6fd01fcf 97e0ffff  ..`.c...o.......
 2548 e780c0cc b7000080 13af0000 930e1000  ................
 2558 93017000 6304df01 6fd01fcd 97e0ffff  ..p.c...o.......
 2568 e780c0ca b7000080 13af0080 930e1000  ................
 2578 93018000 6304df01 6fd01fcb 97e0ffff  ....c...o.......
 2588 e780c0c8 93000000 13aff07f 930e1000  ................
 2598 93019000 6304df01 6fd01fc9 97e0ffff  ....c...o.......
 25a8 e780c0c6 b7000080 9380f0ff 13af0000  ................
 25b8 930e0000 9301a000 6304df01 6fd0dfc6  ........c...o...
 25c8 97e0ffff e78080c4 b7000080 9380f0ff  ................
 25d8 13aff07f 930e0000 9301b000 6304df01  ............c...
 25e8 6fd09fc4 97e0ffff e78040c2 b7000080  o.........@.....
 25f8 13aff07f 930e1000 9301c000 6304df01  ............c...
 2608 6fd09fc2 97e0ffff e78040c0 b7000080  o.........@.....
 2618 9380f0ff 13af0080 930e0000 9301d000  ................
 2628 6304df01 6fd05fc0 97e0ffff e78000be  c...o._.........
 2638 93000000 13aff0ff 930e0000 9301e000  ................
 2648 6304df01 6fd05fbe 97e0ffff e78000bc  c...o._.........
 2658 9300f0ff 13af1000 930e1000 9301f000  ................
 2668 6304df01 6fd05fbc 97e0ffff e78000ba  c...o._.........
 2678 9300f0ff 13aff0ff 930e0000 93010001  ................
 2688 6304df01 6fd05fba 97e0ffff e78000b8  c...o._.........
 2698 9300b000 93a0d000 930e1000 93011001  ................
 26a8 6384d001 6fd05fb8 97e0ffff e78000b6  c...o._.........
 26b8 67800f00 13050000 2320a600 97200000  g.......# ... ..
 26c8 9380c086 03af0000 b70eff00 938efe0f  ................
 26d8 93012000 6304df01 6fd01fb5 97e0ffff  .. .c...o.......
 26e8 e780c0b2 97200000 93804084 03af4000  ..... ....@...@.
 26f8 b70e01ff 938e0ef0 93013000 6304df01  ..........0.c...
 2708 6fd09fb2 97e0ffff e78040b0 97200000  o.........@.. ..
 2718 9380c081 03af8000 b71ef00f 938e0eff  ................
 2728 93014000 6304df01 6fd01fb0 97e0ffff  ..@.c...o.......
 2738 e780c0ad 97100000 9380407f 03afc000  ..........@.....
 2748 b7fe0ff0 938efe00 93015000 6304df01  ..........P.c...
 2758 6fd09fad 97e0ffff e78040ab 97100000  o.........@.....
 2768 9380807d 03af40ff b70eff00 938efe0f  ...}..@.........
 2778 93016000 6304df01 6fd01fab 97e0ffff  ..`.c...o.......
 2788 e780c0a8 97100000 9380007b 03af80ff  ...........{....
 2798 b70e01ff 938e0ef0 93017000 6304df01  ..........p.c...
 27a8 6fd09fa8 97e0ffff e78040a6 97100000  o.........@.....
 27b8 93808078 03afc0ff b71ef00f 938e0eff  ...x............
 27c8 93018000 6304df01 6fd01fa6 97e0ffff  ....c...o.......
 27d8 e780c0a3 97100000 93800076 03af0000  ...........v....
 27e8 b7fe0ff0 938efe00 93019000 6304df01  ............c...
 27f8 6fd09fa3 97e0ffff e78040a1 97100000  o.........@.....
 2808 9380c072 938000fe 83a20002 b70eff00  ...r............
 2818 938efe0f 9301a000 6384d201 6fd0dfa0  ........c...o...
 2828 97e0ffff e780809e 67800f00 13050000  ........g.......
 2838 2320a600 97100000 93804070 3701aa00  # ........@p7...
 2848 1301a10a 23a02000 03af0000 b70eaa00  ....#. .........
 2858 938eae0a 93012000 6304df01 6fd0df9c  ...... .c...o...
 2868 97e0ffff e780809a 97100000 9380006d  ...............m
 2878 37b100aa 130101a0 23a22000 03af4000  7.......#. ...@.
 2888 b7be00aa 938e0ea0 93013000 6304df01  ..........0.c...
 2898 6fd09f99 97e0ffff e7804097 97100000  o.........@.....
 28a8 9380c069 3711a00a 130101aa 23a42000  ...i7.......#. .
 28b8 03af8000 b71ea00a 938e0eaa 93014000  ..............@.
 28c8 6304df01 6fd05f96 97e0ffff e7800094  c...o._.........
 28d8 97100000 93808066 37a10aa0 1301a100  .......f7.......
 28e8 23a62000 03afc000 b7ae0aa0 938eae00  #. .............
 28f8 93015000 6304df01 6fd01f93 97e0ffff  ..P.c...o.......
 2908 e780c090 97100000 93800065 3701aa00  ...........e7...
 2918 1301a10a 23aa20fe 03af40ff b70eaa00  ....#. ...@.....
 2928 938eae0a 93016000 6304df01 6fd0df8f  ......`.c...o...
 2938 97e0ffff e780808d 97100000 9380c061  ...............a
 2948 37b100aa 130101a0 23ac20fe 03af80ff  7.......#. .....
 2958 b7be00aa 938e0ea0 93017000 6304df01  ..........p.c...
 2968 6fd09f8c 97e0ffff e780408a 97100000  o.........@.....
 2978 9380805e 3711a00a 130101aa 23ae20fe  ...^7.......#. .
 2988 03afc0ff b71ea00a 938e0eaa 93018000  ................
 2998 6304df01 6fd05f89 97e0ffff e7800087  c...o._.........
 29a8 97100000 9380405b 37a10aa0 1301a100  ......@[7.......
 29b8 23a02000 03af0000 b7ae0aa0 938eae00  #. .............
 29c8 93019000 6304df01 6fd01f86 97e0ffff  ....c...o.......
 29d8 e780c083 97100000 93804058 37513412  ..........@X7Q4.
 29e8 13018167 138200fe 23202202 83a20000  ...g....# ".....
 29f8 b75e3412 938e8e67 9301a000 6384d201  .^4....g....c...
 2a08 6fd09f82 97e0ffff e7804080 67800f00  o.........@.g...
 2a18 13050000 2320a600 93012000 93000000  ....# .... .....
 2a28 13010000 63882000 63043000 6fd0cfff  ....c. .c.0.o...
 2a38 63183000 e38e20fe 63043000 6fd0cffe  c.0... .c.0.o...
 2a48 97d0ffff e780807c 93013000 93001000  .......|..0.....
 2a58 13011000 63882000 63043000 6fd0cffc  ....c. .c.0.o...
 2a68 63183000 e38e20fe 63043000 6fd0cffb  c.0... .c.0.o...
 2a78 97d0ffff e7808079 93014000 9300f0ff  .......y..@.....
 2a88 1301f0ff 63882000 63043000 6fd0cff9  ....c. .c.0.o...
 2a98 63183000 e38e20fe 63043000 6fd0cff8  c.0... .c.0.o...
 2aa8 97d0ffff e7808076 93015000 93000000  .......v..P.....
 2ab8 13011000 63842000 63163000 63043000  ....c. .c.0.c.0.
 2ac8 6fd08ff6 e38c20fe 97d0ffff e7800074  o..... ........t
 2ad8 93016000 93001000 13010000 63842000  ..`.........c. .
 2ae8 63163000 63043000 6fd00ff4 e38c20fe  c.0.c.0.o..... .
 2af8 97d0ffff e7808071 93017000 9300f0ff  .......q..p.....
 2b08 13011000 63842000 63163000 63043000  ....c. .c.0.c.0.
 2b18 6fd08ff1 e38c20fe 97d0ffff e780006f  o..... ........o
 2b28 93018000 93001000 1301f0ff 63842000  ............c. .
 2b38 63163000 63043000 6fd00fef e38c20fe  c.0.c.0.o..... .
 2b48 97d0ffff e780806c 67800f00 13050000  .......lg.......
 2b58 2320a600 93012000 93000000 13011000  # .... .........
 2b68 63982000 63043000 6fd00fec 63183000  c. .c.0.o...c.0.
 2b78 e39e20fe 63043000 6fd00feb 97d0ffff  .. .c.0.o.......
 2b88 e780c068 93013000 93001000 13010000  ...h..0.........
 2b98 63982000 63043000 6fd00fe9 63183000  c. .c.0.o...c.0.
 2ba8 e39e20fe 63043000 6fd00fe8 97d0ffff  .. .c.0.o.......
 2bb8 e780c065 93014000 9300f0ff 13011000  ...e..@.........
 2bc8 63982000 63043000 6fd00fe6 63183000  c. .c.0.o...c.0.
 2bd8 e39e20fe 63043000 6fd00fe5 97d0ffff  .. .c.0.o.......
 2be8 e780c062 93015000 93001000 1301f0ff  ...b..P.........
 2bf8 63982000 63043000 6fd00fe3 63183000  c. .c.0.o...c.0.
 2c08 e39e20fe 63043000 6fd00fe2 97d0ffff  .. .c.0.o.......
 2c18 e780c05f 93016000 93000000 13010000  ..._..`.........
 2c28 63942000 63163000 63043000 6fd0cfdf  c. .c.0.c.0.o...
 2c38 e39c20fe 97d0ffff e780405d 93017000  .. .......@]..p.
 2c48 93001000 13011000 63942000 63163000  ........c. .c.0.
 2c58 63043000 6fd04fdd e39c20fe 97d0ffff  c.0.o.O... .....
 2c68 e780c05a 93018000 9300f0ff 1301f0ff  ...Z............
 2c78 63942000 63163000 63043000 6fd0cfda  c. .c.0.c.0.o...
 2c88 e39c20fe 97d0ffff e7804058 67800f00  .. .......@Xg...
 2c98 13050000 2320a600 93012000 93000000  ....# .... .....
 2ca8 13011000 63c82000 63043000 6fd0cfd7  ....c. .c.0.o...
 2cb8 63183000 e3ce20fe 63043000 6fd0cfd6  c.0... .c.0.o...
 2cc8 97d0ffff e7808054 93013000 9300f0ff  .......T..0.....
 2cd8 13011000 63c82000 63043000 6fd0cfd4  ....c. .c.0.o...
 2ce8 63183000 e3ce20fe 63043000 6fd0cfd3  c.0... .c.0.o...
 2cf8 97d0ffff e7808051 93014000 9300e0ff  .......Q..@.....
 2d08 1301f0ff 63c82000 63043000 6fd0cfd1  ....c. .c.0.o...
 2d18 63183000 e3ce20fe 63043000 6fd0cfd0  c.0... .c.0.o...
 2d28 97d0ffff e780804e 93015000 93001000  .......N..P.....
 2d38 13010000 63c42000 63163000 63043000  ....c. .c.0.c.0.
 2d48 6fd08fce e3cc20fe 97d0ffff e780004c  o..... ........L
 2d58 93016000 93001000 1301f0ff 63c42000  ..`.........c. .
 2d68 63163000 63043000 6fd00fcc e3cc20fe  c.0.c.0.o..... .
 2d78 97d0ffff e7808049 93017000 9300f0ff  .......I..p.....
 2d88 1301e0ff 63c42000 63163000 63043000  ....c. .c.0.c.0.
 2d98 6fd08fc9 e3cc20fe 97d0ffff e7800047  o..... ........G
 2da8 93018000 93001000 1301e0ff 63c42000  ............c. .
 2db8 63163000 63043000 6fd00fc7 e3cc20fe  c.0.c.0.o..... .
 2dc8 97d0ffff e7808044 67800f00 13050000  .......Dg.......
 2dd8 2320a600 93012000 93000000 13010000  # .... .........
 2de8 63d82000 63043000 6fd00fc4 63183000  c. .c.0.o...c.0.
 2df8 e3de20fe 63043000 6fd00fc3 97d0ffff  .. .c.0.o.......
 2e08 e780c040 93013000 93001000 13011000  ...@..0.........
 2e18 63d82000 63043000 6fd00fc1 63183000  c. .c.0.o...c.0.
 2e28 e3de20fe 63043000 6fd00fc0 97d0ffff  .. .c.0.o.......
 2e38 e780c03d 93014000 9300f0ff 1301f0ff  ...=..@.........
 2e48 63d82000 63043000 6fd00fbe 63183000  c. .c.0.o...c.0.
 2e58 e3de20fe 63043000 6fd00fbd 97d0ffff  .. .c.0.o.......
 2e68 e780c03a 93015000 93001000 13010000  ...:..P.........
 2e78 63d82000 63043000 6fd00fbb 63183000  c. .c.0.o...c.0.
 2e88 e3de20fe 63043000 6fd00fba 97d0ffff  .. .c.0.o.......
 2e98 e780c037 93016000 93001000 1301f0ff  ...7..`.........
 2ea8 63d82000 63043000 6fd00fb8 63183000  c. .c.0.o...c.0.
 2eb8 e3de20fe 63043000 6fd00fb7 97d0ffff  .. .c.0.o.......
 2ec8 e780c034 93017000 9300f0ff 1301e0ff  ...4..p.........
 2ed8 63d82000 63043000 6fd00fb5 63183000  c. .c.0.o...c.0.
 2ee8 e3de20fe 63043000 6fd00fb4 97d0ffff  .. .c.0.o.......
 2ef8 e780c031 93018000 93000000 13011000  ...1............
 2f08 63d42000 63163000 63043000 6fd0cfb1  c. .c.0.c.0.o...
 2f18 e3dc20fe 97d0ffff e780402f 93019000  .. .......@/....
 2f28 9300f0ff 13011000 63d42000 63163000  ........c. .c.0.
 2f38 63043000 6fd04faf e3dc20fe 97d0ffff  c.0.o.O... .....
 2f48 e780c02c 9301a000 9300e0ff 1301f0ff  ...,............
 2f58 63d42000 63163000 63043000 6fd0cfac  c. .c.0.c.0.o...
 2f68 e3dc20fe 97d0ffff e780402a 9301b000  .. .......@*....
 2f78 9300e0ff 13011000 63d42000 63163000  ........c. .c.0.
 2f88 63043000 6fd04faa e3dc20fe 97d0ffff  c.0.o.O... .....
 2f98 e780c027 67800f00 13050000 2320a600  ...'g.......# ..
 2fa8 93012000 93000000 13011000 63e82000  .. .........c. .
 2fb8 63043000 6fd04fa7 63183000 e3ee20fe  c.0.o.O.c.0... .
 2fc8 63043000 6fd04fa6 97d0ffff e7800024  c.0.o.O........$
 2fd8 93013000 9300e0ff 1301f0ff 63e82000  ..0.........c. .
 2fe8 63043000 6fd04fa4 63183000 e3ee20fe  c.0.o.O.c.0... .
 2ff8 63043000 6fd04fa3 97d0ffff e7800021  c.0.o.O........!
 3008 93014000 93000000 1301f0ff 63e82000  ..@.........c. .
 3018 63043000 6fd04fa1 63183000 e3ee20fe  c.0.o.O.c.0... .
 3028 63043000 6fd04fa0 97d0ffff e780001e  c.0.o.O.........
 3038 93015000 93001000 13010000 63e42000  ..P.........c. .
 3048 63163000 63043000 6fd00f9e e3ec20fe  c.0.c.0.o..... .
 3058 97d0ffff e780801b 93016000 9300f0ff  ..........`.....
 3068 1301e0ff 63e42000 63163000 63043000  ....c. .c.0.c.0.
 3078 6fd08f9b e3ec20fe 97d0ffff e7800019  o..... .........
 3088 93017000 9300f0ff 13010000 63e42000  ..p.........c. .
 3098 63163000 63043000 6fd00f99 e3ec20fe  c.0.c.0.o..... .
 30a8 97d0ffff e7808016 93018000 b7000080  ................
 30b8 37010080 1301f1ff 63e42000 63163000  7.......c. .c.0.
 30c8 63043000 6fd04f96 e3ec20fe 97d0ffff  c.0.o.O... .....
 30d8 e780c013 67800f00 13050000 2320a600  ....g.......# ..
 30e8 93012000 93000000 13010000 63f82000  .. .........c. .
 30f8 63043000 6fd04f93 63183000 e3fe20fe  c.0.o.O.c.0... .
 3108 63043000 6fd04f92 97d0ffff e7800010  c.0.o.O.........
 3118 93013000 93001000 13011000 63f82000  ..0.........c. .
 3128 63043000 6fd04f90 63183000 e3fe20fe  c.0.o.O.c.0... .
 3138 63043000 6fd04f8f 97d0ffff e780000d  c.0.o.O.........
 3148 93014000 9300f0ff 1301f0ff 63f82000  ..@.........c. .
 3158 63043000 6fd04f8d 63183000 e3fe20fe  c.0.o.O.c.0... .
 3168 63043000 6fd04f8c 97d0ffff e780000a  c.0.o.O.........
 3178 93015000 93001000 13010000 63f82000  ..P.........c. .
 3188 63043000 6fd04f8a 63183000 e3fe20fe  c.0.o.O.c.0... .
 3198 63043000 6fd04f89 97d0ffff e7800007  c.0.o.O.........
 31a8 93016000 9300f0ff 1301e0ff 63f82000  ..`.........c. .
 31b8 63043000 6fd04f87 63183000 e3fe20fe  c.0.o.O.c.0... .
 31c8 63043000 6fd04f86 97d0ffff e7800004  c.0.o.O.........
 31d8 93017000 9300f0ff 13010000 63f82000  ..p.........c. .
 31e8 63043000 6fd04f84 63183000 e3fe20fe  c.0.o.O.c.0... .
 31f8 63043000 6fd04f83 97d0ffff e7800001  c.0.o.O.........
 3208 93018000 93000000 13011000 63f42000  ............c. .
 3218 63163000 63043000 6fd00f81 e3fc20fe  c.0.c.0.o..... .
 3228 97d0ffff e78080fe 93019000 9300e0ff  ................
 3238 1301f0ff 63f42000 63163000 63043000  ....c. .c.0.c.0.
 3248 6fc09ffe e3fc20fe 97d0ffff e78000fc  o..... .........
 3258 9301a000 93000000 1301f0ff 63f42000  ............c. .
 3268 63163000 63043000 6fc01ffc e3fc20fe  c.0.c.0.o..... .
 3278 97d0ffff e78080f9 9301b000 b7000080  ................
 3288 9380f0ff 37010080 63f42000 63163000  ....7...c. .c.0.
 3298 63043000 6fc05ff9 e3fc20fe 97d0ffff  c.0.o._... .....
 32a8 e780c0f6 67800f00 13050000 2320a600  ....g.......# ..
 32b8 172e0000 130ece71 ef0d4000 330ebe41  .......q..@.3..A
 32c8 b72e0000 938e0e71 93012000 6304de01  .......q.. .c...
 32d8 6fc09ff5 97d0ffff e78040f3 13000000  o.........@.....
 32e8 17eeffff 130ece8f ef0d4000 330ebe41  ..........@.3..A
 32f8 b7eeffff 938e0e8f 93013000 6304de01  ..........0.c...
 3308 6fc09ff2 97d0ffff e78040f0 67800f00  o.........@.g...
 3318 13050000 2320a600 b7000000 930e0000  ....# ..........
 3328 93012000 6384d001 6fc01ff0 97d0ffff  .. .c...o.......
 3338 e780c0ed b7f0ffff 93d01040 930e0080  ...........@....
 3348 93013000 6384d001 6fc01fee 97d0ffff  ..0.c...o.......
 3358 e780c0eb b7f0ff7f 93d04041 930ef07f  ..........@A....
 3368 93014000 6384d001 6fc01fec 97d0ffff  ..@.c...o.......
 3378 e780c0e9 b7000080 93d04041 930e0080  ..........@A....
 3388 93015000 6384d001 6fc01fea 97d0ffff  ..P.c...o.......
 3398 e780c0e7 37000080 930e0000 93016000  ....7.........`.
 33a8 6304d001 6fc05fe8 97d0ffff e78000e6  c...o._.........
 33b8 67800f00 13050000 2320a600 93012000  g.......# .... .
 33c8 93000000 6f020001 13000000 13000000  ....o...........
 33d8 6fc09fe5 17010000 130141ff 63044100  o.........A.c.A.
 33e8 6fc09fe4 97d0ffff e78040e2 93001000  o.........@.....
 33f8 6f004001 93801000 93801000 93801000  o.@.............
 3408 93801000 93801000 93801000 930e3000  ..............0.
 3418 93013000 6384d001 6fc01fe1 97d0ffff  ..0.c...o.......
 3428 e780c0de 67800f00 13050000 2320a600  ....g.......# ..
 3438 93012000 93020000 17030000 13030301  .. .............
 3448 e7020300 6fc05fde 17030000 1303c3ff  ....o._.........
 3458 63846200 6fc05fdd 97d0ffff e78000db  c.b.o._.........
 3468 93014000 13020000 17030000 13034301  ..@...........C.
 3478 e7090300 63043000 6fc01fdb 13021200  ....c.0.o.......
 3488 93022000 e31252fe 97d0ffff e78000d8  .. ...R.........
 3498 93015000 13020000 17030000 13038301  ..P.............
 34a8 13000000 e7090300 63043000 6fc0dfd7  ........c.0.o...
 34b8 13021200 93022000 e31052fe 97d0ffff  ...... ...R.....
 34c8 e780c0d4 93016000 13020000 17030000  ......`.........
 34d8 1303c301 13000000 13000000 e7090300  ................
 34e8 63043000 6fc05fd4 13021200 93022000  c.0.o._....... .
 34f8 e31e52fc 97d0ffff e78040d1 67800f00  ..R.......@.g...
 3508 13050000 2320a600 97100000 938040a5  ....# ........@.
 3518 039f0000 930ef00f 93012000 6304df01  .......... .c...
 3528 6fc09fd0 97d0ffff e78040ce 97100000  o.........@.....
 3538 938000a3 039f2000 930e00f0 93013000  ...... .......0.
 3548 6304df01 6fc05fce 97d0ffff e78000cc  c...o._.........
 3558 97100000 9380c0a0 039f4000 b71e0000  ..........@.....
 3568 938e0eff 93014000 6304df01 6fc0dfcb  ......@.c...o...
 3578 97d0ffff e78080c9 97100000 9380409e  ..............@.
 3588 039f6000 b7feffff 938efe00 93015000  ..`...........P.
 3598 6304df01 6fc05fc9 97d0ffff e78000c7  c...o._.........
 35a8 97100000 9380209c 039fa0ff 930ef00f  ...... .........
 35b8 93016000 6304df01 6fc01fc7 97d0ffff  ..`.c...o.......
 35c8 e780c0c4 97100000 9380e099 039fc0ff  ................
 35d8 930e00f0 93017000 6304df01 6fc0dfc4  ......p.c...o...
 35e8 97d0ffff e78080c2 97100000 9380a097  ................
 35f8 039fe0ff b71e0000 938e0eff 93018000  ................
 3608 6304df01 6fc05fc2 97d0ffff e78000c0  c...o._.........
 3618 97100000 93802095 039f0000 b7feffff  ...... .........
 3628 938efe00 93019000 6304df01 6fc0dfbf  ........c...o...
 3638 97d0ffff e78080bd 97100000 93804092  ..............@.
 3648 938000fe 83920002 930ef00f 9301a000  ................
 3658 6384d201 6fc05fbd 97d0ffff e78000bb  c...o._.........
 3668 97100000 9380c08f 9380b0ff 83927000  ..............p.
 3678 930e00f0 9301b000 6384d201 6fc0dfba  ........c...o...
 3688 97d0ffff e78080b8 67800f00 13050000  ........g.......
 3698 2320a600 13151500 97100000 9380c08c  # ..............
 36a8 038f0000 930ef0ff 93012000 6304df01  .......... .c...
 36b8 6fc09fb7 97d0ffff e78040b5 97100000  o.........@.....
 36c8 9380808a 038f1000 930e0000 93013000  ..............0.
 36d8 6304df01 6fc05fb5 97d0ffff e78000b3  c...o._.........
 36e8 97100000 93804088 038f2000 930e00ff  ......@... .....
 36f8 93014000 6304df01 6fc01fb3 97d0ffff  ..@.c...o.......
 3708 e780c0b0 97100000 93800086 038f3000  ..............0.
 3718 930ef000 93015000 6304df01 6fc0dfb0  ......P.c...o...
 3728 97d0ffff e78080ae 97100000 9380f083  ................
 3738 038fd0ff 930ef0ff 93016000 6304df01  ..........`.c...
 3748 6fc09fae 97d0ffff e78040ac 97100000  o.........@.....
 3758 9380b081 038fe0ff 930e0000 93017000  ..............p.
 3768 6304df01 6fc05fac 97d0ffff e78000aa  c...o._.........
 3778 97000000 9380707f 038ff0ff 930e00ff  ......p.........
 3788 93018000 6304df01 6fc01faa 97d0ffff  ....c...o.......
 3798 e780c0a7 97000000 9380307d 038f0000  ..........0}....
 37a8 930ef000 93019000 6304df01 6fc0dfa7  ........c...o...
 37b8 97d0ffff e78080a5 97000000 9380c07a  ...............z
 37c8 938000fe 83820002 930ef0ff 9301a000  ................
 37d8 6384d201 6fc05fa5 97d0ffff e78000a3  c...o._.........
 37e8 97000000 93804078 9380a0ff 83827000  ......@x......p.
 37f8 930e0000 9301b000 6384d201 6fc0dfa2  ........c...o...
 3808 97d0ffff e78080a0 67800f00 13050000  ........g.......
 3818 2320a600 13151500 97000000 9380c074  # .............t
 3828 03cf0000 930ef00f 93012000 6304df01  .......... .c...
 3838 6fc09f9f 97d0ffff e780409d 97000000  o.........@.....
 3848 93808072 03cf1000 930e0000 93013000  ...r..........0.
 3858 6304df01 6fc05f9d 97d0ffff e780009b  c...o._.........
 3868 97000000 93804070 03cf2000 930e000f  ......@p.. .....
 3878 93014000 6304df01 6fc01f9b 97d0ffff  ..@.c...o.......
 3888 e780c098 97000000 9380006e 03cf3000  ...........n..0.
 3898 930ef000 93015000 6304df01 6fc0df98  ......P.c...o...
 38a8 97d0ffff e7808096 97000000 9380f06b  ...............k
 38b8 03cfd0ff 930ef00f 93016000 6304df01  ..........`.c...
 38c8 6fc09f96 97d0ffff e7804094 97000000  o.........@.....
 38d8 9380b069 03cfe0ff 930e0000 93017000  ...i..........p.
 38e8 6304df01 6fc05f94 97d0ffff e7800092  c...o._.........
 38f8 97000000 93807067 03cff0ff 930e000f  ......pg........
 3908 93018000 6304df01 6fc01f92 97d0ffff  ....c...o.......
 3918 e780c08f 97000000 93803065 03cf0000  ..........0e....
 3928 930ef000 93019000 6304df01 6fc0df8f  ........c...o...
 3938 97d0ffff e780808d 97000000 9380c062  ...............b
 3948 938000fe 83c20002 930ef00f 9301a000  ................
 3958 6384d201 6fc05f8d 97d0ffff e780008b  c...o._.........
 3968 97000000 93804060 9380a0ff 83c27000  ......@`......p.
 3978 930e0000 9301b000 6384d201 6fc0df8a  ........c...o...
 3988 97d0ffff e7808088 67800f00 13050000  ........g.......
 3998 2320a600 13151500 97000000 9380405c  # ............@\
 39a8 03df0000 930ef00f 93012000 6304df01  .......... .c...
 39b8 6fc09f87 97d0ffff e7804085 97000000  o.........@.....
 39c8 9380005a 03df2000 b70e0100 938e0ef0  ...Z.. .........
 39d8 93013000 6304df01 6fc01f85 97d0ffff  ..0.c...o.......
 39e8 e780c082 97000000 93808057 03df4000  ...........W..@.
 39f8 b71e0000 938e0eff 93014000 6304df01  ..........@.c...
 3a08 6fc09f82 97d0ffff e7804080 97000000  o.........@.....
 3a18 93800055 03df6000 b7fe0000 938efe00  ...U..`.........
 3a28 93015000 6304df01 6fc01f80 97c0ffff  ..P.c...o.......
 3a38 e780c07d 97000000 9380e052 03dfa0ff  ...}.......R....
 3a48 930ef00f 93016000 6304df01 6fc0cffd  ......`.c...o...
 3a58 97c0ffff e780807b 97000000 9380a050  .......{.......P
 3a68 03dfc0ff b70e0100 938e0ef0 93017000  ..............p.
 3a78 6304df01 6fc04ffb 97c0ffff e7800079  c...o.O........y
 3a88 97000000 9380204e 03dfe0ff b71e0000  ...... N........
 3a98 938e0eff 93018000 6304df01 6fc0cff8  ........c...o...
 3aa8 97c0ffff e7808076 97000000 9380a04b  .......v.......K
 3ab8 03df0000 b7fe0000 938efe00 93019000  ................
 3ac8 6304df01 6fc04ff6 97c0ffff e7800074  c...o.O........t
 3ad8 97000000 9380c048 938000fe 83d20002  .......H........
 3ae8 930ef00f 9301a000 6384d201 6fc0cff3  ........c...o...
 3af8 97c0ffff e7808071 97000000 93804046  .......q......@F
 3b08 9380b0ff 83d27000 b70e0100 938e0ef0  ......p.........
 3b18 9301b000 6384d201 6fc00ff1 97c0ffff  ....c...o.......
 3b28 e780c06e 67800f00 13050000 2320a600  ...ng.......# ..
 3b38 13151500 97000000 9380e043 1301a00a  ...........C....
 3b48 23902000 039f0000 930ea00a 93012000  #. ........... .
 3b58 6304df01 6fc04fed 97c0ffff e780006b  c...o.O........k
 3b68 97000000 93802041 37b1ffff 130101a0  ...... A7.......
 3b78 23912000 039f2000 b7beffff 938e0ea0  #. ... .........
 3b88 93013000 6304df01 6fc00fea 97c0ffff  ..0.c...o.......
 3b98 e780c067 97000000 9380e03d 3711efbe  ...g.......=7...
 3ba8 130101aa 23922000 039f4000 b71e0000  ....#. ...@.....
 3bb8 938e0eaa 93014000 6304df01 6fc0cfe6  ......@.c...o...
 3bc8 97c0ffff e7808064 97000000 9380a03a  .......d.......:
 3bd8 37a1ffff 1301a100 23932000 039f6000  7.......#. ...`.
 3be8 b7aeffff 938eae00 93015000 6304df01  ..........P.c...
 3bf8 6fc08fe3 97c0ffff e7804061 97000000  o.........@a....
 3c08 93804038 1301a00a 239d20fe 039fa0ff  ..@8....#. .....
 3c18 930ea00a 93016000 6304df01 6fc0cfe0  ......`.c...o...
 3c28 97c0ffff e780805e 97000000 93808035  .......^.......5
 3c38 37b1ffff 130101a0 239e20fe 039fc0ff  7.......#. .....
 3c48 b7beffff 938e0ea0 93017000 6304df01  ..........p.c...
 3c58 6fc08fdd 97c0ffff e780405b 97000000  o.........@[....
 3c68 93804032 37110000 130101aa 239f20fe  ..@27.......#. .
 3c78 039fe0ff b71e0000 938e0eaa 93018000  ................
 3c88 6304df01 6fc04fda 97c0ffff e7800058  c...o.O........X
 3c98 97000000 9380002f 37a1ffff 1301a100  ......./7.......
 3ca8 23902000 039f0000 b7aeffff 938eae00  #. .............
 3cb8 93019000 6304df01 6fc00fd7 97c0ffff  ....c...o.......
 3cc8 e780c054 97000000 9380e02b 37513412  ...T.......+7Q4.
 3cd8 13018167 138200fe 23102202 83920000  ...g....#.".....
 3ce8 b75e0000 938e8e67 9301a000 6384d201  .^.....g....c...
 3cf8 6fc08fd3 97c0ffff e7804051 97000000  o.........@Q....
 3d08 93806028 37310000 13018109 9380b0ff  ..`(71..........
 3d18 a3932000 17020000 13020227 83120200  .. ........'....
 3d28 b73e0000 938e8e09 9301b000 6384d201  .>..........c...
 3d38 6fc08fcf 97c0ffff e780404d 67800f00  o.........@Mg...
 3d48 13050000 2320a600 13151500 97000000  ....# ..........
 3d58 9380c021 1301a0fa 23802000 038f0000  ...!....#. .....
 3d68 930ea0fa 93012000 6304df01 6fc0cfcb  ...... .c...o...
 3d78 97c0ffff e7808049 97000000 9380001f  .......I........
 3d88 13010000 a3802000 038f1000 930e0000  ...... .........
 3d98 93013000 6304df01 6fc00fc9 97c0ffff  ..0.c...o.......
 3da8 e780c046 97000000 9380401c 37f1ffff  ...F......@.7...
 3db8 130101fa 23812000 038f2000 930e00fa  ....#. ... .....
 3dc8 93014000 6304df01 6fc00fc6 97c0ffff  ..@.c...o.......
 3dd8 e780c043 97000000 93804019 1301a000  ...C......@.....
 3de8 a3812000 038f3000 930ea000 93015000  .. ...0.......P.
 3df8 6304df01 6fc04fc3 97c0ffff e7800041  c...o.O........A
 3e08 97000000 9380f016 1301a0fa a38e20fe  .............. .
 3e18 038fd0ff 930ea0fa 93016000 6304df01  ..........`.c...
 3e28 6fc08fc0 97c0ffff e780403e 97000000  o.........@>....
 3e38 93803014 13010000 238f20fe 038fe0ff  ..0.....#. .....
 3e48 930e0000 93017000 6304df01 6fc0cfbd  ......p.c...o...
 3e58 97c0ffff e780803b 97000000 93807011  .......;......p.
 3e68 130100fa a38f20fe 038ff0ff 930e00fa  ...... .........
 3e78 93018000 6304df01 6fc00fbb 97c0ffff  ....c...o.......
 3e88 e780c038 97000000 9380b00e 1301a000  ...8............
 3e98 23802000 038f0000 930ea000 93019000  #. .............
 3ea8 6304df01 6fc04fb8 97c0ffff e7800036  c...o.O........6
 3eb8 97000000 9380000c 37513412 13018167  ........7Q4....g
 3ec8 138200fe 23002202 83820000 930e8007  ....#.".........
 3ed8 9301a000 6384d201 6fc00fb5 97c0ffff  ....c...o.......
 3ee8 e780c032 97000000 9380c008 37310000  ...2........71..
 3ef8 13018109 9380a0ff a3832000 17020000  .......... .....
 3f08 13025207 83020200 930e80f9 9301b000  ..R.............
 3f18 6384d201 6fc04fb1 97c0ffff e780002f  c...o.O......../
 3f28 67800f00                             g...            
Contents of section .data:
 3f30 ff00ff00 00ff00ff f00ff00f 0ff00ff0  ................
 3f40 efbeadde efbeadde efbeadde efbeadde  ................
 3f50 efbeadde efbeadde efbeadde efbeadde  ................
 3f60 efbeadde ff0000ff f00f0ff0 ff00f00f  ................
 3f70 efefefef efefefef efefefbe efbeefbe  ................
 3f80 efbeefbe efbeefbe efbeefbe efbe0000  ................

Disassembly of section .text.init:

00000000 <entry>:
   0:	00010117          	auipc	sp,0x10
   4:	fe010113          	addi	sp,sp,-32 # ffe0 <__global_pointer$+0xb8b4>
   8:	00000097          	auipc	ra,0x0
   c:	010080e7          	jalr	16(ra) # 18 <main>

00000010 <end>:
  10:	0000006f          	j	10 <end>

Disassembly of section .text:

00000018 <main>:
      18:	11000837          	lui	a6,0x11000
      1c:	110c05b7          	lui	a1,0x110c0
      20:	11080637          	lui	a2,0x11080
      24:	000f48b7          	lui	a7,0xf4
      28:	24088893          	addi	a7,a7,576 # f4240 <DELAY_CNT>

0000002c <loop>:
      2c:	fff00713          	li	a4,-1
      30:	00000097          	auipc	ra,0x0
      34:	1c8080e7          	jalr	456(ra) # 1f8 <end>
      38:	20400fef          	jal	t6,23c <add_test>
      3c:	00000097          	auipc	ra,0x0
      40:	1bc080e7          	jalr	444(ra) # 1f8 <end>
      44:	45400fef          	jal	t6,498 <sub_test>
      48:	00000097          	auipc	ra,0x0
      4c:	1b0080e7          	jalr	432(ra) # 1f8 <end>
      50:	67c00fef          	jal	t6,6cc <and_test>
      54:	00000097          	auipc	ra,0x0
      58:	1a4080e7          	jalr	420(ra) # 1f8 <end>
      5c:	7a400fef          	jal	t6,800 <or_test>
      60:	00000097          	auipc	ra,0x0
      64:	198080e7          	jalr	408(ra) # 1f8 <end>
      68:	0d100fef          	jal	t6,938 <xor_test>
      6c:	00000097          	auipc	ra,0x0
      70:	18c080e7          	jalr	396(ra) # 1f8 <end>
      74:	1f900fef          	jal	t6,a6c <sll_test>
      78:	00000097          	auipc	ra,0x0
      7c:	180080e7          	jalr	384(ra) # 1f8 <end>
      80:	49500fef          	jal	t6,d14 <srl_test>
      84:	00000097          	auipc	ra,0x0
      88:	174080e7          	jalr	372(ra) # 1f8 <end>
      8c:	6f900fef          	jal	t6,f84 <sra_test>
      90:	00000097          	auipc	ra,0x0
      94:	168080e7          	jalr	360(ra) # 1f8 <end>
      98:	1f001fef          	jal	t6,1288 <slt_test>
      9c:	00000097          	auipc	ra,0x0
      a0:	15c080e7          	jalr	348(ra) # 1f8 <end>
      a4:	44801fef          	jal	t6,14ec <sltu_test>
      a8:	00000097          	auipc	ra,0x0
      ac:	150080e7          	jalr	336(ra) # 1f8 <end>
      b0:	6a001fef          	jal	t6,1750 <addi_test>
      b4:	00000097          	auipc	ra,0x0
      b8:	144080e7          	jalr	324(ra) # 1f8 <end>
      bc:	0c501fef          	jal	t6,1980 <andi_test>
      c0:	00000097          	auipc	ra,0x0
      c4:	138080e7          	jalr	312(ra) # 1f8 <end>
      c8:	17d01fef          	jal	t6,1a44 <ori_test>
      cc:	00000097          	auipc	ra,0x0
      d0:	12c080e7          	jalr	300(ra) # 1f8 <end>
      d4:	24101fef          	jal	t6,1b14 <xori_test>
      d8:	00000097          	auipc	ra,0x0
      dc:	120080e7          	jalr	288(ra) # 1f8 <end>
      e0:	30901fef          	jal	t6,1be8 <slli_test>
      e4:	00000097          	auipc	ra,0x0
      e8:	114080e7          	jalr	276(ra) # 1f8 <end>
      ec:	50901fef          	jal	t6,1df4 <srli_test>
      f0:	00000097          	auipc	ra,0x0
      f4:	108080e7          	jalr	264(ra) # 1f8 <end>
      f8:	73d01fef          	jal	t6,2034 <srai_test>
      fc:	00000097          	auipc	ra,0x0
     100:	0fc080e7          	jalr	252(ra) # 1f8 <end>
     104:	18802fef          	jal	t6,228c <sltiu_test>
     108:	00000097          	auipc	ra,0x0
     10c:	0f0080e7          	jalr	240(ra) # 1f8 <end>
     110:	39402fef          	jal	t6,24a4 <slti_test>
     114:	00000097          	auipc	ra,0x0
     118:	0e4080e7          	jalr	228(ra) # 1f8 <end>
     11c:	5a002fef          	jal	t6,26bc <lw_test>
     120:	00000097          	auipc	ra,0x0
     124:	0d8080e7          	jalr	216(ra) # 1f8 <end>
     128:	70c02fef          	jal	t6,2834 <sw_test>
     12c:	00000097          	auipc	ra,0x0
     130:	0cc080e7          	jalr	204(ra) # 1f8 <end>
     134:	0e502fef          	jal	t6,2a18 <beq_test>
     138:	00000097          	auipc	ra,0x0
     13c:	0c0080e7          	jalr	192(ra) # 1f8 <end>
     140:	21502fef          	jal	t6,2b54 <bne_test>
     144:	00000097          	auipc	ra,0x0
     148:	0b4080e7          	jalr	180(ra) # 1f8 <end>
     14c:	34d02fef          	jal	t6,2c98 <blt_test>
     150:	00000097          	auipc	ra,0x0
     154:	0a8080e7          	jalr	168(ra) # 1f8 <end>
     158:	47d02fef          	jal	t6,2dd4 <bge_test>
     15c:	00000097          	auipc	ra,0x0
     160:	09c080e7          	jalr	156(ra) # 1f8 <end>
     164:	63d02fef          	jal	t6,2fa0 <bltu_test>
     168:	00000097          	auipc	ra,0x0
     16c:	090080e7          	jalr	144(ra) # 1f8 <end>
     170:	77102fef          	jal	t6,30e0 <bgeu_test>
     174:	00000097          	auipc	ra,0x0
     178:	084080e7          	jalr	132(ra) # 1f8 <end>
     17c:	13403fef          	jal	t6,32b0 <auipc_test>
     180:	00000097          	auipc	ra,0x0
     184:	078080e7          	jalr	120(ra) # 1f8 <end>
     188:	19003fef          	jal	t6,3318 <lui_test>
     18c:	00000097          	auipc	ra,0x0
     190:	06c080e7          	jalr	108(ra) # 1f8 <end>
     194:	22803fef          	jal	t6,33bc <jal_test>
     198:	00000097          	auipc	ra,0x0
     19c:	060080e7          	jalr	96(ra) # 1f8 <end>
     1a0:	29003fef          	jal	t6,3430 <jalr_test>
     1a4:	00000097          	auipc	ra,0x0
     1a8:	054080e7          	jalr	84(ra) # 1f8 <end>
     1ac:	35c03fef          	jal	t6,3508 <lh_test>
     1b0:	00000097          	auipc	ra,0x0
     1b4:	048080e7          	jalr	72(ra) # 1f8 <end>
     1b8:	4dc03fef          	jal	t6,3694 <lb_test>
     1bc:	00000097          	auipc	ra,0x0
     1c0:	03c080e7          	jalr	60(ra) # 1f8 <end>
     1c4:	7d003fef          	jal	t6,3994 <lhu_test>
     1c8:	00000097          	auipc	ra,0x0
     1cc:	030080e7          	jalr	48(ra) # 1f8 <end>
     1d0:	64403fef          	jal	t6,3814 <lbu_test>
     1d4:	00000097          	auipc	ra,0x0
     1d8:	024080e7          	jalr	36(ra) # 1f8 <end>
     1dc:	15503fef          	jal	t6,3b30 <sh_test>
     1e0:	00000097          	auipc	ra,0x0
     1e4:	018080e7          	jalr	24(ra) # 1f8 <end>
     1e8:	36103fef          	jal	t6,3d48 <sb_test>
     1ec:	00000097          	auipc	ra,0x0
     1f0:	00c080e7          	jalr	12(ra) # 1f8 <end>
     1f4:	e39ff06f          	j	2c <loop>

000001f8 <end>:
     1f8:	00082683          	lw	a3,0(a6) # 11000000 <SWITCHES>
     1fc:	0016f693          	andi	a3,a3,1
     200:	fe069ce3          	bnez	a3,1f8 <end>
     204:	00170713          	addi	a4,a4,1
     208:	00e5a023          	sw	a4,0(a1) # 110c0000 <SSEG>
     20c:	00008067          	ret

00000210 <update_test>:
     210:	00151513          	slli	a0,a0,0x1
     214:	00150513          	addi	a0,a0,1
     218:	00a62023          	sw	a0,0(a2) # 11080000 <LEDS>
     21c:	000f48b7          	lui	a7,0xf4
     220:	24088893          	addi	a7,a7,576 # f4240 <DELAY_CNT>

00000224 <delay_loop>:
     224:	fff88893          	addi	a7,a7,-1
     228:	fe089ee3          	bnez	a7,224 <delay_loop>
     22c:	00008067          	ret

00000230 <fail>:
     230:	fff00793          	li	a5,-1
     234:	00f5a023          	sw	a5,0(a1)
     238:	000f8067          	jr	t6

0000023c <add_test>:
     23c:	00000513          	li	a0,0
     240:	00a62023          	sw	a0,0(a2)
     244:	00000093          	li	ra,0
     248:	00000113          	li	sp,0
     24c:	00208f33          	add	t5,ra,sp
     250:	00000e93          	li	t4,0
     254:	00200193          	li	gp,2
     258:	fddf1ce3          	bne	t5,t4,230 <fail>
     25c:	00000097          	auipc	ra,0x0
     260:	fb4080e7          	jalr	-76(ra) # 210 <update_test>
     264:	00100093          	li	ra,1
     268:	00100113          	li	sp,1
     26c:	00208f33          	add	t5,ra,sp
     270:	00200e93          	li	t4,2
     274:	00300193          	li	gp,3
     278:	fbdf1ce3          	bne	t5,t4,230 <fail>
     27c:	00000097          	auipc	ra,0x0
     280:	f94080e7          	jalr	-108(ra) # 210 <update_test>
     284:	00300093          	li	ra,3
     288:	00700113          	li	sp,7
     28c:	00208f33          	add	t5,ra,sp
     290:	00a00e93          	li	t4,10
     294:	00400193          	li	gp,4
     298:	f9df1ce3          	bne	t5,t4,230 <fail>
     29c:	00000097          	auipc	ra,0x0
     2a0:	f74080e7          	jalr	-140(ra) # 210 <update_test>
     2a4:	00000093          	li	ra,0
     2a8:	ffff8137          	lui	sp,0xffff8
     2ac:	00208f33          	add	t5,ra,sp
     2b0:	ffff8eb7          	lui	t4,0xffff8
     2b4:	00500193          	li	gp,5
     2b8:	f7df1ce3          	bne	t5,t4,230 <fail>
     2bc:	00000097          	auipc	ra,0x0
     2c0:	f54080e7          	jalr	-172(ra) # 210 <update_test>
     2c4:	800000b7          	lui	ra,0x80000
     2c8:	00000113          	li	sp,0
     2cc:	00208f33          	add	t5,ra,sp
     2d0:	80000eb7          	lui	t4,0x80000
     2d4:	00600193          	li	gp,6
     2d8:	f5df1ce3          	bne	t5,t4,230 <fail>
     2dc:	00000097          	auipc	ra,0x0
     2e0:	f34080e7          	jalr	-204(ra) # 210 <update_test>
     2e4:	800000b7          	lui	ra,0x80000
     2e8:	ffff8137          	lui	sp,0xffff8
     2ec:	00208f33          	add	t5,ra,sp
     2f0:	7fff8eb7          	lui	t4,0x7fff8
     2f4:	00700193          	li	gp,7
     2f8:	f3df1ce3          	bne	t5,t4,230 <fail>
     2fc:	00000097          	auipc	ra,0x0
     300:	f14080e7          	jalr	-236(ra) # 210 <update_test>
     304:	00000093          	li	ra,0
     308:	00008137          	lui	sp,0x8
     30c:	fff10113          	addi	sp,sp,-1 # 7fff <__global_pointer$+0x38d3>
     310:	00208f33          	add	t5,ra,sp
     314:	00008eb7          	lui	t4,0x8
     318:	fffe8e93          	addi	t4,t4,-1 # 7fff <__global_pointer$+0x38d3>
     31c:	00800193          	li	gp,8
     320:	f1df18e3          	bne	t5,t4,230 <fail>
     324:	00000097          	auipc	ra,0x0
     328:	eec080e7          	jalr	-276(ra) # 210 <update_test>
     32c:	800000b7          	lui	ra,0x80000
     330:	fff08093          	addi	ra,ra,-1 # 7fffffff <SSEG+0x6ef3ffff>
     334:	00000113          	li	sp,0
     338:	00208f33          	add	t5,ra,sp
     33c:	80000eb7          	lui	t4,0x80000
     340:	fffe8e93          	addi	t4,t4,-1 # 7fffffff <SSEG+0x6ef3ffff>
     344:	00900193          	li	gp,9
     348:	efdf14e3          	bne	t5,t4,230 <fail>
     34c:	00000097          	auipc	ra,0x0
     350:	ec4080e7          	jalr	-316(ra) # 210 <update_test>
     354:	800000b7          	lui	ra,0x80000
     358:	fff08093          	addi	ra,ra,-1 # 7fffffff <SSEG+0x6ef3ffff>
     35c:	00008137          	lui	sp,0x8
     360:	fff10113          	addi	sp,sp,-1 # 7fff <__global_pointer$+0x38d3>
     364:	00208f33          	add	t5,ra,sp
     368:	80008eb7          	lui	t4,0x80008
     36c:	ffee8e93          	addi	t4,t4,-2 # 80007ffe <SSEG+0x6ef47ffe>
     370:	00a00193          	li	gp,10
     374:	ebdf1ee3          	bne	t5,t4,230 <fail>
     378:	00000097          	auipc	ra,0x0
     37c:	e98080e7          	jalr	-360(ra) # 210 <update_test>
     380:	800000b7          	lui	ra,0x80000
     384:	00008137          	lui	sp,0x8
     388:	fff10113          	addi	sp,sp,-1 # 7fff <__global_pointer$+0x38d3>
     38c:	00208f33          	add	t5,ra,sp
     390:	80008eb7          	lui	t4,0x80008
     394:	fffe8e93          	addi	t4,t4,-1 # 80007fff <SSEG+0x6ef47fff>
     398:	00b00193          	li	gp,11
     39c:	e9df1ae3          	bne	t5,t4,230 <fail>
     3a0:	00000097          	auipc	ra,0x0
     3a4:	e70080e7          	jalr	-400(ra) # 210 <update_test>
     3a8:	800000b7          	lui	ra,0x80000
     3ac:	fff08093          	addi	ra,ra,-1 # 7fffffff <SSEG+0x6ef3ffff>
     3b0:	ffff8137          	lui	sp,0xffff8
     3b4:	00208f33          	add	t5,ra,sp
     3b8:	7fff8eb7          	lui	t4,0x7fff8
     3bc:	fffe8e93          	addi	t4,t4,-1 # 7fff7fff <SSEG+0x6ef37fff>
     3c0:	00c00193          	li	gp,12
     3c4:	e7df16e3          	bne	t5,t4,230 <fail>
     3c8:	00000097          	auipc	ra,0x0
     3cc:	e48080e7          	jalr	-440(ra) # 210 <update_test>
     3d0:	00000093          	li	ra,0
     3d4:	fff00113          	li	sp,-1
     3d8:	00208f33          	add	t5,ra,sp
     3dc:	fff00e93          	li	t4,-1
     3e0:	00d00193          	li	gp,13
     3e4:	e5df16e3          	bne	t5,t4,230 <fail>
     3e8:	00000097          	auipc	ra,0x0
     3ec:	e28080e7          	jalr	-472(ra) # 210 <update_test>
     3f0:	fff00093          	li	ra,-1
     3f4:	00100113          	li	sp,1
     3f8:	00208f33          	add	t5,ra,sp
     3fc:	00000e93          	li	t4,0
     400:	00e00193          	li	gp,14
     404:	e3df16e3          	bne	t5,t4,230 <fail>
     408:	00000097          	auipc	ra,0x0
     40c:	e08080e7          	jalr	-504(ra) # 210 <update_test>
     410:	fff00093          	li	ra,-1
     414:	fff00113          	li	sp,-1
     418:	00208f33          	add	t5,ra,sp
     41c:	ffe00e93          	li	t4,-2
     420:	00f00193          	li	gp,15
     424:	e1df16e3          	bne	t5,t4,230 <fail>
     428:	00000097          	auipc	ra,0x0
     42c:	de8080e7          	jalr	-536(ra) # 210 <update_test>
     430:	00100093          	li	ra,1
     434:	80000137          	lui	sp,0x80000
     438:	fff10113          	addi	sp,sp,-1 # 7fffffff <SSEG+0x6ef3ffff>
     43c:	00208f33          	add	t5,ra,sp
     440:	80000eb7          	lui	t4,0x80000
     444:	01000193          	li	gp,16
     448:	dfdf14e3          	bne	t5,t4,230 <fail>
     44c:	00000097          	auipc	ra,0x0
     450:	dc4080e7          	jalr	-572(ra) # 210 <update_test>
     454:	00d00093          	li	ra,13
     458:	00b00113          	li	sp,11
     45c:	002080b3          	add	ra,ra,sp
     460:	01800e93          	li	t4,24
     464:	01100193          	li	gp,17
     468:	ddd094e3          	bne	ra,t4,230 <fail>
     46c:	00000097          	auipc	ra,0x0
     470:	da4080e7          	jalr	-604(ra) # 210 <update_test>
     474:	00e00093          	li	ra,14
     478:	00b00113          	li	sp,11
     47c:	00208133          	add	sp,ra,sp
     480:	01900e93          	li	t4,25
     484:	01200193          	li	gp,18
     488:	dbd114e3          	bne	sp,t4,230 <fail>
     48c:	00000097          	auipc	ra,0x0
     490:	d84080e7          	jalr	-636(ra) # 210 <update_test>
     494:	000f8067          	jr	t6

00000498 <sub_test>:
     498:	00000513          	li	a0,0
     49c:	00a62023          	sw	a0,0(a2)
     4a0:	00000093          	li	ra,0
     4a4:	00000113          	li	sp,0
     4a8:	40208f33          	sub	t5,ra,sp
     4ac:	00000e93          	li	t4,0
     4b0:	00200193          	li	gp,2
     4b4:	d7df1ee3          	bne	t5,t4,230 <fail>
     4b8:	00000097          	auipc	ra,0x0
     4bc:	d58080e7          	jalr	-680(ra) # 210 <update_test>
     4c0:	00100093          	li	ra,1
     4c4:	00100113          	li	sp,1
     4c8:	40208f33          	sub	t5,ra,sp
     4cc:	00000e93          	li	t4,0
     4d0:	00300193          	li	gp,3
     4d4:	d5df1ee3          	bne	t5,t4,230 <fail>
     4d8:	00000097          	auipc	ra,0x0
     4dc:	d38080e7          	jalr	-712(ra) # 210 <update_test>
     4e0:	00300093          	li	ra,3
     4e4:	00700113          	li	sp,7
     4e8:	40208f33          	sub	t5,ra,sp
     4ec:	ffc00e93          	li	t4,-4
     4f0:	00400193          	li	gp,4
     4f4:	d3df1ee3          	bne	t5,t4,230 <fail>
     4f8:	00000097          	auipc	ra,0x0
     4fc:	d18080e7          	jalr	-744(ra) # 210 <update_test>
     500:	00000093          	li	ra,0
     504:	ffff8137          	lui	sp,0xffff8
     508:	40208f33          	sub	t5,ra,sp
     50c:	00008eb7          	lui	t4,0x8
     510:	00500193          	li	gp,5
     514:	d1df1ee3          	bne	t5,t4,230 <fail>
     518:	00000097          	auipc	ra,0x0
     51c:	cf8080e7          	jalr	-776(ra) # 210 <update_test>
     520:	800000b7          	lui	ra,0x80000
     524:	00000113          	li	sp,0
     528:	40208f33          	sub	t5,ra,sp
     52c:	80000eb7          	lui	t4,0x80000
     530:	00600193          	li	gp,6
     534:	cfdf1ee3          	bne	t5,t4,230 <fail>
     538:	00000097          	auipc	ra,0x0
     53c:	cd8080e7          	jalr	-808(ra) # 210 <update_test>
     540:	800000b7          	lui	ra,0x80000
     544:	ffff8137          	lui	sp,0xffff8
     548:	40208f33          	sub	t5,ra,sp
     54c:	80008eb7          	lui	t4,0x80008
     550:	00700193          	li	gp,7
     554:	cddf1ee3          	bne	t5,t4,230 <fail>
     558:	00000097          	auipc	ra,0x0
     55c:	cb8080e7          	jalr	-840(ra) # 210 <update_test>
     560:	00000093          	li	ra,0
     564:	00008137          	lui	sp,0x8
     568:	fff10113          	addi	sp,sp,-1 # 7fff <__global_pointer$+0x38d3>
     56c:	40208f33          	sub	t5,ra,sp
     570:	ffff8eb7          	lui	t4,0xffff8
     574:	001e8e93          	addi	t4,t4,1 # ffff8001 <SSEG+0xeef38001>
     578:	00800193          	li	gp,8
     57c:	cbdf1ae3          	bne	t5,t4,230 <fail>
     580:	00000097          	auipc	ra,0x0
     584:	c90080e7          	jalr	-880(ra) # 210 <update_test>
     588:	800000b7          	lui	ra,0x80000
     58c:	fff08093          	addi	ra,ra,-1 # 7fffffff <SSEG+0x6ef3ffff>
     590:	00000113          	li	sp,0
     594:	40208f33          	sub	t5,ra,sp
     598:	80000eb7          	lui	t4,0x80000
     59c:	fffe8e93          	addi	t4,t4,-1 # 7fffffff <SSEG+0x6ef3ffff>
     5a0:	00900193          	li	gp,9
     5a4:	c9df16e3          	bne	t5,t4,230 <fail>
     5a8:	00000097          	auipc	ra,0x0
     5ac:	c68080e7          	jalr	-920(ra) # 210 <update_test>
     5b0:	800000b7          	lui	ra,0x80000
     5b4:	fff08093          	addi	ra,ra,-1 # 7fffffff <SSEG+0x6ef3ffff>
     5b8:	00008137          	lui	sp,0x8
     5bc:	fff10113          	addi	sp,sp,-1 # 7fff <__global_pointer$+0x38d3>
     5c0:	40208f33          	sub	t5,ra,sp
     5c4:	7fff8eb7          	lui	t4,0x7fff8
     5c8:	00a00193          	li	gp,10
     5cc:	c7df12e3          	bne	t5,t4,230 <fail>
     5d0:	00000097          	auipc	ra,0x0
     5d4:	c40080e7          	jalr	-960(ra) # 210 <update_test>
     5d8:	800000b7          	lui	ra,0x80000
     5dc:	00008137          	lui	sp,0x8
     5e0:	fff10113          	addi	sp,sp,-1 # 7fff <__global_pointer$+0x38d3>
     5e4:	40208f33          	sub	t5,ra,sp
     5e8:	7fff8eb7          	lui	t4,0x7fff8
     5ec:	001e8e93          	addi	t4,t4,1 # 7fff8001 <SSEG+0x6ef38001>
     5f0:	00b00193          	li	gp,11
     5f4:	c3df1ee3          	bne	t5,t4,230 <fail>
     5f8:	00000097          	auipc	ra,0x0
     5fc:	c18080e7          	jalr	-1000(ra) # 210 <update_test>
     600:	800000b7          	lui	ra,0x80000
     604:	fff08093          	addi	ra,ra,-1 # 7fffffff <SSEG+0x6ef3ffff>
     608:	ffff8137          	lui	sp,0xffff8
     60c:	40208f33          	sub	t5,ra,sp
     610:	80008eb7          	lui	t4,0x80008
     614:	fffe8e93          	addi	t4,t4,-1 # 80007fff <SSEG+0x6ef47fff>
     618:	00c00193          	li	gp,12
     61c:	c1df1ae3          	bne	t5,t4,230 <fail>
     620:	00000097          	auipc	ra,0x0
     624:	bf0080e7          	jalr	-1040(ra) # 210 <update_test>
     628:	00000093          	li	ra,0
     62c:	fff00113          	li	sp,-1
     630:	40208f33          	sub	t5,ra,sp
     634:	00100e93          	li	t4,1
     638:	00d00193          	li	gp,13
     63c:	bfdf1ae3          	bne	t5,t4,230 <fail>
     640:	00000097          	auipc	ra,0x0
     644:	bd0080e7          	jalr	-1072(ra) # 210 <update_test>
     648:	fff00093          	li	ra,-1
     64c:	00100113          	li	sp,1
     650:	40208f33          	sub	t5,ra,sp
     654:	ffe00e93          	li	t4,-2
     658:	00e00193          	li	gp,14
     65c:	bddf1ae3          	bne	t5,t4,230 <fail>
     660:	00000097          	auipc	ra,0x0
     664:	bb0080e7          	jalr	-1104(ra) # 210 <update_test>
     668:	fff00093          	li	ra,-1
     66c:	fff00113          	li	sp,-1
     670:	40208f33          	sub	t5,ra,sp
     674:	00000e93          	li	t4,0
     678:	00f00193          	li	gp,15
     67c:	bbdf1ae3          	bne	t5,t4,230 <fail>
     680:	00000097          	auipc	ra,0x0
     684:	b90080e7          	jalr	-1136(ra) # 210 <update_test>
     688:	00d00093          	li	ra,13
     68c:	00b00113          	li	sp,11
     690:	402080b3          	sub	ra,ra,sp
     694:	00200e93          	li	t4,2
     698:	01000193          	li	gp,16
     69c:	b9d09ae3          	bne	ra,t4,230 <fail>
     6a0:	00000097          	auipc	ra,0x0
     6a4:	b70080e7          	jalr	-1168(ra) # 210 <update_test>
     6a8:	00e00093          	li	ra,14
     6ac:	00b00113          	li	sp,11
     6b0:	40208133          	sub	sp,ra,sp
     6b4:	00300e93          	li	t4,3
     6b8:	01100193          	li	gp,17
     6bc:	b7d11ae3          	bne	sp,t4,230 <fail>
     6c0:	00000097          	auipc	ra,0x0
     6c4:	b50080e7          	jalr	-1200(ra) # 210 <update_test>
     6c8:	000f8067          	jr	t6

000006cc <and_test>:
     6cc:	00000513          	li	a0,0
     6d0:	00a62023          	sw	a0,0(a2)
     6d4:	ff0100b7          	lui	ra,0xff010
     6d8:	f0008093          	addi	ra,ra,-256 # ff00ff00 <SSEG+0xedf4ff00>
     6dc:	0f0f1137          	lui	sp,0xf0f1
     6e0:	f0f10113          	addi	sp,sp,-241 # f0f0f0f <DELAY_CNT+0xeffcccf>
     6e4:	0020ff33          	and	t5,ra,sp
     6e8:	0f001eb7          	lui	t4,0xf001
     6ec:	f00e8e93          	addi	t4,t4,-256 # f000f00 <DELAY_CNT+0xef0ccc0>
     6f0:	00200193          	li	gp,2
     6f4:	b3df1ee3          	bne	t5,t4,230 <fail>
     6f8:	00000097          	auipc	ra,0x0
     6fc:	b18080e7          	jalr	-1256(ra) # 210 <update_test>
     700:	0ff010b7          	lui	ra,0xff01
     704:	ff008093          	addi	ra,ra,-16 # ff00ff0 <DELAY_CNT+0xfe0cdb0>
     708:	f0f0f137          	lui	sp,0xf0f0f
     70c:	0f010113          	addi	sp,sp,240 # f0f0f0f0 <SSEG+0xdfe4f0f0>
     710:	0020ff33          	and	t5,ra,sp
     714:	00f00eb7          	lui	t4,0xf00
     718:	0f0e8e93          	addi	t4,t4,240 # f000f0 <DELAY_CNT+0xe0beb0>
     71c:	00300193          	li	gp,3
     720:	b1df18e3          	bne	t5,t4,230 <fail>
     724:	00000097          	auipc	ra,0x0
     728:	aec080e7          	jalr	-1300(ra) # 210 <update_test>
     72c:	00ff00b7          	lui	ra,0xff0
     730:	0ff08093          	addi	ra,ra,255 # ff00ff <DELAY_CNT+0xefbebf>
     734:	0f0f1137          	lui	sp,0xf0f1
     738:	f0f10113          	addi	sp,sp,-241 # f0f0f0f <DELAY_CNT+0xeffcccf>
     73c:	0020ff33          	and	t5,ra,sp
     740:	000f0eb7          	lui	t4,0xf0
     744:	00fe8e93          	addi	t4,t4,15 # f000f <__sp+0xe000f>
     748:	00400193          	li	gp,4
     74c:	afdf12e3          	bne	t5,t4,230 <fail>
     750:	00000097          	auipc	ra,0x0
     754:	ac0080e7          	jalr	-1344(ra) # 210 <update_test>
     758:	f00ff0b7          	lui	ra,0xf00ff
     75c:	00f08093          	addi	ra,ra,15 # f00ff00f <SSEG+0xdf03f00f>
     760:	f0f0f137          	lui	sp,0xf0f0f
     764:	0f010113          	addi	sp,sp,240 # f0f0f0f0 <SSEG+0xdfe4f0f0>
     768:	0020ff33          	and	t5,ra,sp
     76c:	f000feb7          	lui	t4,0xf000f
     770:	00500193          	li	gp,5
     774:	abdf1ee3          	bne	t5,t4,230 <fail>
     778:	00000097          	auipc	ra,0x0
     77c:	a98080e7          	jalr	-1384(ra) # 210 <update_test>
     780:	ff0100b7          	lui	ra,0xff010
     784:	f0008093          	addi	ra,ra,-256 # ff00ff00 <SSEG+0xedf4ff00>
     788:	0f0f1137          	lui	sp,0xf0f1
     78c:	f0f10113          	addi	sp,sp,-241 # f0f0f0f <DELAY_CNT+0xeffcccf>
     790:	0020f0b3          	and	ra,ra,sp
     794:	0f001eb7          	lui	t4,0xf001
     798:	f00e8e93          	addi	t4,t4,-256 # f000f00 <DELAY_CNT+0xef0ccc0>
     79c:	00600193          	li	gp,6
     7a0:	a9d098e3          	bne	ra,t4,230 <fail>
     7a4:	00000097          	auipc	ra,0x0
     7a8:	a6c080e7          	jalr	-1428(ra) # 210 <update_test>
     7ac:	0ff010b7          	lui	ra,0xff01
     7b0:	ff008093          	addi	ra,ra,-16 # ff00ff0 <DELAY_CNT+0xfe0cdb0>
     7b4:	f0f0f137          	lui	sp,0xf0f0f
     7b8:	0f010113          	addi	sp,sp,240 # f0f0f0f0 <SSEG+0xdfe4f0f0>
     7bc:	0020f133          	and	sp,ra,sp
     7c0:	00f00eb7          	lui	t4,0xf00
     7c4:	0f0e8e93          	addi	t4,t4,240 # f000f0 <DELAY_CNT+0xe0beb0>
     7c8:	00700193          	li	gp,7
     7cc:	a7d112e3          	bne	sp,t4,230 <fail>
     7d0:	00000097          	auipc	ra,0x0
     7d4:	a40080e7          	jalr	-1472(ra) # 210 <update_test>
     7d8:	ff0100b7          	lui	ra,0xff010
     7dc:	f0008093          	addi	ra,ra,-256 # ff00ff00 <SSEG+0xedf4ff00>
     7e0:	0010f0b3          	and	ra,ra,ra
     7e4:	ff010eb7          	lui	t4,0xff010
     7e8:	f00e8e93          	addi	t4,t4,-256 # ff00ff00 <SSEG+0xedf4ff00>
     7ec:	00800193          	li	gp,8
     7f0:	a5d090e3          	bne	ra,t4,230 <fail>
     7f4:	00000097          	auipc	ra,0x0
     7f8:	a1c080e7          	jalr	-1508(ra) # 210 <update_test>
     7fc:	000f8067          	jr	t6

00000800 <or_test>:
     800:	00000513          	li	a0,0
     804:	00a62023          	sw	a0,0(a2)
     808:	ff0100b7          	lui	ra,0xff010
     80c:	f0008093          	addi	ra,ra,-256 # ff00ff00 <SSEG+0xedf4ff00>
     810:	0f0f1137          	lui	sp,0xf0f1
     814:	f0f10113          	addi	sp,sp,-241 # f0f0f0f <DELAY_CNT+0xeffcccf>
     818:	0020ef33          	or	t5,ra,sp
     81c:	ff100eb7          	lui	t4,0xff100
     820:	f0fe8e93          	addi	t4,t4,-241 # ff0fff0f <SSEG+0xee03ff0f>
     824:	00200193          	li	gp,2
     828:	a1df14e3          	bne	t5,t4,230 <fail>
     82c:	00000097          	auipc	ra,0x0
     830:	9e4080e7          	jalr	-1564(ra) # 210 <update_test>
     834:	0ff010b7          	lui	ra,0xff01
     838:	ff008093          	addi	ra,ra,-16 # ff00ff0 <DELAY_CNT+0xfe0cdb0>
     83c:	f0f0f137          	lui	sp,0xf0f0f
     840:	0f010113          	addi	sp,sp,240 # f0f0f0f0 <SSEG+0xdfe4f0f0>
     844:	0020ef33          	or	t5,ra,sp
     848:	fff10eb7          	lui	t4,0xfff10
     84c:	ff0e8e93          	addi	t4,t4,-16 # fff0fff0 <SSEG+0xeee4fff0>
     850:	00300193          	li	gp,3
     854:	9ddf1ee3          	bne	t5,t4,230 <fail>
     858:	00000097          	auipc	ra,0x0
     85c:	9b8080e7          	jalr	-1608(ra) # 210 <update_test>
     860:	00ff00b7          	lui	ra,0xff0
     864:	0ff08093          	addi	ra,ra,255 # ff00ff <DELAY_CNT+0xefbebf>
     868:	0f0f1137          	lui	sp,0xf0f1
     86c:	f0f10113          	addi	sp,sp,-241 # f0f0f0f <DELAY_CNT+0xeffcccf>
     870:	0020ef33          	or	t5,ra,sp
     874:	0fff1eb7          	lui	t4,0xfff1
     878:	fffe8e93          	addi	t4,t4,-1 # fff0fff <DELAY_CNT+0xfefcdbf>
     87c:	00400193          	li	gp,4
     880:	9bdf18e3          	bne	t5,t4,230 <fail>
     884:	00000097          	auipc	ra,0x0
     888:	98c080e7          	jalr	-1652(ra) # 210 <update_test>
     88c:	f00ff0b7          	lui	ra,0xf00ff
     890:	00f08093          	addi	ra,ra,15 # f00ff00f <SSEG+0xdf03f00f>
     894:	f0f0f137          	lui	sp,0xf0f0f
     898:	0f010113          	addi	sp,sp,240 # f0f0f0f0 <SSEG+0xdfe4f0f0>
     89c:	0020ef33          	or	t5,ra,sp
     8a0:	f0fffeb7          	lui	t4,0xf0fff
     8a4:	0ffe8e93          	addi	t4,t4,255 # f0fff0ff <SSEG+0xdff3f0ff>
     8a8:	00500193          	li	gp,5
     8ac:	99df12e3          	bne	t5,t4,230 <fail>
     8b0:	00000097          	auipc	ra,0x0
     8b4:	960080e7          	jalr	-1696(ra) # 210 <update_test>
     8b8:	ff0100b7          	lui	ra,0xff010
     8bc:	f0008093          	addi	ra,ra,-256 # ff00ff00 <SSEG+0xedf4ff00>
     8c0:	0f0f1137          	lui	sp,0xf0f1
     8c4:	f0f10113          	addi	sp,sp,-241 # f0f0f0f <DELAY_CNT+0xeffcccf>
     8c8:	0020e0b3          	or	ra,ra,sp
     8cc:	ff100eb7          	lui	t4,0xff100
     8d0:	f0fe8e93          	addi	t4,t4,-241 # ff0fff0f <SSEG+0xee03ff0f>
     8d4:	00600193          	li	gp,6
     8d8:	95d09ce3          	bne	ra,t4,230 <fail>
     8dc:	00000097          	auipc	ra,0x0
     8e0:	934080e7          	jalr	-1740(ra) # 210 <update_test>
     8e4:	ff0100b7          	lui	ra,0xff010
     8e8:	f0008093          	addi	ra,ra,-256 # ff00ff00 <SSEG+0xedf4ff00>
     8ec:	0f0f1137          	lui	sp,0xf0f1
     8f0:	f0f10113          	addi	sp,sp,-241 # f0f0f0f <DELAY_CNT+0xeffcccf>
     8f4:	0020e133          	or	sp,ra,sp
     8f8:	ff100eb7          	lui	t4,0xff100
     8fc:	f0fe8e93          	addi	t4,t4,-241 # ff0fff0f <SSEG+0xee03ff0f>
     900:	00700193          	li	gp,7
     904:	93d116e3          	bne	sp,t4,230 <fail>
     908:	00000097          	auipc	ra,0x0
     90c:	908080e7          	jalr	-1784(ra) # 210 <update_test>
     910:	ff0100b7          	lui	ra,0xff010
     914:	f0008093          	addi	ra,ra,-256 # ff00ff00 <SSEG+0xedf4ff00>
     918:	0010e0b3          	or	ra,ra,ra
     91c:	ff010eb7          	lui	t4,0xff010
     920:	f00e8e93          	addi	t4,t4,-256 # ff00ff00 <SSEG+0xedf4ff00>
     924:	00800193          	li	gp,8
     928:	91d094e3          	bne	ra,t4,230 <fail>
     92c:	00000097          	auipc	ra,0x0
     930:	8e4080e7          	jalr	-1820(ra) # 210 <update_test>
     934:	000f8067          	jr	t6

00000938 <xor_test>:
     938:	00000513          	li	a0,0
     93c:	00a62023          	sw	a0,0(a2)
     940:	ff0100b7          	lui	ra,0xff010
     944:	f0008093          	addi	ra,ra,-256 # ff00ff00 <SSEG+0xedf4ff00>
     948:	0f0f1137          	lui	sp,0xf0f1
     94c:	f0f10113          	addi	sp,sp,-241 # f0f0f0f <DELAY_CNT+0xeffcccf>
     950:	0020cf33          	xor	t5,ra,sp
     954:	f00ffeb7          	lui	t4,0xf00ff
     958:	00fe8e93          	addi	t4,t4,15 # f00ff00f <SSEG+0xdf03f00f>
     95c:	00200193          	li	gp,2
     960:	8ddf18e3          	bne	t5,t4,230 <fail>
     964:	00000097          	auipc	ra,0x0
     968:	8ac080e7          	jalr	-1876(ra) # 210 <update_test>
     96c:	0ff010b7          	lui	ra,0xff01
     970:	ff008093          	addi	ra,ra,-16 # ff00ff0 <DELAY_CNT+0xfe0cdb0>
     974:	f0f0f137          	lui	sp,0xf0f0f
     978:	0f010113          	addi	sp,sp,240 # f0f0f0f0 <SSEG+0xdfe4f0f0>
     97c:	0020cf33          	xor	t5,ra,sp
     980:	ff010eb7          	lui	t4,0xff010
     984:	f00e8e93          	addi	t4,t4,-256 # ff00ff00 <SSEG+0xedf4ff00>
     988:	00300193          	li	gp,3
     98c:	8bdf12e3          	bne	t5,t4,230 <fail>
     990:	00000097          	auipc	ra,0x0
     994:	880080e7          	jalr	-1920(ra) # 210 <update_test>
     998:	00ff00b7          	lui	ra,0xff0
     99c:	0ff08093          	addi	ra,ra,255 # ff00ff <DELAY_CNT+0xefbebf>
     9a0:	0f0f1137          	lui	sp,0xf0f1
     9a4:	f0f10113          	addi	sp,sp,-241 # f0f0f0f <DELAY_CNT+0xeffcccf>
     9a8:	0020cf33          	xor	t5,ra,sp
     9ac:	0ff01eb7          	lui	t4,0xff01
     9b0:	ff0e8e93          	addi	t4,t4,-16 # ff00ff0 <DELAY_CNT+0xfe0cdb0>
     9b4:	00400193          	li	gp,4
     9b8:	87df1ce3          	bne	t5,t4,230 <fail>
     9bc:	00000097          	auipc	ra,0x0
     9c0:	854080e7          	jalr	-1964(ra) # 210 <update_test>
     9c4:	f00ff0b7          	lui	ra,0xf00ff
     9c8:	00f08093          	addi	ra,ra,15 # f00ff00f <SSEG+0xdf03f00f>
     9cc:	f0f0f137          	lui	sp,0xf0f0f
     9d0:	0f010113          	addi	sp,sp,240 # f0f0f0f0 <SSEG+0xdfe4f0f0>
     9d4:	0020cf33          	xor	t5,ra,sp
     9d8:	00ff0eb7          	lui	t4,0xff0
     9dc:	0ffe8e93          	addi	t4,t4,255 # ff00ff <DELAY_CNT+0xefbebf>
     9e0:	00500193          	li	gp,5
     9e4:	85df16e3          	bne	t5,t4,230 <fail>
     9e8:	00000097          	auipc	ra,0x0
     9ec:	828080e7          	jalr	-2008(ra) # 210 <update_test>
     9f0:	ff0100b7          	lui	ra,0xff010
     9f4:	f0008093          	addi	ra,ra,-256 # ff00ff00 <SSEG+0xedf4ff00>
     9f8:	0f0f1137          	lui	sp,0xf0f1
     9fc:	f0f10113          	addi	sp,sp,-241 # f0f0f0f <DELAY_CNT+0xeffcccf>
     a00:	0020c0b3          	xor	ra,ra,sp
     a04:	f00ffeb7          	lui	t4,0xf00ff
     a08:	00fe8e93          	addi	t4,t4,15 # f00ff00f <SSEG+0xdf03f00f>
     a0c:	00600193          	li	gp,6
     a10:	83d090e3          	bne	ra,t4,230 <fail>
     a14:	fffff097          	auipc	ra,0xfffff
     a18:	7fc080e7          	jalr	2044(ra) # 210 <update_test>
     a1c:	ff0100b7          	lui	ra,0xff010
     a20:	f0008093          	addi	ra,ra,-256 # ff00ff00 <SSEG+0xedf4ff00>
     a24:	0f0f1137          	lui	sp,0xf0f1
     a28:	f0f10113          	addi	sp,sp,-241 # f0f0f0f <DELAY_CNT+0xeffcccf>
     a2c:	0020c133          	xor	sp,ra,sp
     a30:	f00ffeb7          	lui	t4,0xf00ff
     a34:	00fe8e93          	addi	t4,t4,15 # f00ff00f <SSEG+0xdf03f00f>
     a38:	00700193          	li	gp,7
     a3c:	ffd11a63          	bne	sp,t4,230 <fail>
     a40:	fffff097          	auipc	ra,0xfffff
     a44:	7d0080e7          	jalr	2000(ra) # 210 <update_test>
     a48:	ff0100b7          	lui	ra,0xff010
     a4c:	f0008093          	addi	ra,ra,-256 # ff00ff00 <SSEG+0xedf4ff00>
     a50:	0010c0b3          	xor	ra,ra,ra
     a54:	00000e93          	li	t4,0
     a58:	00800193          	li	gp,8
     a5c:	fdd09a63          	bne	ra,t4,230 <fail>
     a60:	fffff097          	auipc	ra,0xfffff
     a64:	7b0080e7          	jalr	1968(ra) # 210 <update_test>
     a68:	000f8067          	jr	t6

00000a6c <sll_test>:
     a6c:	00000513          	li	a0,0
     a70:	00a62023          	sw	a0,0(a2)
     a74:	00100093          	li	ra,1
     a78:	00000113          	li	sp,0
     a7c:	00209f33          	sll	t5,ra,sp
     a80:	00100e93          	li	t4,1
     a84:	00200193          	li	gp,2
     a88:	fbdf1463          	bne	t5,t4,230 <fail>
     a8c:	fffff097          	auipc	ra,0xfffff
     a90:	784080e7          	jalr	1924(ra) # 210 <update_test>
     a94:	00100093          	li	ra,1
     a98:	00100113          	li	sp,1
     a9c:	00209f33          	sll	t5,ra,sp
     aa0:	00200e93          	li	t4,2
     aa4:	00300193          	li	gp,3
     aa8:	f9df1463          	bne	t5,t4,230 <fail>
     aac:	fffff097          	auipc	ra,0xfffff
     ab0:	764080e7          	jalr	1892(ra) # 210 <update_test>
     ab4:	00100093          	li	ra,1
     ab8:	00700113          	li	sp,7
     abc:	00209f33          	sll	t5,ra,sp
     ac0:	08000e93          	li	t4,128
     ac4:	00400193          	li	gp,4
     ac8:	f7df1463          	bne	t5,t4,230 <fail>
     acc:	fffff097          	auipc	ra,0xfffff
     ad0:	744080e7          	jalr	1860(ra) # 210 <update_test>
     ad4:	00100093          	li	ra,1
     ad8:	00e00113          	li	sp,14
     adc:	00209f33          	sll	t5,ra,sp
     ae0:	00004eb7          	lui	t4,0x4
     ae4:	00500193          	li	gp,5
     ae8:	f5df1463          	bne	t5,t4,230 <fail>
     aec:	fffff097          	auipc	ra,0xfffff
     af0:	724080e7          	jalr	1828(ra) # 210 <update_test>
     af4:	00100093          	li	ra,1
     af8:	01f00113          	li	sp,31
     afc:	00209f33          	sll	t5,ra,sp
     b00:	80000eb7          	lui	t4,0x80000
     b04:	00600193          	li	gp,6
     b08:	f3df1463          	bne	t5,t4,230 <fail>
     b0c:	fffff097          	auipc	ra,0xfffff
     b10:	704080e7          	jalr	1796(ra) # 210 <update_test>
     b14:	fff00093          	li	ra,-1
     b18:	00000113          	li	sp,0
     b1c:	00209f33          	sll	t5,ra,sp
     b20:	fff00e93          	li	t4,-1
     b24:	00700193          	li	gp,7
     b28:	f1df1463          	bne	t5,t4,230 <fail>
     b2c:	fffff097          	auipc	ra,0xfffff
     b30:	6e4080e7          	jalr	1764(ra) # 210 <update_test>
     b34:	fff00093          	li	ra,-1
     b38:	00100113          	li	sp,1
     b3c:	00209f33          	sll	t5,ra,sp
     b40:	ffe00e93          	li	t4,-2
     b44:	00800193          	li	gp,8
     b48:	efdf1463          	bne	t5,t4,230 <fail>
     b4c:	fffff097          	auipc	ra,0xfffff
     b50:	6c4080e7          	jalr	1732(ra) # 210 <update_test>
     b54:	fff00093          	li	ra,-1
     b58:	00700113          	li	sp,7
     b5c:	00209f33          	sll	t5,ra,sp
     b60:	f8000e93          	li	t4,-128
     b64:	00900193          	li	gp,9
     b68:	eddf1463          	bne	t5,t4,230 <fail>
     b6c:	fffff097          	auipc	ra,0xfffff
     b70:	6a4080e7          	jalr	1700(ra) # 210 <update_test>
     b74:	fff00093          	li	ra,-1
     b78:	00e00113          	li	sp,14
     b7c:	00209f33          	sll	t5,ra,sp
     b80:	ffffceb7          	lui	t4,0xffffc
     b84:	00a00193          	li	gp,10
     b88:	ebdf1463          	bne	t5,t4,230 <fail>
     b8c:	fffff097          	auipc	ra,0xfffff
     b90:	684080e7          	jalr	1668(ra) # 210 <update_test>
     b94:	fff00093          	li	ra,-1
     b98:	01f00113          	li	sp,31
     b9c:	00209f33          	sll	t5,ra,sp
     ba0:	80000eb7          	lui	t4,0x80000
     ba4:	00b00193          	li	gp,11
     ba8:	e9df1463          	bne	t5,t4,230 <fail>
     bac:	fffff097          	auipc	ra,0xfffff
     bb0:	664080e7          	jalr	1636(ra) # 210 <update_test>
     bb4:	212120b7          	lui	ra,0x21212
     bb8:	12108093          	addi	ra,ra,289 # 21212121 <SSEG+0x10152121>
     bbc:	00000113          	li	sp,0
     bc0:	00209f33          	sll	t5,ra,sp
     bc4:	21212eb7          	lui	t4,0x21212
     bc8:	121e8e93          	addi	t4,t4,289 # 21212121 <SSEG+0x10152121>
     bcc:	00c00193          	li	gp,12
     bd0:	e7df1063          	bne	t5,t4,230 <fail>
     bd4:	fffff097          	auipc	ra,0xfffff
     bd8:	63c080e7          	jalr	1596(ra) # 210 <update_test>
     bdc:	212120b7          	lui	ra,0x21212
     be0:	12108093          	addi	ra,ra,289 # 21212121 <SSEG+0x10152121>
     be4:	00100113          	li	sp,1
     be8:	00209f33          	sll	t5,ra,sp
     bec:	42424eb7          	lui	t4,0x42424
     bf0:	242e8e93          	addi	t4,t4,578 # 42424242 <SSEG+0x31364242>
     bf4:	00d00193          	li	gp,13
     bf8:	e3df1c63          	bne	t5,t4,230 <fail>
     bfc:	fffff097          	auipc	ra,0xfffff
     c00:	614080e7          	jalr	1556(ra) # 210 <update_test>
     c04:	212120b7          	lui	ra,0x21212
     c08:	12108093          	addi	ra,ra,289 # 21212121 <SSEG+0x10152121>
     c0c:	00700113          	li	sp,7
     c10:	00209f33          	sll	t5,ra,sp
     c14:	90909eb7          	lui	t4,0x90909
     c18:	080e8e93          	addi	t4,t4,128 # 90909080 <SSEG+0x7f849080>
     c1c:	00e00193          	li	gp,14
     c20:	e1df1863          	bne	t5,t4,230 <fail>
     c24:	fffff097          	auipc	ra,0xfffff
     c28:	5ec080e7          	jalr	1516(ra) # 210 <update_test>
     c2c:	212120b7          	lui	ra,0x21212
     c30:	12108093          	addi	ra,ra,289 # 21212121 <SSEG+0x10152121>
     c34:	00e00113          	li	sp,14
     c38:	00209f33          	sll	t5,ra,sp
     c3c:	48484eb7          	lui	t4,0x48484
     c40:	00f00193          	li	gp,15
     c44:	dfdf1663          	bne	t5,t4,230 <fail>
     c48:	fffff097          	auipc	ra,0xfffff
     c4c:	5c8080e7          	jalr	1480(ra) # 210 <update_test>
     c50:	212120b7          	lui	ra,0x21212
     c54:	12108093          	addi	ra,ra,289 # 21212121 <SSEG+0x10152121>
     c58:	01f00113          	li	sp,31
     c5c:	00209f33          	sll	t5,ra,sp
     c60:	80000eb7          	lui	t4,0x80000
     c64:	01000193          	li	gp,16
     c68:	dddf1463          	bne	t5,t4,230 <fail>
     c6c:	fffff097          	auipc	ra,0xfffff
     c70:	5a4080e7          	jalr	1444(ra) # 210 <update_test>
     c74:	212120b7          	lui	ra,0x21212
     c78:	12108093          	addi	ra,ra,289 # 21212121 <SSEG+0x10152121>
     c7c:	fc000113          	li	sp,-64
     c80:	00209f33          	sll	t5,ra,sp
     c84:	21212eb7          	lui	t4,0x21212
     c88:	121e8e93          	addi	t4,t4,289 # 21212121 <SSEG+0x10152121>
     c8c:	01100193          	li	gp,17
     c90:	dbdf1063          	bne	t5,t4,230 <fail>
     c94:	fffff097          	auipc	ra,0xfffff
     c98:	57c080e7          	jalr	1404(ra) # 210 <update_test>
     c9c:	212120b7          	lui	ra,0x21212
     ca0:	12108093          	addi	ra,ra,289 # 21212121 <SSEG+0x10152121>
     ca4:	fc100113          	li	sp,-63
     ca8:	00209f33          	sll	t5,ra,sp
     cac:	42424eb7          	lui	t4,0x42424
     cb0:	242e8e93          	addi	t4,t4,578 # 42424242 <SSEG+0x31364242>
     cb4:	01200193          	li	gp,18
     cb8:	d7df1c63          	bne	t5,t4,230 <fail>
     cbc:	fffff097          	auipc	ra,0xfffff
     cc0:	554080e7          	jalr	1364(ra) # 210 <update_test>
     cc4:	212120b7          	lui	ra,0x21212
     cc8:	12108093          	addi	ra,ra,289 # 21212121 <SSEG+0x10152121>
     ccc:	fc700113          	li	sp,-57
     cd0:	00209f33          	sll	t5,ra,sp
     cd4:	90909eb7          	lui	t4,0x90909
     cd8:	080e8e93          	addi	t4,t4,128 # 90909080 <SSEG+0x7f849080>
     cdc:	01300193          	li	gp,19
     ce0:	d5df1863          	bne	t5,t4,230 <fail>
     ce4:	fffff097          	auipc	ra,0xfffff
     ce8:	52c080e7          	jalr	1324(ra) # 210 <update_test>
     cec:	212120b7          	lui	ra,0x21212
     cf0:	12108093          	addi	ra,ra,289 # 21212121 <SSEG+0x10152121>
     cf4:	fce00113          	li	sp,-50
     cf8:	00209f33          	sll	t5,ra,sp
     cfc:	48484eb7          	lui	t4,0x48484
     d00:	01400193          	li	gp,20
     d04:	d3df1663          	bne	t5,t4,230 <fail>
     d08:	fffff097          	auipc	ra,0xfffff
     d0c:	508080e7          	jalr	1288(ra) # 210 <update_test>
     d10:	000f8067          	jr	t6

00000d14 <srl_test>:
     d14:	00000513          	li	a0,0
     d18:	00a62023          	sw	a0,0(a2)
     d1c:	800000b7          	lui	ra,0x80000
     d20:	00000113          	li	sp,0
     d24:	0020df33          	srl	t5,ra,sp
     d28:	80000eb7          	lui	t4,0x80000
     d2c:	00200193          	li	gp,2
     d30:	d1df1063          	bne	t5,t4,230 <fail>
     d34:	fffff097          	auipc	ra,0xfffff
     d38:	4dc080e7          	jalr	1244(ra) # 210 <update_test>
     d3c:	800000b7          	lui	ra,0x80000
     d40:	00100113          	li	sp,1
     d44:	0020df33          	srl	t5,ra,sp
     d48:	40000eb7          	lui	t4,0x40000
     d4c:	00300193          	li	gp,3
     d50:	cfdf1063          	bne	t5,t4,230 <fail>
     d54:	fffff097          	auipc	ra,0xfffff
     d58:	4bc080e7          	jalr	1212(ra) # 210 <update_test>
     d5c:	800000b7          	lui	ra,0x80000
     d60:	00700113          	li	sp,7
     d64:	0020df33          	srl	t5,ra,sp
     d68:	01000eb7          	lui	t4,0x1000
     d6c:	00400193          	li	gp,4
     d70:	cddf1063          	bne	t5,t4,230 <fail>
     d74:	fffff097          	auipc	ra,0xfffff
     d78:	49c080e7          	jalr	1180(ra) # 210 <update_test>
     d7c:	800000b7          	lui	ra,0x80000
     d80:	00e00113          	li	sp,14
     d84:	0020df33          	srl	t5,ra,sp
     d88:	00020eb7          	lui	t4,0x20
     d8c:	00500193          	li	gp,5
     d90:	cbdf1063          	bne	t5,t4,230 <fail>
     d94:	fffff097          	auipc	ra,0xfffff
     d98:	47c080e7          	jalr	1148(ra) # 210 <update_test>
     d9c:	800000b7          	lui	ra,0x80000
     da0:	00108093          	addi	ra,ra,1 # 80000001 <SSEG+0x6ef40001>
     da4:	01f00113          	li	sp,31
     da8:	0020df33          	srl	t5,ra,sp
     dac:	00100e93          	li	t4,1
     db0:	00600193          	li	gp,6
     db4:	c7df1e63          	bne	t5,t4,230 <fail>
     db8:	fffff097          	auipc	ra,0xfffff
     dbc:	458080e7          	jalr	1112(ra) # 210 <update_test>
     dc0:	fff00093          	li	ra,-1
     dc4:	00000113          	li	sp,0
     dc8:	0020df33          	srl	t5,ra,sp
     dcc:	fff00e93          	li	t4,-1
     dd0:	00700193          	li	gp,7
     dd4:	c5df1e63          	bne	t5,t4,230 <fail>
     dd8:	fffff097          	auipc	ra,0xfffff
     ddc:	438080e7          	jalr	1080(ra) # 210 <update_test>
     de0:	fff00093          	li	ra,-1
     de4:	00100113          	li	sp,1
     de8:	0020df33          	srl	t5,ra,sp
     dec:	80000eb7          	lui	t4,0x80000
     df0:	fffe8e93          	addi	t4,t4,-1 # 7fffffff <SSEG+0x6ef3ffff>
     df4:	00800193          	li	gp,8
     df8:	c3df1c63          	bne	t5,t4,230 <fail>
     dfc:	fffff097          	auipc	ra,0xfffff
     e00:	414080e7          	jalr	1044(ra) # 210 <update_test>
     e04:	fff00093          	li	ra,-1
     e08:	00700113          	li	sp,7
     e0c:	0020df33          	srl	t5,ra,sp
     e10:	02000eb7          	lui	t4,0x2000
     e14:	fffe8e93          	addi	t4,t4,-1 # 1ffffff <DELAY_CNT+0x1f0bdbf>
     e18:	00900193          	li	gp,9
     e1c:	c1df1a63          	bne	t5,t4,230 <fail>
     e20:	fffff097          	auipc	ra,0xfffff
     e24:	3f0080e7          	jalr	1008(ra) # 210 <update_test>
     e28:	fff00093          	li	ra,-1
     e2c:	00e00113          	li	sp,14
     e30:	0020df33          	srl	t5,ra,sp
     e34:	00040eb7          	lui	t4,0x40
     e38:	fffe8e93          	addi	t4,t4,-1 # 3ffff <__sp+0x2ffff>
     e3c:	00a00193          	li	gp,10
     e40:	bfdf1863          	bne	t5,t4,230 <fail>
     e44:	fffff097          	auipc	ra,0xfffff
     e48:	3cc080e7          	jalr	972(ra) # 210 <update_test>
     e4c:	fff00093          	li	ra,-1
     e50:	01f00113          	li	sp,31
     e54:	0020df33          	srl	t5,ra,sp
     e58:	00100e93          	li	t4,1
     e5c:	00b00193          	li	gp,11
     e60:	bddf1863          	bne	t5,t4,230 <fail>
     e64:	fffff097          	auipc	ra,0xfffff
     e68:	3ac080e7          	jalr	940(ra) # 210 <update_test>
     e6c:	212120b7          	lui	ra,0x21212
     e70:	12108093          	addi	ra,ra,289 # 21212121 <SSEG+0x10152121>
     e74:	00000113          	li	sp,0
     e78:	0020df33          	srl	t5,ra,sp
     e7c:	21212eb7          	lui	t4,0x21212
     e80:	121e8e93          	addi	t4,t4,289 # 21212121 <SSEG+0x10152121>
     e84:	00c00193          	li	gp,12
     e88:	bbdf1463          	bne	t5,t4,230 <fail>
     e8c:	fffff097          	auipc	ra,0xfffff
     e90:	384080e7          	jalr	900(ra) # 210 <update_test>
     e94:	212120b7          	lui	ra,0x21212
     e98:	12108093          	addi	ra,ra,289 # 21212121 <SSEG+0x10152121>
     e9c:	00100113          	li	sp,1
     ea0:	0020df33          	srl	t5,ra,sp
     ea4:	10909eb7          	lui	t4,0x10909
     ea8:	090e8e93          	addi	t4,t4,144 # 10909090 <DELAY_CNT+0x10814e50>
     eac:	00d00193          	li	gp,13
     eb0:	b9df1063          	bne	t5,t4,230 <fail>
     eb4:	fffff097          	auipc	ra,0xfffff
     eb8:	35c080e7          	jalr	860(ra) # 210 <update_test>
     ebc:	212120b7          	lui	ra,0x21212
     ec0:	12108093          	addi	ra,ra,289 # 21212121 <SSEG+0x10152121>
     ec4:	00700113          	li	sp,7
     ec8:	0020df33          	srl	t5,ra,sp
     ecc:	00424eb7          	lui	t4,0x424
     ed0:	242e8e93          	addi	t4,t4,578 # 424242 <DELAY_CNT+0x330002>
     ed4:	00e00193          	li	gp,14
     ed8:	b5df1c63          	bne	t5,t4,230 <fail>
     edc:	fffff097          	auipc	ra,0xfffff
     ee0:	334080e7          	jalr	820(ra) # 210 <update_test>
     ee4:	212120b7          	lui	ra,0x21212
     ee8:	12108093          	addi	ra,ra,289 # 21212121 <SSEG+0x10152121>
     eec:	00e00113          	li	sp,14
     ef0:	0020df33          	srl	t5,ra,sp
     ef4:	00008eb7          	lui	t4,0x8
     ef8:	484e8e93          	addi	t4,t4,1156 # 8484 <__global_pointer$+0x3d58>
     efc:	00f00193          	li	gp,15
     f00:	b3df1863          	bne	t5,t4,230 <fail>
     f04:	fffff097          	auipc	ra,0xfffff
     f08:	30c080e7          	jalr	780(ra) # 210 <update_test>
     f0c:	212120b7          	lui	ra,0x21212
     f10:	12108093          	addi	ra,ra,289 # 21212121 <SSEG+0x10152121>
     f14:	01f00113          	li	sp,31
     f18:	0020df33          	srl	t5,ra,sp
     f1c:	00000e93          	li	t4,0
     f20:	01000193          	li	gp,16
     f24:	b1df1663          	bne	t5,t4,230 <fail>
     f28:	fffff097          	auipc	ra,0xfffff
     f2c:	2e8080e7          	jalr	744(ra) # 210 <update_test>
     f30:	212120b7          	lui	ra,0x21212
     f34:	12108093          	addi	ra,ra,289 # 21212121 <SSEG+0x10152121>
     f38:	fc000113          	li	sp,-64
     f3c:	0020df33          	srl	t5,ra,sp
     f40:	21212eb7          	lui	t4,0x21212
     f44:	121e8e93          	addi	t4,t4,289 # 21212121 <SSEG+0x10152121>
     f48:	01100193          	li	gp,17
     f4c:	afdf1263          	bne	t5,t4,230 <fail>
     f50:	fffff097          	auipc	ra,0xfffff
     f54:	2c0080e7          	jalr	704(ra) # 210 <update_test>
     f58:	212120b7          	lui	ra,0x21212
     f5c:	12108093          	addi	ra,ra,289 # 21212121 <SSEG+0x10152121>
     f60:	fc100113          	li	sp,-63
     f64:	0020df33          	srl	t5,ra,sp
     f68:	10909eb7          	lui	t4,0x10909
     f6c:	090e8e93          	addi	t4,t4,144 # 10909090 <DELAY_CNT+0x10814e50>
     f70:	01200193          	li	gp,18
     f74:	abdf1e63          	bne	t5,t4,230 <fail>
     f78:	fffff097          	auipc	ra,0xfffff
     f7c:	298080e7          	jalr	664(ra) # 210 <update_test>
     f80:	000f8067          	jr	t6

00000f84 <sra_test>:
     f84:	00000513          	li	a0,0
     f88:	00a62023          	sw	a0,0(a2)
     f8c:	800000b7          	lui	ra,0x80000
     f90:	00000113          	li	sp,0
     f94:	4020df33          	sra	t5,ra,sp
     f98:	80000eb7          	lui	t4,0x80000
     f9c:	00200193          	li	gp,2
     fa0:	a9df1863          	bne	t5,t4,230 <fail>
     fa4:	fffff097          	auipc	ra,0xfffff
     fa8:	26c080e7          	jalr	620(ra) # 210 <update_test>
     fac:	800000b7          	lui	ra,0x80000
     fb0:	00100113          	li	sp,1
     fb4:	4020df33          	sra	t5,ra,sp
     fb8:	c0000eb7          	lui	t4,0xc0000
     fbc:	00300193          	li	gp,3
     fc0:	a7df1863          	bne	t5,t4,230 <fail>
     fc4:	fffff097          	auipc	ra,0xfffff
     fc8:	24c080e7          	jalr	588(ra) # 210 <update_test>
     fcc:	800000b7          	lui	ra,0x80000
     fd0:	00700113          	li	sp,7
     fd4:	4020df33          	sra	t5,ra,sp
     fd8:	ff000eb7          	lui	t4,0xff000
     fdc:	00400193          	li	gp,4
     fe0:	a5df1863          	bne	t5,t4,230 <fail>
     fe4:	fffff097          	auipc	ra,0xfffff
     fe8:	22c080e7          	jalr	556(ra) # 210 <update_test>
     fec:	800000b7          	lui	ra,0x80000
     ff0:	00e00113          	li	sp,14
     ff4:	4020df33          	sra	t5,ra,sp
     ff8:	fffe0eb7          	lui	t4,0xfffe0
     ffc:	00500193          	li	gp,5
    1000:	a3df1863          	bne	t5,t4,230 <fail>
    1004:	fffff097          	auipc	ra,0xfffff
    1008:	20c080e7          	jalr	524(ra) # 210 <update_test>
    100c:	800000b7          	lui	ra,0x80000
    1010:	00108093          	addi	ra,ra,1 # 80000001 <SSEG+0x6ef40001>
    1014:	01f00113          	li	sp,31
    1018:	4020df33          	sra	t5,ra,sp
    101c:	fff00e93          	li	t4,-1
    1020:	00600193          	li	gp,6
    1024:	a1df1663          	bne	t5,t4,230 <fail>
    1028:	fffff097          	auipc	ra,0xfffff
    102c:	1e8080e7          	jalr	488(ra) # 210 <update_test>
    1030:	800000b7          	lui	ra,0x80000
    1034:	fff08093          	addi	ra,ra,-1 # 7fffffff <SSEG+0x6ef3ffff>
    1038:	00000113          	li	sp,0
    103c:	4020df33          	sra	t5,ra,sp
    1040:	80000eb7          	lui	t4,0x80000
    1044:	fffe8e93          	addi	t4,t4,-1 # 7fffffff <SSEG+0x6ef3ffff>
    1048:	00700193          	li	gp,7
    104c:	9fdf1263          	bne	t5,t4,230 <fail>
    1050:	fffff097          	auipc	ra,0xfffff
    1054:	1c0080e7          	jalr	448(ra) # 210 <update_test>
    1058:	800000b7          	lui	ra,0x80000
    105c:	fff08093          	addi	ra,ra,-1 # 7fffffff <SSEG+0x6ef3ffff>
    1060:	00100113          	li	sp,1
    1064:	4020df33          	sra	t5,ra,sp
    1068:	40000eb7          	lui	t4,0x40000
    106c:	fffe8e93          	addi	t4,t4,-1 # 3fffffff <SSEG+0x2ef3ffff>
    1070:	00800193          	li	gp,8
    1074:	9bdf1e63          	bne	t5,t4,230 <fail>
    1078:	fffff097          	auipc	ra,0xfffff
    107c:	198080e7          	jalr	408(ra) # 210 <update_test>
    1080:	800000b7          	lui	ra,0x80000
    1084:	fff08093          	addi	ra,ra,-1 # 7fffffff <SSEG+0x6ef3ffff>
    1088:	00700113          	li	sp,7
    108c:	4020df33          	sra	t5,ra,sp
    1090:	01000eb7          	lui	t4,0x1000
    1094:	fffe8e93          	addi	t4,t4,-1 # ffffff <DELAY_CNT+0xf0bdbf>
    1098:	00900193          	li	gp,9
    109c:	99df1a63          	bne	t5,t4,230 <fail>
    10a0:	fffff097          	auipc	ra,0xfffff
    10a4:	170080e7          	jalr	368(ra) # 210 <update_test>
    10a8:	800000b7          	lui	ra,0x80000
    10ac:	fff08093          	addi	ra,ra,-1 # 7fffffff <SSEG+0x6ef3ffff>
    10b0:	00e00113          	li	sp,14
    10b4:	4020df33          	sra	t5,ra,sp
    10b8:	00020eb7          	lui	t4,0x20
    10bc:	fffe8e93          	addi	t4,t4,-1 # 1ffff <__sp+0xffff>
    10c0:	00a00193          	li	gp,10
    10c4:	97df1663          	bne	t5,t4,230 <fail>
    10c8:	fffff097          	auipc	ra,0xfffff
    10cc:	148080e7          	jalr	328(ra) # 210 <update_test>
    10d0:	800000b7          	lui	ra,0x80000
    10d4:	fff08093          	addi	ra,ra,-1 # 7fffffff <SSEG+0x6ef3ffff>
    10d8:	01f00113          	li	sp,31
    10dc:	4020df33          	sra	t5,ra,sp
    10e0:	00000e93          	li	t4,0
    10e4:	00b00193          	li	gp,11
    10e8:	95df1463          	bne	t5,t4,230 <fail>
    10ec:	fffff097          	auipc	ra,0xfffff
    10f0:	124080e7          	jalr	292(ra) # 210 <update_test>
    10f4:	818180b7          	lui	ra,0x81818
    10f8:	18108093          	addi	ra,ra,385 # 81818181 <SSEG+0x70758181>
    10fc:	00000113          	li	sp,0
    1100:	4020df33          	sra	t5,ra,sp
    1104:	81818eb7          	lui	t4,0x81818
    1108:	181e8e93          	addi	t4,t4,385 # 81818181 <SSEG+0x70758181>
    110c:	00c00193          	li	gp,12
    1110:	93df1063          	bne	t5,t4,230 <fail>
    1114:	fffff097          	auipc	ra,0xfffff
    1118:	0fc080e7          	jalr	252(ra) # 210 <update_test>
    111c:	818180b7          	lui	ra,0x81818
    1120:	18108093          	addi	ra,ra,385 # 81818181 <SSEG+0x70758181>
    1124:	00100113          	li	sp,1
    1128:	4020df33          	sra	t5,ra,sp
    112c:	c0c0ceb7          	lui	t4,0xc0c0c
    1130:	0c0e8e93          	addi	t4,t4,192 # c0c0c0c0 <SSEG+0xafb4c0c0>
    1134:	00d00193          	li	gp,13
    1138:	8fdf1c63          	bne	t5,t4,230 <fail>
    113c:	fffff097          	auipc	ra,0xfffff
    1140:	0d4080e7          	jalr	212(ra) # 210 <update_test>
    1144:	818180b7          	lui	ra,0x81818
    1148:	18108093          	addi	ra,ra,385 # 81818181 <SSEG+0x70758181>
    114c:	00700113          	li	sp,7
    1150:	4020df33          	sra	t5,ra,sp
    1154:	ff030eb7          	lui	t4,0xff030
    1158:	303e8e93          	addi	t4,t4,771 # ff030303 <SSEG+0xedf70303>
    115c:	00e00193          	li	gp,14
    1160:	8ddf1863          	bne	t5,t4,230 <fail>
    1164:	fffff097          	auipc	ra,0xfffff
    1168:	0ac080e7          	jalr	172(ra) # 210 <update_test>
    116c:	818180b7          	lui	ra,0x81818
    1170:	18108093          	addi	ra,ra,385 # 81818181 <SSEG+0x70758181>
    1174:	00e00113          	li	sp,14
    1178:	4020df33          	sra	t5,ra,sp
    117c:	fffe0eb7          	lui	t4,0xfffe0
    1180:	606e8e93          	addi	t4,t4,1542 # fffe0606 <SSEG+0xeef20606>
    1184:	00f00193          	li	gp,15
    1188:	8bdf1463          	bne	t5,t4,230 <fail>
    118c:	fffff097          	auipc	ra,0xfffff
    1190:	084080e7          	jalr	132(ra) # 210 <update_test>
    1194:	818180b7          	lui	ra,0x81818
    1198:	18108093          	addi	ra,ra,385 # 81818181 <SSEG+0x70758181>
    119c:	01f00113          	li	sp,31
    11a0:	4020df33          	sra	t5,ra,sp
    11a4:	fff00e93          	li	t4,-1
    11a8:	01000193          	li	gp,16
    11ac:	89df1263          	bne	t5,t4,230 <fail>
    11b0:	fffff097          	auipc	ra,0xfffff
    11b4:	060080e7          	jalr	96(ra) # 210 <update_test>
    11b8:	818180b7          	lui	ra,0x81818
    11bc:	18108093          	addi	ra,ra,385 # 81818181 <SSEG+0x70758181>
    11c0:	fc000113          	li	sp,-64
    11c4:	4020df33          	sra	t5,ra,sp
    11c8:	81818eb7          	lui	t4,0x81818
    11cc:	181e8e93          	addi	t4,t4,385 # 81818181 <SSEG+0x70758181>
    11d0:	01100193          	li	gp,17
    11d4:	85df1e63          	bne	t5,t4,230 <fail>
    11d8:	fffff097          	auipc	ra,0xfffff
    11dc:	038080e7          	jalr	56(ra) # 210 <update_test>
    11e0:	818180b7          	lui	ra,0x81818
    11e4:	18108093          	addi	ra,ra,385 # 81818181 <SSEG+0x70758181>
    11e8:	fc100113          	li	sp,-63
    11ec:	4020df33          	sra	t5,ra,sp
    11f0:	c0c0ceb7          	lui	t4,0xc0c0c
    11f4:	0c0e8e93          	addi	t4,t4,192 # c0c0c0c0 <SSEG+0xafb4c0c0>
    11f8:	01200193          	li	gp,18
    11fc:	83df1a63          	bne	t5,t4,230 <fail>
    1200:	fffff097          	auipc	ra,0xfffff
    1204:	010080e7          	jalr	16(ra) # 210 <update_test>
    1208:	818180b7          	lui	ra,0x81818
    120c:	18108093          	addi	ra,ra,385 # 81818181 <SSEG+0x70758181>
    1210:	fc700113          	li	sp,-57
    1214:	4020df33          	sra	t5,ra,sp
    1218:	ff030eb7          	lui	t4,0xff030
    121c:	303e8e93          	addi	t4,t4,771 # ff030303 <SSEG+0xedf70303>
    1220:	01300193          	li	gp,19
    1224:	81df1663          	bne	t5,t4,230 <fail>
    1228:	fffff097          	auipc	ra,0xfffff
    122c:	fe8080e7          	jalr	-24(ra) # 210 <update_test>
    1230:	818180b7          	lui	ra,0x81818
    1234:	18108093          	addi	ra,ra,385 # 81818181 <SSEG+0x70758181>
    1238:	fce00113          	li	sp,-50
    123c:	4020df33          	sra	t5,ra,sp
    1240:	fffe0eb7          	lui	t4,0xfffe0
    1244:	606e8e93          	addi	t4,t4,1542 # fffe0606 <SSEG+0xeef20606>
    1248:	01400193          	li	gp,20
    124c:	01df0463          	beq	t5,t4,1254 <sra_test+0x2d0>
    1250:	fe1fe06f          	j	230 <fail>
    1254:	fffff097          	auipc	ra,0xfffff
    1258:	fbc080e7          	jalr	-68(ra) # 210 <update_test>
    125c:	818180b7          	lui	ra,0x81818
    1260:	18108093          	addi	ra,ra,385 # 81818181 <SSEG+0x70758181>
    1264:	fff00113          	li	sp,-1
    1268:	4020df33          	sra	t5,ra,sp
    126c:	fff00e93          	li	t4,-1
    1270:	01500193          	li	gp,21
    1274:	01df0463          	beq	t5,t4,127c <sra_test+0x2f8>
    1278:	fb9fe06f          	j	230 <fail>
    127c:	fffff097          	auipc	ra,0xfffff
    1280:	f94080e7          	jalr	-108(ra) # 210 <update_test>
    1284:	000f8067          	jr	t6

00001288 <slt_test>:
    1288:	00000513          	li	a0,0
    128c:	00a62023          	sw	a0,0(a2)
    1290:	00000093          	li	ra,0
    1294:	00000113          	li	sp,0
    1298:	0020af33          	slt	t5,ra,sp
    129c:	00000e93          	li	t4,0
    12a0:	00200193          	li	gp,2
    12a4:	01df0463          	beq	t5,t4,12ac <slt_test+0x24>
    12a8:	f89fe06f          	j	230 <fail>
    12ac:	fffff097          	auipc	ra,0xfffff
    12b0:	f64080e7          	jalr	-156(ra) # 210 <update_test>
    12b4:	00100093          	li	ra,1
    12b8:	00100113          	li	sp,1
    12bc:	0020af33          	slt	t5,ra,sp
    12c0:	00000e93          	li	t4,0
    12c4:	00300193          	li	gp,3
    12c8:	01df0463          	beq	t5,t4,12d0 <slt_test+0x48>
    12cc:	f65fe06f          	j	230 <fail>
    12d0:	fffff097          	auipc	ra,0xfffff
    12d4:	f40080e7          	jalr	-192(ra) # 210 <update_test>
    12d8:	00300093          	li	ra,3
    12dc:	00700113          	li	sp,7
    12e0:	0020af33          	slt	t5,ra,sp
    12e4:	00100e93          	li	t4,1
    12e8:	00400193          	li	gp,4
    12ec:	01df0463          	beq	t5,t4,12f4 <slt_test+0x6c>
    12f0:	f41fe06f          	j	230 <fail>
    12f4:	fffff097          	auipc	ra,0xfffff
    12f8:	f1c080e7          	jalr	-228(ra) # 210 <update_test>
    12fc:	00700093          	li	ra,7
    1300:	00300113          	li	sp,3
    1304:	0020af33          	slt	t5,ra,sp
    1308:	00000e93          	li	t4,0
    130c:	00500193          	li	gp,5
    1310:	01df0463          	beq	t5,t4,1318 <slt_test+0x90>
    1314:	f1dfe06f          	j	230 <fail>
    1318:	fffff097          	auipc	ra,0xfffff
    131c:	ef8080e7          	jalr	-264(ra) # 210 <update_test>
    1320:	00000093          	li	ra,0
    1324:	ffff8137          	lui	sp,0xffff8
    1328:	0020af33          	slt	t5,ra,sp
    132c:	00000e93          	li	t4,0
    1330:	00600193          	li	gp,6
    1334:	01df0463          	beq	t5,t4,133c <slt_test+0xb4>
    1338:	ef9fe06f          	j	230 <fail>
    133c:	fffff097          	auipc	ra,0xfffff
    1340:	ed4080e7          	jalr	-300(ra) # 210 <update_test>
    1344:	800000b7          	lui	ra,0x80000
    1348:	00000113          	li	sp,0
    134c:	0020af33          	slt	t5,ra,sp
    1350:	00100e93          	li	t4,1
    1354:	00700193          	li	gp,7
    1358:	01df0463          	beq	t5,t4,1360 <slt_test+0xd8>
    135c:	ed5fe06f          	j	230 <fail>
    1360:	fffff097          	auipc	ra,0xfffff
    1364:	eb0080e7          	jalr	-336(ra) # 210 <update_test>
    1368:	800000b7          	lui	ra,0x80000
    136c:	ffff8137          	lui	sp,0xffff8
    1370:	0020af33          	slt	t5,ra,sp
    1374:	00100e93          	li	t4,1
    1378:	00800193          	li	gp,8
    137c:	01df0463          	beq	t5,t4,1384 <slt_test+0xfc>
    1380:	eb1fe06f          	j	230 <fail>
    1384:	fffff097          	auipc	ra,0xfffff
    1388:	e8c080e7          	jalr	-372(ra) # 210 <update_test>
    138c:	00000093          	li	ra,0
    1390:	00008137          	lui	sp,0x8
    1394:	fff10113          	addi	sp,sp,-1 # 7fff <__global_pointer$+0x38d3>
    1398:	0020af33          	slt	t5,ra,sp
    139c:	00100e93          	li	t4,1
    13a0:	00900193          	li	gp,9
    13a4:	01df0463          	beq	t5,t4,13ac <slt_test+0x124>
    13a8:	e89fe06f          	j	230 <fail>
    13ac:	fffff097          	auipc	ra,0xfffff
    13b0:	e64080e7          	jalr	-412(ra) # 210 <update_test>
    13b4:	800000b7          	lui	ra,0x80000
    13b8:	fff08093          	addi	ra,ra,-1 # 7fffffff <SSEG+0x6ef3ffff>
    13bc:	00000113          	li	sp,0
    13c0:	0020af33          	slt	t5,ra,sp
    13c4:	00000e93          	li	t4,0
    13c8:	00a00193          	li	gp,10
    13cc:	01df0463          	beq	t5,t4,13d4 <slt_test+0x14c>
    13d0:	e61fe06f          	j	230 <fail>
    13d4:	fffff097          	auipc	ra,0xfffff
    13d8:	e3c080e7          	jalr	-452(ra) # 210 <update_test>
    13dc:	800000b7          	lui	ra,0x80000
    13e0:	fff08093          	addi	ra,ra,-1 # 7fffffff <SSEG+0x6ef3ffff>
    13e4:	00008137          	lui	sp,0x8
    13e8:	fff10113          	addi	sp,sp,-1 # 7fff <__global_pointer$+0x38d3>
    13ec:	0020af33          	slt	t5,ra,sp
    13f0:	00000e93          	li	t4,0
    13f4:	00b00193          	li	gp,11
    13f8:	01df0463          	beq	t5,t4,1400 <slt_test+0x178>
    13fc:	e35fe06f          	j	230 <fail>
    1400:	fffff097          	auipc	ra,0xfffff
    1404:	e10080e7          	jalr	-496(ra) # 210 <update_test>
    1408:	800000b7          	lui	ra,0x80000
    140c:	00008137          	lui	sp,0x8
    1410:	fff10113          	addi	sp,sp,-1 # 7fff <__global_pointer$+0x38d3>
    1414:	0020af33          	slt	t5,ra,sp
    1418:	00100e93          	li	t4,1
    141c:	00c00193          	li	gp,12
    1420:	01df0463          	beq	t5,t4,1428 <slt_test+0x1a0>
    1424:	e0dfe06f          	j	230 <fail>
    1428:	fffff097          	auipc	ra,0xfffff
    142c:	de8080e7          	jalr	-536(ra) # 210 <update_test>
    1430:	800000b7          	lui	ra,0x80000
    1434:	fff08093          	addi	ra,ra,-1 # 7fffffff <SSEG+0x6ef3ffff>
    1438:	ffff8137          	lui	sp,0xffff8
    143c:	0020af33          	slt	t5,ra,sp
    1440:	00000e93          	li	t4,0
    1444:	00d00193          	li	gp,13
    1448:	01df0463          	beq	t5,t4,1450 <slt_test+0x1c8>
    144c:	de5fe06f          	j	230 <fail>
    1450:	fffff097          	auipc	ra,0xfffff
    1454:	dc0080e7          	jalr	-576(ra) # 210 <update_test>
    1458:	00000093          	li	ra,0
    145c:	fff00113          	li	sp,-1
    1460:	0020af33          	slt	t5,ra,sp
    1464:	00000e93          	li	t4,0
    1468:	00e00193          	li	gp,14
    146c:	01df0463          	beq	t5,t4,1474 <slt_test+0x1ec>
    1470:	dc1fe06f          	j	230 <fail>
    1474:	fffff097          	auipc	ra,0xfffff
    1478:	d9c080e7          	jalr	-612(ra) # 210 <update_test>
    147c:	fff00093          	li	ra,-1
    1480:	00100113          	li	sp,1
    1484:	0020af33          	slt	t5,ra,sp
    1488:	00100e93          	li	t4,1
    148c:	00f00193          	li	gp,15
    1490:	01df0463          	beq	t5,t4,1498 <slt_test+0x210>
    1494:	d9dfe06f          	j	230 <fail>
    1498:	fffff097          	auipc	ra,0xfffff
    149c:	d78080e7          	jalr	-648(ra) # 210 <update_test>
    14a0:	fff00093          	li	ra,-1
    14a4:	fff00113          	li	sp,-1
    14a8:	0020af33          	slt	t5,ra,sp
    14ac:	00000e93          	li	t4,0
    14b0:	01000193          	li	gp,16
    14b4:	01df0463          	beq	t5,t4,14bc <slt_test+0x234>
    14b8:	d79fe06f          	j	230 <fail>
    14bc:	fffff097          	auipc	ra,0xfffff
    14c0:	d54080e7          	jalr	-684(ra) # 210 <update_test>
    14c4:	00e00093          	li	ra,14
    14c8:	00d00113          	li	sp,13
    14cc:	0020a0b3          	slt	ra,ra,sp
    14d0:	00000e93          	li	t4,0
    14d4:	01100193          	li	gp,17
    14d8:	01d08463          	beq	ra,t4,14e0 <slt_test+0x258>
    14dc:	d55fe06f          	j	230 <fail>
    14e0:	fffff097          	auipc	ra,0xfffff
    14e4:	d30080e7          	jalr	-720(ra) # 210 <update_test>
    14e8:	000f8067          	jr	t6

000014ec <sltu_test>:
    14ec:	00000513          	li	a0,0
    14f0:	00a62023          	sw	a0,0(a2)
    14f4:	00000093          	li	ra,0
    14f8:	00000113          	li	sp,0
    14fc:	0020bf33          	sltu	t5,ra,sp
    1500:	00000e93          	li	t4,0
    1504:	00200193          	li	gp,2
    1508:	01df0463          	beq	t5,t4,1510 <sltu_test+0x24>
    150c:	d25fe06f          	j	230 <fail>
    1510:	fffff097          	auipc	ra,0xfffff
    1514:	d00080e7          	jalr	-768(ra) # 210 <update_test>
    1518:	00100093          	li	ra,1
    151c:	00100113          	li	sp,1
    1520:	0020bf33          	sltu	t5,ra,sp
    1524:	00000e93          	li	t4,0
    1528:	00300193          	li	gp,3
    152c:	01df0463          	beq	t5,t4,1534 <sltu_test+0x48>
    1530:	d01fe06f          	j	230 <fail>
    1534:	fffff097          	auipc	ra,0xfffff
    1538:	cdc080e7          	jalr	-804(ra) # 210 <update_test>
    153c:	00300093          	li	ra,3
    1540:	00700113          	li	sp,7
    1544:	0020bf33          	sltu	t5,ra,sp
    1548:	00100e93          	li	t4,1
    154c:	00400193          	li	gp,4
    1550:	01df0463          	beq	t5,t4,1558 <sltu_test+0x6c>
    1554:	cddfe06f          	j	230 <fail>
    1558:	fffff097          	auipc	ra,0xfffff
    155c:	cb8080e7          	jalr	-840(ra) # 210 <update_test>
    1560:	00700093          	li	ra,7
    1564:	00300113          	li	sp,3
    1568:	0020bf33          	sltu	t5,ra,sp
    156c:	00000e93          	li	t4,0
    1570:	00500193          	li	gp,5
    1574:	01df0463          	beq	t5,t4,157c <sltu_test+0x90>
    1578:	cb9fe06f          	j	230 <fail>
    157c:	fffff097          	auipc	ra,0xfffff
    1580:	c94080e7          	jalr	-876(ra) # 210 <update_test>
    1584:	00000093          	li	ra,0
    1588:	ffff8137          	lui	sp,0xffff8
    158c:	0020bf33          	sltu	t5,ra,sp
    1590:	00100e93          	li	t4,1
    1594:	00600193          	li	gp,6
    1598:	01df0463          	beq	t5,t4,15a0 <sltu_test+0xb4>
    159c:	c95fe06f          	j	230 <fail>
    15a0:	fffff097          	auipc	ra,0xfffff
    15a4:	c70080e7          	jalr	-912(ra) # 210 <update_test>
    15a8:	800000b7          	lui	ra,0x80000
    15ac:	00000113          	li	sp,0
    15b0:	0020bf33          	sltu	t5,ra,sp
    15b4:	00000e93          	li	t4,0
    15b8:	00700193          	li	gp,7
    15bc:	01df0463          	beq	t5,t4,15c4 <sltu_test+0xd8>
    15c0:	c71fe06f          	j	230 <fail>
    15c4:	fffff097          	auipc	ra,0xfffff
    15c8:	c4c080e7          	jalr	-948(ra) # 210 <update_test>
    15cc:	800000b7          	lui	ra,0x80000
    15d0:	ffff8137          	lui	sp,0xffff8
    15d4:	0020bf33          	sltu	t5,ra,sp
    15d8:	00100e93          	li	t4,1
    15dc:	00800193          	li	gp,8
    15e0:	01df0463          	beq	t5,t4,15e8 <sltu_test+0xfc>
    15e4:	c4dfe06f          	j	230 <fail>
    15e8:	fffff097          	auipc	ra,0xfffff
    15ec:	c28080e7          	jalr	-984(ra) # 210 <update_test>
    15f0:	00000093          	li	ra,0
    15f4:	00008137          	lui	sp,0x8
    15f8:	fff10113          	addi	sp,sp,-1 # 7fff <__global_pointer$+0x38d3>
    15fc:	0020bf33          	sltu	t5,ra,sp
    1600:	00100e93          	li	t4,1
    1604:	00900193          	li	gp,9
    1608:	01df0463          	beq	t5,t4,1610 <sltu_test+0x124>
    160c:	c25fe06f          	j	230 <fail>
    1610:	fffff097          	auipc	ra,0xfffff
    1614:	c00080e7          	jalr	-1024(ra) # 210 <update_test>
    1618:	800000b7          	lui	ra,0x80000
    161c:	fff08093          	addi	ra,ra,-1 # 7fffffff <SSEG+0x6ef3ffff>
    1620:	00000113          	li	sp,0
    1624:	0020bf33          	sltu	t5,ra,sp
    1628:	00000e93          	li	t4,0
    162c:	00a00193          	li	gp,10
    1630:	01df0463          	beq	t5,t4,1638 <sltu_test+0x14c>
    1634:	bfdfe06f          	j	230 <fail>
    1638:	fffff097          	auipc	ra,0xfffff
    163c:	bd8080e7          	jalr	-1064(ra) # 210 <update_test>
    1640:	800000b7          	lui	ra,0x80000
    1644:	fff08093          	addi	ra,ra,-1 # 7fffffff <SSEG+0x6ef3ffff>
    1648:	00008137          	lui	sp,0x8
    164c:	fff10113          	addi	sp,sp,-1 # 7fff <__global_pointer$+0x38d3>
    1650:	0020bf33          	sltu	t5,ra,sp
    1654:	00000e93          	li	t4,0
    1658:	00b00193          	li	gp,11
    165c:	01df0463          	beq	t5,t4,1664 <sltu_test+0x178>
    1660:	bd1fe06f          	j	230 <fail>
    1664:	fffff097          	auipc	ra,0xfffff
    1668:	bac080e7          	jalr	-1108(ra) # 210 <update_test>
    166c:	800000b7          	lui	ra,0x80000
    1670:	00008137          	lui	sp,0x8
    1674:	fff10113          	addi	sp,sp,-1 # 7fff <__global_pointer$+0x38d3>
    1678:	0020bf33          	sltu	t5,ra,sp
    167c:	00000e93          	li	t4,0
    1680:	00c00193          	li	gp,12
    1684:	01df0463          	beq	t5,t4,168c <sltu_test+0x1a0>
    1688:	ba9fe06f          	j	230 <fail>
    168c:	fffff097          	auipc	ra,0xfffff
    1690:	b84080e7          	jalr	-1148(ra) # 210 <update_test>
    1694:	800000b7          	lui	ra,0x80000
    1698:	fff08093          	addi	ra,ra,-1 # 7fffffff <SSEG+0x6ef3ffff>
    169c:	ffff8137          	lui	sp,0xffff8
    16a0:	0020bf33          	sltu	t5,ra,sp
    16a4:	00100e93          	li	t4,1
    16a8:	00d00193          	li	gp,13
    16ac:	01df0463          	beq	t5,t4,16b4 <sltu_test+0x1c8>
    16b0:	b81fe06f          	j	230 <fail>
    16b4:	fffff097          	auipc	ra,0xfffff
    16b8:	b5c080e7          	jalr	-1188(ra) # 210 <update_test>
    16bc:	00000093          	li	ra,0
    16c0:	fff00113          	li	sp,-1
    16c4:	0020bf33          	sltu	t5,ra,sp
    16c8:	00100e93          	li	t4,1
    16cc:	00e00193          	li	gp,14
    16d0:	01df0463          	beq	t5,t4,16d8 <sltu_test+0x1ec>
    16d4:	b5dfe06f          	j	230 <fail>
    16d8:	fffff097          	auipc	ra,0xfffff
    16dc:	b38080e7          	jalr	-1224(ra) # 210 <update_test>
    16e0:	fff00093          	li	ra,-1
    16e4:	00100113          	li	sp,1
    16e8:	0020bf33          	sltu	t5,ra,sp
    16ec:	00000e93          	li	t4,0
    16f0:	00f00193          	li	gp,15
    16f4:	01df0463          	beq	t5,t4,16fc <sltu_test+0x210>
    16f8:	b39fe06f          	j	230 <fail>
    16fc:	fffff097          	auipc	ra,0xfffff
    1700:	b14080e7          	jalr	-1260(ra) # 210 <update_test>
    1704:	fff00093          	li	ra,-1
    1708:	fff00113          	li	sp,-1
    170c:	0020bf33          	sltu	t5,ra,sp
    1710:	00000e93          	li	t4,0
    1714:	01000193          	li	gp,16
    1718:	01df0463          	beq	t5,t4,1720 <sltu_test+0x234>
    171c:	b15fe06f          	j	230 <fail>
    1720:	fffff097          	auipc	ra,0xfffff
    1724:	af0080e7          	jalr	-1296(ra) # 210 <update_test>
    1728:	00e00093          	li	ra,14
    172c:	00d00113          	li	sp,13
    1730:	0020b0b3          	sltu	ra,ra,sp
    1734:	00000e93          	li	t4,0
    1738:	01100193          	li	gp,17
    173c:	01d08463          	beq	ra,t4,1744 <sltu_test+0x258>
    1740:	af1fe06f          	j	230 <fail>
    1744:	fffff097          	auipc	ra,0xfffff
    1748:	acc080e7          	jalr	-1332(ra) # 210 <update_test>
    174c:	000f8067          	jr	t6

00001750 <addi_test>:
    1750:	00000513          	li	a0,0
    1754:	00a62023          	sw	a0,0(a2)
    1758:	00000093          	li	ra,0
    175c:	00008f13          	mv	t5,ra
    1760:	00000e93          	li	t4,0
    1764:	00200193          	li	gp,2
    1768:	01df0463          	beq	t5,t4,1770 <addi_test+0x20>
    176c:	ac5fe06f          	j	230 <fail>
    1770:	fffff097          	auipc	ra,0xfffff
    1774:	aa0080e7          	jalr	-1376(ra) # 210 <update_test>
    1778:	00100093          	li	ra,1
    177c:	00108f13          	addi	t5,ra,1
    1780:	00200e93          	li	t4,2
    1784:	00300193          	li	gp,3
    1788:	01df0463          	beq	t5,t4,1790 <addi_test+0x40>
    178c:	aa5fe06f          	j	230 <fail>
    1790:	fffff097          	auipc	ra,0xfffff
    1794:	a80080e7          	jalr	-1408(ra) # 210 <update_test>
    1798:	00300093          	li	ra,3
    179c:	00708f13          	addi	t5,ra,7
    17a0:	00a00e93          	li	t4,10
    17a4:	00400193          	li	gp,4
    17a8:	01df0463          	beq	t5,t4,17b0 <addi_test+0x60>
    17ac:	a85fe06f          	j	230 <fail>
    17b0:	fffff097          	auipc	ra,0xfffff
    17b4:	a60080e7          	jalr	-1440(ra) # 210 <update_test>
    17b8:	00000093          	li	ra,0
    17bc:	80008f13          	addi	t5,ra,-2048
    17c0:	80000e93          	li	t4,-2048
    17c4:	00500193          	li	gp,5
    17c8:	01df0463          	beq	t5,t4,17d0 <addi_test+0x80>
    17cc:	a65fe06f          	j	230 <fail>
    17d0:	fffff097          	auipc	ra,0xfffff
    17d4:	a40080e7          	jalr	-1472(ra) # 210 <update_test>
    17d8:	800000b7          	lui	ra,0x80000
    17dc:	00008f13          	mv	t5,ra
    17e0:	80000eb7          	lui	t4,0x80000
    17e4:	00600193          	li	gp,6
    17e8:	01df0463          	beq	t5,t4,17f0 <addi_test+0xa0>
    17ec:	a45fe06f          	j	230 <fail>
    17f0:	fffff097          	auipc	ra,0xfffff
    17f4:	a20080e7          	jalr	-1504(ra) # 210 <update_test>
    17f8:	800000b7          	lui	ra,0x80000
    17fc:	80008f13          	addi	t5,ra,-2048 # 7ffff800 <SSEG+0x6ef3f800>
    1800:	80000eb7          	lui	t4,0x80000
    1804:	800e8e93          	addi	t4,t4,-2048 # 7ffff800 <SSEG+0x6ef3f800>
    1808:	00700193          	li	gp,7
    180c:	01df0463          	beq	t5,t4,1814 <addi_test+0xc4>
    1810:	a21fe06f          	j	230 <fail>
    1814:	fffff097          	auipc	ra,0xfffff
    1818:	9fc080e7          	jalr	-1540(ra) # 210 <update_test>
    181c:	00000093          	li	ra,0
    1820:	7ff08f13          	addi	t5,ra,2047
    1824:	7ff00e93          	li	t4,2047
    1828:	00800193          	li	gp,8
    182c:	01df0463          	beq	t5,t4,1834 <addi_test+0xe4>
    1830:	a01fe06f          	j	230 <fail>
    1834:	fffff097          	auipc	ra,0xfffff
    1838:	9dc080e7          	jalr	-1572(ra) # 210 <update_test>
    183c:	800000b7          	lui	ra,0x80000
    1840:	fff08093          	addi	ra,ra,-1 # 7fffffff <SSEG+0x6ef3ffff>
    1844:	00008f13          	mv	t5,ra
    1848:	80000eb7          	lui	t4,0x80000
    184c:	fffe8e93          	addi	t4,t4,-1 # 7fffffff <SSEG+0x6ef3ffff>
    1850:	00900193          	li	gp,9
    1854:	01df0463          	beq	t5,t4,185c <addi_test+0x10c>
    1858:	9d9fe06f          	j	230 <fail>
    185c:	fffff097          	auipc	ra,0xfffff
    1860:	9b4080e7          	jalr	-1612(ra) # 210 <update_test>
    1864:	800000b7          	lui	ra,0x80000
    1868:	fff08093          	addi	ra,ra,-1 # 7fffffff <SSEG+0x6ef3ffff>
    186c:	7ff08f13          	addi	t5,ra,2047
    1870:	80000eb7          	lui	t4,0x80000
    1874:	7fee8e93          	addi	t4,t4,2046 # 800007fe <SSEG+0x6ef407fe>
    1878:	00a00193          	li	gp,10
    187c:	01df0463          	beq	t5,t4,1884 <addi_test+0x134>
    1880:	9b1fe06f          	j	230 <fail>
    1884:	fffff097          	auipc	ra,0xfffff
    1888:	98c080e7          	jalr	-1652(ra) # 210 <update_test>
    188c:	800000b7          	lui	ra,0x80000
    1890:	7ff08f13          	addi	t5,ra,2047 # 800007ff <SSEG+0x6ef407ff>
    1894:	80000eb7          	lui	t4,0x80000
    1898:	7ffe8e93          	addi	t4,t4,2047 # 800007ff <SSEG+0x6ef407ff>
    189c:	00b00193          	li	gp,11
    18a0:	01df0463          	beq	t5,t4,18a8 <addi_test+0x158>
    18a4:	98dfe06f          	j	230 <fail>
    18a8:	fffff097          	auipc	ra,0xfffff
    18ac:	968080e7          	jalr	-1688(ra) # 210 <update_test>
    18b0:	800000b7          	lui	ra,0x80000
    18b4:	fff08093          	addi	ra,ra,-1 # 7fffffff <SSEG+0x6ef3ffff>
    18b8:	80008f13          	addi	t5,ra,-2048
    18bc:	7ffffeb7          	lui	t4,0x7ffff
    18c0:	7ffe8e93          	addi	t4,t4,2047 # 7ffff7ff <SSEG+0x6ef3f7ff>
    18c4:	00c00193          	li	gp,12
    18c8:	01df0463          	beq	t5,t4,18d0 <addi_test+0x180>
    18cc:	965fe06f          	j	230 <fail>
    18d0:	fffff097          	auipc	ra,0xfffff
    18d4:	940080e7          	jalr	-1728(ra) # 210 <update_test>
    18d8:	00000093          	li	ra,0
    18dc:	fff08f13          	addi	t5,ra,-1
    18e0:	fff00e93          	li	t4,-1
    18e4:	00d00193          	li	gp,13
    18e8:	01df0463          	beq	t5,t4,18f0 <addi_test+0x1a0>
    18ec:	945fe06f          	j	230 <fail>
    18f0:	fffff097          	auipc	ra,0xfffff
    18f4:	920080e7          	jalr	-1760(ra) # 210 <update_test>
    18f8:	fff00093          	li	ra,-1
    18fc:	00108f13          	addi	t5,ra,1
    1900:	00000e93          	li	t4,0
    1904:	00e00193          	li	gp,14
    1908:	01df0463          	beq	t5,t4,1910 <addi_test+0x1c0>
    190c:	925fe06f          	j	230 <fail>
    1910:	fffff097          	auipc	ra,0xfffff
    1914:	900080e7          	jalr	-1792(ra) # 210 <update_test>
    1918:	fff00093          	li	ra,-1
    191c:	fff08f13          	addi	t5,ra,-1
    1920:	ffe00e93          	li	t4,-2
    1924:	00f00193          	li	gp,15
    1928:	01df0463          	beq	t5,t4,1930 <addi_test+0x1e0>
    192c:	905fe06f          	j	230 <fail>
    1930:	fffff097          	auipc	ra,0xfffff
    1934:	8e0080e7          	jalr	-1824(ra) # 210 <update_test>
    1938:	800000b7          	lui	ra,0x80000
    193c:	fff08093          	addi	ra,ra,-1 # 7fffffff <SSEG+0x6ef3ffff>
    1940:	00108f13          	addi	t5,ra,1
    1944:	80000eb7          	lui	t4,0x80000
    1948:	01000193          	li	gp,16
    194c:	01df0463          	beq	t5,t4,1954 <addi_test+0x204>
    1950:	8e1fe06f          	j	230 <fail>
    1954:	fffff097          	auipc	ra,0xfffff
    1958:	8bc080e7          	jalr	-1860(ra) # 210 <update_test>
    195c:	00d00093          	li	ra,13
    1960:	00b08093          	addi	ra,ra,11
    1964:	01800e93          	li	t4,24
    1968:	01100193          	li	gp,17
    196c:	01d08463          	beq	ra,t4,1974 <addi_test+0x224>
    1970:	8c1fe06f          	j	230 <fail>
    1974:	fffff097          	auipc	ra,0xfffff
    1978:	89c080e7          	jalr	-1892(ra) # 210 <update_test>
    197c:	000f8067          	jr	t6

00001980 <andi_test>:
    1980:	00000513          	li	a0,0
    1984:	00a62023          	sw	a0,0(a2)
    1988:	ff0100b7          	lui	ra,0xff010
    198c:	f0008093          	addi	ra,ra,-256 # ff00ff00 <SSEG+0xedf4ff00>
    1990:	f0f0ff13          	andi	t5,ra,-241
    1994:	ff010eb7          	lui	t4,0xff010
    1998:	f00e8e93          	addi	t4,t4,-256 # ff00ff00 <SSEG+0xedf4ff00>
    199c:	00200193          	li	gp,2
    19a0:	01df0463          	beq	t5,t4,19a8 <andi_test+0x28>
    19a4:	88dfe06f          	j	230 <fail>
    19a8:	fffff097          	auipc	ra,0xfffff
    19ac:	868080e7          	jalr	-1944(ra) # 210 <update_test>
    19b0:	0ff010b7          	lui	ra,0xff01
    19b4:	ff008093          	addi	ra,ra,-16 # ff00ff0 <DELAY_CNT+0xfe0cdb0>
    19b8:	0f00ff13          	andi	t5,ra,240
    19bc:	0f000e93          	li	t4,240
    19c0:	00300193          	li	gp,3
    19c4:	01df0463          	beq	t5,t4,19cc <andi_test+0x4c>
    19c8:	869fe06f          	j	230 <fail>
    19cc:	fffff097          	auipc	ra,0xfffff
    19d0:	844080e7          	jalr	-1980(ra) # 210 <update_test>
    19d4:	00ff00b7          	lui	ra,0xff0
    19d8:	0ff08093          	addi	ra,ra,255 # ff00ff <DELAY_CNT+0xefbebf>
    19dc:	70f0ff13          	andi	t5,ra,1807
    19e0:	00f00e93          	li	t4,15
    19e4:	00400193          	li	gp,4
    19e8:	01df0463          	beq	t5,t4,19f0 <andi_test+0x70>
    19ec:	845fe06f          	j	230 <fail>
    19f0:	fffff097          	auipc	ra,0xfffff
    19f4:	820080e7          	jalr	-2016(ra) # 210 <update_test>
    19f8:	f00ff0b7          	lui	ra,0xf00ff
    19fc:	00f08093          	addi	ra,ra,15 # f00ff00f <SSEG+0xdf03f00f>
    1a00:	0f00ff13          	andi	t5,ra,240
    1a04:	00000e93          	li	t4,0
    1a08:	00500193          	li	gp,5
    1a0c:	01df0463          	beq	t5,t4,1a14 <andi_test+0x94>
    1a10:	821fe06f          	j	230 <fail>
    1a14:	ffffe097          	auipc	ra,0xffffe
    1a18:	7fc080e7          	jalr	2044(ra) # 210 <update_test>
    1a1c:	ff0100b7          	lui	ra,0xff010
    1a20:	f0008093          	addi	ra,ra,-256 # ff00ff00 <SSEG+0xedf4ff00>
    1a24:	0f00f093          	andi	ra,ra,240
    1a28:	00000e93          	li	t4,0
    1a2c:	00600193          	li	gp,6
    1a30:	01d08463          	beq	ra,t4,1a38 <andi_test+0xb8>
    1a34:	ffcfe06f          	j	230 <fail>
    1a38:	ffffe097          	auipc	ra,0xffffe
    1a3c:	7d8080e7          	jalr	2008(ra) # 210 <update_test>
    1a40:	000f8067          	jr	t6

00001a44 <ori_test>:
    1a44:	00000513          	li	a0,0
    1a48:	00a62023          	sw	a0,0(a2)
    1a4c:	ff0100b7          	lui	ra,0xff010
    1a50:	f0008093          	addi	ra,ra,-256 # ff00ff00 <SSEG+0xedf4ff00>
    1a54:	f0f0ef13          	ori	t5,ra,-241
    1a58:	f0f00e93          	li	t4,-241
    1a5c:	00200193          	li	gp,2
    1a60:	01df0463          	beq	t5,t4,1a68 <ori_test+0x24>
    1a64:	fccfe06f          	j	230 <fail>
    1a68:	ffffe097          	auipc	ra,0xffffe
    1a6c:	7a8080e7          	jalr	1960(ra) # 210 <update_test>
    1a70:	0ff010b7          	lui	ra,0xff01
    1a74:	ff008093          	addi	ra,ra,-16 # ff00ff0 <DELAY_CNT+0xfe0cdb0>
    1a78:	0f00ef13          	ori	t5,ra,240
    1a7c:	0ff01eb7          	lui	t4,0xff01
    1a80:	ff0e8e93          	addi	t4,t4,-16 # ff00ff0 <DELAY_CNT+0xfe0cdb0>
    1a84:	00300193          	li	gp,3
    1a88:	01df0463          	beq	t5,t4,1a90 <ori_test+0x4c>
    1a8c:	fa4fe06f          	j	230 <fail>
    1a90:	ffffe097          	auipc	ra,0xffffe
    1a94:	780080e7          	jalr	1920(ra) # 210 <update_test>
    1a98:	00ff00b7          	lui	ra,0xff0
    1a9c:	0ff08093          	addi	ra,ra,255 # ff00ff <DELAY_CNT+0xefbebf>
    1aa0:	70f0ef13          	ori	t5,ra,1807
    1aa4:	00ff0eb7          	lui	t4,0xff0
    1aa8:	7ffe8e93          	addi	t4,t4,2047 # ff07ff <DELAY_CNT+0xefc5bf>
    1aac:	00400193          	li	gp,4
    1ab0:	01df0463          	beq	t5,t4,1ab8 <ori_test+0x74>
    1ab4:	f7cfe06f          	j	230 <fail>
    1ab8:	ffffe097          	auipc	ra,0xffffe
    1abc:	758080e7          	jalr	1880(ra) # 210 <update_test>
    1ac0:	f00ff0b7          	lui	ra,0xf00ff
    1ac4:	00f08093          	addi	ra,ra,15 # f00ff00f <SSEG+0xdf03f00f>
    1ac8:	0f00ef13          	ori	t5,ra,240
    1acc:	f00ffeb7          	lui	t4,0xf00ff
    1ad0:	0ffe8e93          	addi	t4,t4,255 # f00ff0ff <SSEG+0xdf03f0ff>
    1ad4:	00500193          	li	gp,5
    1ad8:	01df0463          	beq	t5,t4,1ae0 <ori_test+0x9c>
    1adc:	f54fe06f          	j	230 <fail>
    1ae0:	ffffe097          	auipc	ra,0xffffe
    1ae4:	730080e7          	jalr	1840(ra) # 210 <update_test>
    1ae8:	ff0100b7          	lui	ra,0xff010
    1aec:	f0008093          	addi	ra,ra,-256 # ff00ff00 <SSEG+0xedf4ff00>
    1af0:	0f00e093          	ori	ra,ra,240
    1af4:	ff010eb7          	lui	t4,0xff010
    1af8:	ff0e8e93          	addi	t4,t4,-16 # ff00fff0 <SSEG+0xedf4fff0>
    1afc:	00600193          	li	gp,6
    1b00:	01d08463          	beq	ra,t4,1b08 <ori_test+0xc4>
    1b04:	f2cfe06f          	j	230 <fail>
    1b08:	ffffe097          	auipc	ra,0xffffe
    1b0c:	708080e7          	jalr	1800(ra) # 210 <update_test>
    1b10:	000f8067          	jr	t6

00001b14 <xori_test>:
    1b14:	00000513          	li	a0,0
    1b18:	00a62023          	sw	a0,0(a2)
    1b1c:	00ff10b7          	lui	ra,0xff1
    1b20:	f0008093          	addi	ra,ra,-256 # ff0f00 <DELAY_CNT+0xefccc0>
    1b24:	f0f0cf13          	xori	t5,ra,-241
    1b28:	ff00feb7          	lui	t4,0xff00f
    1b2c:	00fe8e93          	addi	t4,t4,15 # ff00f00f <SSEG+0xedf4f00f>
    1b30:	00200193          	li	gp,2
    1b34:	01df0463          	beq	t5,t4,1b3c <xori_test+0x28>
    1b38:	ef8fe06f          	j	230 <fail>
    1b3c:	ffffe097          	auipc	ra,0xffffe
    1b40:	6d4080e7          	jalr	1748(ra) # 210 <update_test>
    1b44:	0ff010b7          	lui	ra,0xff01
    1b48:	ff008093          	addi	ra,ra,-16 # ff00ff0 <DELAY_CNT+0xfe0cdb0>
    1b4c:	0f00cf13          	xori	t5,ra,240
    1b50:	0ff01eb7          	lui	t4,0xff01
    1b54:	f00e8e93          	addi	t4,t4,-256 # ff00f00 <DELAY_CNT+0xfe0ccc0>
    1b58:	00300193          	li	gp,3
    1b5c:	01df0463          	beq	t5,t4,1b64 <xori_test+0x50>
    1b60:	ed0fe06f          	j	230 <fail>
    1b64:	ffffe097          	auipc	ra,0xffffe
    1b68:	6ac080e7          	jalr	1708(ra) # 210 <update_test>
    1b6c:	00ff10b7          	lui	ra,0xff1
    1b70:	8ff08093          	addi	ra,ra,-1793 # ff08ff <DELAY_CNT+0xefc6bf>
    1b74:	70f0cf13          	xori	t5,ra,1807
    1b78:	00ff1eb7          	lui	t4,0xff1
    1b7c:	ff0e8e93          	addi	t4,t4,-16 # ff0ff0 <DELAY_CNT+0xefcdb0>
    1b80:	00400193          	li	gp,4
    1b84:	01df0463          	beq	t5,t4,1b8c <xori_test+0x78>
    1b88:	ea8fe06f          	j	230 <fail>
    1b8c:	ffffe097          	auipc	ra,0xffffe
    1b90:	684080e7          	jalr	1668(ra) # 210 <update_test>
    1b94:	f00ff0b7          	lui	ra,0xf00ff
    1b98:	00f08093          	addi	ra,ra,15 # f00ff00f <SSEG+0xdf03f00f>
    1b9c:	0f00cf13          	xori	t5,ra,240
    1ba0:	f00ffeb7          	lui	t4,0xf00ff
    1ba4:	0ffe8e93          	addi	t4,t4,255 # f00ff0ff <SSEG+0xdf03f0ff>
    1ba8:	00500193          	li	gp,5
    1bac:	01df0463          	beq	t5,t4,1bb4 <xori_test+0xa0>
    1bb0:	e80fe06f          	j	230 <fail>
    1bb4:	ffffe097          	auipc	ra,0xffffe
    1bb8:	65c080e7          	jalr	1628(ra) # 210 <update_test>
    1bbc:	ff00f0b7          	lui	ra,0xff00f
    1bc0:	70008093          	addi	ra,ra,1792 # ff00f700 <SSEG+0xedf4f700>
    1bc4:	70f0c093          	xori	ra,ra,1807
    1bc8:	ff00feb7          	lui	t4,0xff00f
    1bcc:	00fe8e93          	addi	t4,t4,15 # ff00f00f <SSEG+0xedf4f00f>
    1bd0:	00600193          	li	gp,6
    1bd4:	01d08463          	beq	ra,t4,1bdc <xori_test+0xc8>
    1bd8:	e58fe06f          	j	230 <fail>
    1bdc:	ffffe097          	auipc	ra,0xffffe
    1be0:	634080e7          	jalr	1588(ra) # 210 <update_test>
    1be4:	000f8067          	jr	t6

00001be8 <slli_test>:
    1be8:	00000513          	li	a0,0
    1bec:	00a62023          	sw	a0,0(a2)
    1bf0:	00100093          	li	ra,1
    1bf4:	00009f13          	slli	t5,ra,0x0
    1bf8:	00100e93          	li	t4,1
    1bfc:	00200193          	li	gp,2
    1c00:	01df0463          	beq	t5,t4,1c08 <slli_test+0x20>
    1c04:	e2cfe06f          	j	230 <fail>
    1c08:	ffffe097          	auipc	ra,0xffffe
    1c0c:	608080e7          	jalr	1544(ra) # 210 <update_test>
    1c10:	00100093          	li	ra,1
    1c14:	00109f13          	slli	t5,ra,0x1
    1c18:	00200e93          	li	t4,2
    1c1c:	00300193          	li	gp,3
    1c20:	01df0463          	beq	t5,t4,1c28 <slli_test+0x40>
    1c24:	e0cfe06f          	j	230 <fail>
    1c28:	ffffe097          	auipc	ra,0xffffe
    1c2c:	5e8080e7          	jalr	1512(ra) # 210 <update_test>
    1c30:	00100093          	li	ra,1
    1c34:	00709f13          	slli	t5,ra,0x7
    1c38:	08000e93          	li	t4,128
    1c3c:	00400193          	li	gp,4
    1c40:	01df0463          	beq	t5,t4,1c48 <slli_test+0x60>
    1c44:	decfe06f          	j	230 <fail>
    1c48:	ffffe097          	auipc	ra,0xffffe
    1c4c:	5c8080e7          	jalr	1480(ra) # 210 <update_test>
    1c50:	00100093          	li	ra,1
    1c54:	00e09f13          	slli	t5,ra,0xe
    1c58:	00004eb7          	lui	t4,0x4
    1c5c:	00500193          	li	gp,5
    1c60:	01df0463          	beq	t5,t4,1c68 <slli_test+0x80>
    1c64:	dccfe06f          	j	230 <fail>
    1c68:	ffffe097          	auipc	ra,0xffffe
    1c6c:	5a8080e7          	jalr	1448(ra) # 210 <update_test>
    1c70:	00100093          	li	ra,1
    1c74:	01f09f13          	slli	t5,ra,0x1f
    1c78:	80000eb7          	lui	t4,0x80000
    1c7c:	00600193          	li	gp,6
    1c80:	01df0463          	beq	t5,t4,1c88 <slli_test+0xa0>
    1c84:	dacfe06f          	j	230 <fail>
    1c88:	ffffe097          	auipc	ra,0xffffe
    1c8c:	588080e7          	jalr	1416(ra) # 210 <update_test>
    1c90:	fff00093          	li	ra,-1
    1c94:	00009f13          	slli	t5,ra,0x0
    1c98:	fff00e93          	li	t4,-1
    1c9c:	00700193          	li	gp,7
    1ca0:	01df0463          	beq	t5,t4,1ca8 <slli_test+0xc0>
    1ca4:	d8cfe06f          	j	230 <fail>
    1ca8:	ffffe097          	auipc	ra,0xffffe
    1cac:	568080e7          	jalr	1384(ra) # 210 <update_test>
    1cb0:	fff00093          	li	ra,-1
    1cb4:	00109f13          	slli	t5,ra,0x1
    1cb8:	ffe00e93          	li	t4,-2
    1cbc:	00800193          	li	gp,8
    1cc0:	01df0463          	beq	t5,t4,1cc8 <slli_test+0xe0>
    1cc4:	d6cfe06f          	j	230 <fail>
    1cc8:	ffffe097          	auipc	ra,0xffffe
    1ccc:	548080e7          	jalr	1352(ra) # 210 <update_test>
    1cd0:	fff00093          	li	ra,-1
    1cd4:	00709f13          	slli	t5,ra,0x7
    1cd8:	f8000e93          	li	t4,-128
    1cdc:	00900193          	li	gp,9
    1ce0:	01df0463          	beq	t5,t4,1ce8 <slli_test+0x100>
    1ce4:	d4cfe06f          	j	230 <fail>
    1ce8:	ffffe097          	auipc	ra,0xffffe
    1cec:	528080e7          	jalr	1320(ra) # 210 <update_test>
    1cf0:	fff00093          	li	ra,-1
    1cf4:	00e09f13          	slli	t5,ra,0xe
    1cf8:	ffffceb7          	lui	t4,0xffffc
    1cfc:	00a00193          	li	gp,10
    1d00:	01df0463          	beq	t5,t4,1d08 <slli_test+0x120>
    1d04:	d2cfe06f          	j	230 <fail>
    1d08:	ffffe097          	auipc	ra,0xffffe
    1d0c:	508080e7          	jalr	1288(ra) # 210 <update_test>
    1d10:	fff00093          	li	ra,-1
    1d14:	01f09f13          	slli	t5,ra,0x1f
    1d18:	80000eb7          	lui	t4,0x80000
    1d1c:	00b00193          	li	gp,11
    1d20:	01df0463          	beq	t5,t4,1d28 <slli_test+0x140>
    1d24:	d0cfe06f          	j	230 <fail>
    1d28:	ffffe097          	auipc	ra,0xffffe
    1d2c:	4e8080e7          	jalr	1256(ra) # 210 <update_test>
    1d30:	212120b7          	lui	ra,0x21212
    1d34:	12108093          	addi	ra,ra,289 # 21212121 <SSEG+0x10152121>
    1d38:	00009f13          	slli	t5,ra,0x0
    1d3c:	21212eb7          	lui	t4,0x21212
    1d40:	121e8e93          	addi	t4,t4,289 # 21212121 <SSEG+0x10152121>
    1d44:	00c00193          	li	gp,12
    1d48:	01df0463          	beq	t5,t4,1d50 <slli_test+0x168>
    1d4c:	ce4fe06f          	j	230 <fail>
    1d50:	ffffe097          	auipc	ra,0xffffe
    1d54:	4c0080e7          	jalr	1216(ra) # 210 <update_test>
    1d58:	212120b7          	lui	ra,0x21212
    1d5c:	12108093          	addi	ra,ra,289 # 21212121 <SSEG+0x10152121>
    1d60:	00109f13          	slli	t5,ra,0x1
    1d64:	42424eb7          	lui	t4,0x42424
    1d68:	242e8e93          	addi	t4,t4,578 # 42424242 <SSEG+0x31364242>
    1d6c:	00d00193          	li	gp,13
    1d70:	01df0463          	beq	t5,t4,1d78 <slli_test+0x190>
    1d74:	cbcfe06f          	j	230 <fail>
    1d78:	ffffe097          	auipc	ra,0xffffe
    1d7c:	498080e7          	jalr	1176(ra) # 210 <update_test>
    1d80:	212120b7          	lui	ra,0x21212
    1d84:	12108093          	addi	ra,ra,289 # 21212121 <SSEG+0x10152121>
    1d88:	00709f13          	slli	t5,ra,0x7
    1d8c:	90909eb7          	lui	t4,0x90909
    1d90:	080e8e93          	addi	t4,t4,128 # 90909080 <SSEG+0x7f849080>
    1d94:	00e00193          	li	gp,14
    1d98:	01df0463          	beq	t5,t4,1da0 <slli_test+0x1b8>
    1d9c:	c94fe06f          	j	230 <fail>
    1da0:	ffffe097          	auipc	ra,0xffffe
    1da4:	470080e7          	jalr	1136(ra) # 210 <update_test>
    1da8:	212120b7          	lui	ra,0x21212
    1dac:	12108093          	addi	ra,ra,289 # 21212121 <SSEG+0x10152121>
    1db0:	00e09f13          	slli	t5,ra,0xe
    1db4:	48484eb7          	lui	t4,0x48484
    1db8:	00f00193          	li	gp,15
    1dbc:	01df0463          	beq	t5,t4,1dc4 <slli_test+0x1dc>
    1dc0:	c70fe06f          	j	230 <fail>
    1dc4:	ffffe097          	auipc	ra,0xffffe
    1dc8:	44c080e7          	jalr	1100(ra) # 210 <update_test>
    1dcc:	212120b7          	lui	ra,0x21212
    1dd0:	12108093          	addi	ra,ra,289 # 21212121 <SSEG+0x10152121>
    1dd4:	01f09f13          	slli	t5,ra,0x1f
    1dd8:	80000eb7          	lui	t4,0x80000
    1ddc:	01000193          	li	gp,16
    1de0:	01df0463          	beq	t5,t4,1de8 <slli_test+0x200>
    1de4:	c4cfe06f          	j	230 <fail>
    1de8:	ffffe097          	auipc	ra,0xffffe
    1dec:	428080e7          	jalr	1064(ra) # 210 <update_test>
    1df0:	000f8067          	jr	t6

00001df4 <srli_test>:
    1df4:	00000513          	li	a0,0
    1df8:	00a62023          	sw	a0,0(a2)
    1dfc:	800000b7          	lui	ra,0x80000
    1e00:	0000df13          	srli	t5,ra,0x0
    1e04:	80000eb7          	lui	t4,0x80000
    1e08:	00200193          	li	gp,2
    1e0c:	01df0463          	beq	t5,t4,1e14 <srli_test+0x20>
    1e10:	c20fe06f          	j	230 <fail>
    1e14:	ffffe097          	auipc	ra,0xffffe
    1e18:	3fc080e7          	jalr	1020(ra) # 210 <update_test>
    1e1c:	800000b7          	lui	ra,0x80000
    1e20:	0010df13          	srli	t5,ra,0x1
    1e24:	40000eb7          	lui	t4,0x40000
    1e28:	00300193          	li	gp,3
    1e2c:	01df0463          	beq	t5,t4,1e34 <srli_test+0x40>
    1e30:	c00fe06f          	j	230 <fail>
    1e34:	ffffe097          	auipc	ra,0xffffe
    1e38:	3dc080e7          	jalr	988(ra) # 210 <update_test>
    1e3c:	800000b7          	lui	ra,0x80000
    1e40:	0070df13          	srli	t5,ra,0x7
    1e44:	01000eb7          	lui	t4,0x1000
    1e48:	00400193          	li	gp,4
    1e4c:	01df0463          	beq	t5,t4,1e54 <srli_test+0x60>
    1e50:	be0fe06f          	j	230 <fail>
    1e54:	ffffe097          	auipc	ra,0xffffe
    1e58:	3bc080e7          	jalr	956(ra) # 210 <update_test>
    1e5c:	800000b7          	lui	ra,0x80000
    1e60:	00e0df13          	srli	t5,ra,0xe
    1e64:	00020eb7          	lui	t4,0x20
    1e68:	00500193          	li	gp,5
    1e6c:	01df0463          	beq	t5,t4,1e74 <srli_test+0x80>
    1e70:	bc0fe06f          	j	230 <fail>
    1e74:	ffffe097          	auipc	ra,0xffffe
    1e78:	39c080e7          	jalr	924(ra) # 210 <update_test>
    1e7c:	800000b7          	lui	ra,0x80000
    1e80:	00108093          	addi	ra,ra,1 # 80000001 <SSEG+0x6ef40001>
    1e84:	01f0df13          	srli	t5,ra,0x1f
    1e88:	00100e93          	li	t4,1
    1e8c:	00600193          	li	gp,6
    1e90:	01df0463          	beq	t5,t4,1e98 <srli_test+0xa4>
    1e94:	b9cfe06f          	j	230 <fail>
    1e98:	ffffe097          	auipc	ra,0xffffe
    1e9c:	378080e7          	jalr	888(ra) # 210 <update_test>
    1ea0:	fff00093          	li	ra,-1
    1ea4:	0000df13          	srli	t5,ra,0x0
    1ea8:	fff00e93          	li	t4,-1
    1eac:	00700193          	li	gp,7
    1eb0:	01df0463          	beq	t5,t4,1eb8 <srli_test+0xc4>
    1eb4:	b7cfe06f          	j	230 <fail>
    1eb8:	ffffe097          	auipc	ra,0xffffe
    1ebc:	358080e7          	jalr	856(ra) # 210 <update_test>
    1ec0:	fff00093          	li	ra,-1
    1ec4:	0010df13          	srli	t5,ra,0x1
    1ec8:	80000eb7          	lui	t4,0x80000
    1ecc:	fffe8e93          	addi	t4,t4,-1 # 7fffffff <SSEG+0x6ef3ffff>
    1ed0:	00800193          	li	gp,8
    1ed4:	01df0463          	beq	t5,t4,1edc <srli_test+0xe8>
    1ed8:	b58fe06f          	j	230 <fail>
    1edc:	ffffe097          	auipc	ra,0xffffe
    1ee0:	334080e7          	jalr	820(ra) # 210 <update_test>
    1ee4:	fff00093          	li	ra,-1
    1ee8:	0070df13          	srli	t5,ra,0x7
    1eec:	02000eb7          	lui	t4,0x2000
    1ef0:	fffe8e93          	addi	t4,t4,-1 # 1ffffff <DELAY_CNT+0x1f0bdbf>
    1ef4:	00900193          	li	gp,9
    1ef8:	01df0463          	beq	t5,t4,1f00 <srli_test+0x10c>
    1efc:	b34fe06f          	j	230 <fail>
    1f00:	ffffe097          	auipc	ra,0xffffe
    1f04:	310080e7          	jalr	784(ra) # 210 <update_test>
    1f08:	fff00093          	li	ra,-1
    1f0c:	00e0df13          	srli	t5,ra,0xe
    1f10:	00040eb7          	lui	t4,0x40
    1f14:	fffe8e93          	addi	t4,t4,-1 # 3ffff <__sp+0x2ffff>
    1f18:	00a00193          	li	gp,10
    1f1c:	01df0463          	beq	t5,t4,1f24 <srli_test+0x130>
    1f20:	b10fe06f          	j	230 <fail>
    1f24:	ffffe097          	auipc	ra,0xffffe
    1f28:	2ec080e7          	jalr	748(ra) # 210 <update_test>
    1f2c:	fff00093          	li	ra,-1
    1f30:	01f0df13          	srli	t5,ra,0x1f
    1f34:	00100e93          	li	t4,1
    1f38:	00b00193          	li	gp,11
    1f3c:	01df0463          	beq	t5,t4,1f44 <srli_test+0x150>
    1f40:	af0fe06f          	j	230 <fail>
    1f44:	ffffe097          	auipc	ra,0xffffe
    1f48:	2cc080e7          	jalr	716(ra) # 210 <update_test>
    1f4c:	212120b7          	lui	ra,0x21212
    1f50:	12108093          	addi	ra,ra,289 # 21212121 <SSEG+0x10152121>
    1f54:	0000df13          	srli	t5,ra,0x0
    1f58:	21212eb7          	lui	t4,0x21212
    1f5c:	121e8e93          	addi	t4,t4,289 # 21212121 <SSEG+0x10152121>
    1f60:	00c00193          	li	gp,12
    1f64:	01df0463          	beq	t5,t4,1f6c <srli_test+0x178>
    1f68:	ac8fe06f          	j	230 <fail>
    1f6c:	ffffe097          	auipc	ra,0xffffe
    1f70:	2a4080e7          	jalr	676(ra) # 210 <update_test>
    1f74:	212120b7          	lui	ra,0x21212
    1f78:	12108093          	addi	ra,ra,289 # 21212121 <SSEG+0x10152121>
    1f7c:	0010df13          	srli	t5,ra,0x1
    1f80:	10909eb7          	lui	t4,0x10909
    1f84:	090e8e93          	addi	t4,t4,144 # 10909090 <DELAY_CNT+0x10814e50>
    1f88:	00d00193          	li	gp,13
    1f8c:	01df0463          	beq	t5,t4,1f94 <srli_test+0x1a0>
    1f90:	aa0fe06f          	j	230 <fail>
    1f94:	ffffe097          	auipc	ra,0xffffe
    1f98:	27c080e7          	jalr	636(ra) # 210 <update_test>
    1f9c:	212120b7          	lui	ra,0x21212
    1fa0:	12108093          	addi	ra,ra,289 # 21212121 <SSEG+0x10152121>
    1fa4:	0070df13          	srli	t5,ra,0x7
    1fa8:	00424eb7          	lui	t4,0x424
    1fac:	242e8e93          	addi	t4,t4,578 # 424242 <DELAY_CNT+0x330002>
    1fb0:	00e00193          	li	gp,14
    1fb4:	01df0463          	beq	t5,t4,1fbc <srli_test+0x1c8>
    1fb8:	a78fe06f          	j	230 <fail>
    1fbc:	ffffe097          	auipc	ra,0xffffe
    1fc0:	254080e7          	jalr	596(ra) # 210 <update_test>
    1fc4:	212120b7          	lui	ra,0x21212
    1fc8:	12108093          	addi	ra,ra,289 # 21212121 <SSEG+0x10152121>
    1fcc:	00e0df13          	srli	t5,ra,0xe
    1fd0:	00008eb7          	lui	t4,0x8
    1fd4:	484e8e93          	addi	t4,t4,1156 # 8484 <__global_pointer$+0x3d58>
    1fd8:	00f00193          	li	gp,15
    1fdc:	01df0463          	beq	t5,t4,1fe4 <srli_test+0x1f0>
    1fe0:	a50fe06f          	j	230 <fail>
    1fe4:	ffffe097          	auipc	ra,0xffffe
    1fe8:	22c080e7          	jalr	556(ra) # 210 <update_test>
    1fec:	212120b7          	lui	ra,0x21212
    1ff0:	12108093          	addi	ra,ra,289 # 21212121 <SSEG+0x10152121>
    1ff4:	01f0df13          	srli	t5,ra,0x1f
    1ff8:	00000e93          	li	t4,0
    1ffc:	01000193          	li	gp,16
    2000:	01df0463          	beq	t5,t4,2008 <srli_test+0x214>
    2004:	a2cfe06f          	j	230 <fail>
    2008:	ffffe097          	auipc	ra,0xffffe
    200c:	208080e7          	jalr	520(ra) # 210 <update_test>
    2010:	800000b7          	lui	ra,0x80000
    2014:	0070d093          	srli	ra,ra,0x7
    2018:	01000eb7          	lui	t4,0x1000
    201c:	01100193          	li	gp,17
    2020:	01d08463          	beq	ra,t4,2028 <srli_test+0x234>
    2024:	a0cfe06f          	j	230 <fail>
    2028:	ffffe097          	auipc	ra,0xffffe
    202c:	1e8080e7          	jalr	488(ra) # 210 <update_test>
    2030:	000f8067          	jr	t6

00002034 <srai_test>:
    2034:	00000513          	li	a0,0
    2038:	00a62023          	sw	a0,0(a2)
    203c:	00000093          	li	ra,0
    2040:	4000df13          	srai	t5,ra,0x0
    2044:	00000e93          	li	t4,0
    2048:	00200193          	li	gp,2
    204c:	01df0463          	beq	t5,t4,2054 <srai_test+0x20>
    2050:	9e0fe06f          	j	230 <fail>
    2054:	ffffe097          	auipc	ra,0xffffe
    2058:	1bc080e7          	jalr	444(ra) # 210 <update_test>
    205c:	800000b7          	lui	ra,0x80000
    2060:	4010df13          	srai	t5,ra,0x1
    2064:	c0000eb7          	lui	t4,0xc0000
    2068:	00300193          	li	gp,3
    206c:	01df0463          	beq	t5,t4,2074 <srai_test+0x40>
    2070:	9c0fe06f          	j	230 <fail>
    2074:	ffffe097          	auipc	ra,0xffffe
    2078:	19c080e7          	jalr	412(ra) # 210 <update_test>
    207c:	800000b7          	lui	ra,0x80000
    2080:	4070df13          	srai	t5,ra,0x7
    2084:	ff000eb7          	lui	t4,0xff000
    2088:	00400193          	li	gp,4
    208c:	01df0463          	beq	t5,t4,2094 <srai_test+0x60>
    2090:	9a0fe06f          	j	230 <fail>
    2094:	ffffe097          	auipc	ra,0xffffe
    2098:	17c080e7          	jalr	380(ra) # 210 <update_test>
    209c:	800000b7          	lui	ra,0x80000
    20a0:	40e0df13          	srai	t5,ra,0xe
    20a4:	fffe0eb7          	lui	t4,0xfffe0
    20a8:	00500193          	li	gp,5
    20ac:	01df0463          	beq	t5,t4,20b4 <srai_test+0x80>
    20b0:	980fe06f          	j	230 <fail>
    20b4:	ffffe097          	auipc	ra,0xffffe
    20b8:	15c080e7          	jalr	348(ra) # 210 <update_test>
    20bc:	800000b7          	lui	ra,0x80000
    20c0:	00108093          	addi	ra,ra,1 # 80000001 <SSEG+0x6ef40001>
    20c4:	41f0df13          	srai	t5,ra,0x1f
    20c8:	fff00e93          	li	t4,-1
    20cc:	00600193          	li	gp,6
    20d0:	01df0463          	beq	t5,t4,20d8 <srai_test+0xa4>
    20d4:	95cfe06f          	j	230 <fail>
    20d8:	ffffe097          	auipc	ra,0xffffe
    20dc:	138080e7          	jalr	312(ra) # 210 <update_test>
    20e0:	800000b7          	lui	ra,0x80000
    20e4:	fff08093          	addi	ra,ra,-1 # 7fffffff <SSEG+0x6ef3ffff>
    20e8:	4000df13          	srai	t5,ra,0x0
    20ec:	80000eb7          	lui	t4,0x80000
    20f0:	fffe8e93          	addi	t4,t4,-1 # 7fffffff <SSEG+0x6ef3ffff>
    20f4:	00700193          	li	gp,7
    20f8:	01df0463          	beq	t5,t4,2100 <srai_test+0xcc>
    20fc:	934fe06f          	j	230 <fail>
    2100:	ffffe097          	auipc	ra,0xffffe
    2104:	110080e7          	jalr	272(ra) # 210 <update_test>
    2108:	800000b7          	lui	ra,0x80000
    210c:	fff08093          	addi	ra,ra,-1 # 7fffffff <SSEG+0x6ef3ffff>
    2110:	4010df13          	srai	t5,ra,0x1
    2114:	40000eb7          	lui	t4,0x40000
    2118:	fffe8e93          	addi	t4,t4,-1 # 3fffffff <SSEG+0x2ef3ffff>
    211c:	00800193          	li	gp,8
    2120:	01df0463          	beq	t5,t4,2128 <srai_test+0xf4>
    2124:	90cfe06f          	j	230 <fail>
    2128:	ffffe097          	auipc	ra,0xffffe
    212c:	0e8080e7          	jalr	232(ra) # 210 <update_test>
    2130:	800000b7          	lui	ra,0x80000
    2134:	fff08093          	addi	ra,ra,-1 # 7fffffff <SSEG+0x6ef3ffff>
    2138:	4070df13          	srai	t5,ra,0x7
    213c:	01000eb7          	lui	t4,0x1000
    2140:	fffe8e93          	addi	t4,t4,-1 # ffffff <DELAY_CNT+0xf0bdbf>
    2144:	00900193          	li	gp,9
    2148:	01df0463          	beq	t5,t4,2150 <srai_test+0x11c>
    214c:	8e4fe06f          	j	230 <fail>
    2150:	ffffe097          	auipc	ra,0xffffe
    2154:	0c0080e7          	jalr	192(ra) # 210 <update_test>
    2158:	800000b7          	lui	ra,0x80000
    215c:	fff08093          	addi	ra,ra,-1 # 7fffffff <SSEG+0x6ef3ffff>
    2160:	40e0df13          	srai	t5,ra,0xe
    2164:	00020eb7          	lui	t4,0x20
    2168:	fffe8e93          	addi	t4,t4,-1 # 1ffff <__sp+0xffff>
    216c:	00a00193          	li	gp,10
    2170:	01df0463          	beq	t5,t4,2178 <srai_test+0x144>
    2174:	8bcfe06f          	j	230 <fail>
    2178:	ffffe097          	auipc	ra,0xffffe
    217c:	098080e7          	jalr	152(ra) # 210 <update_test>
    2180:	800000b7          	lui	ra,0x80000
    2184:	fff08093          	addi	ra,ra,-1 # 7fffffff <SSEG+0x6ef3ffff>
    2188:	41f0df13          	srai	t5,ra,0x1f
    218c:	00000e93          	li	t4,0
    2190:	00b00193          	li	gp,11
    2194:	01df0463          	beq	t5,t4,219c <srai_test+0x168>
    2198:	898fe06f          	j	230 <fail>
    219c:	ffffe097          	auipc	ra,0xffffe
    21a0:	074080e7          	jalr	116(ra) # 210 <update_test>
    21a4:	818180b7          	lui	ra,0x81818
    21a8:	18108093          	addi	ra,ra,385 # 81818181 <SSEG+0x70758181>
    21ac:	4000df13          	srai	t5,ra,0x0
    21b0:	81818eb7          	lui	t4,0x81818
    21b4:	181e8e93          	addi	t4,t4,385 # 81818181 <SSEG+0x70758181>
    21b8:	00c00193          	li	gp,12
    21bc:	01df0463          	beq	t5,t4,21c4 <srai_test+0x190>
    21c0:	870fe06f          	j	230 <fail>
    21c4:	ffffe097          	auipc	ra,0xffffe
    21c8:	04c080e7          	jalr	76(ra) # 210 <update_test>
    21cc:	818180b7          	lui	ra,0x81818
    21d0:	18108093          	addi	ra,ra,385 # 81818181 <SSEG+0x70758181>
    21d4:	4010df13          	srai	t5,ra,0x1
    21d8:	c0c0ceb7          	lui	t4,0xc0c0c
    21dc:	0c0e8e93          	addi	t4,t4,192 # c0c0c0c0 <SSEG+0xafb4c0c0>
    21e0:	00d00193          	li	gp,13
    21e4:	01df0463          	beq	t5,t4,21ec <srai_test+0x1b8>
    21e8:	848fe06f          	j	230 <fail>
    21ec:	ffffe097          	auipc	ra,0xffffe
    21f0:	024080e7          	jalr	36(ra) # 210 <update_test>
    21f4:	818180b7          	lui	ra,0x81818
    21f8:	18108093          	addi	ra,ra,385 # 81818181 <SSEG+0x70758181>
    21fc:	4070df13          	srai	t5,ra,0x7
    2200:	ff030eb7          	lui	t4,0xff030
    2204:	303e8e93          	addi	t4,t4,771 # ff030303 <SSEG+0xedf70303>
    2208:	00e00193          	li	gp,14
    220c:	01df0463          	beq	t5,t4,2214 <srai_test+0x1e0>
    2210:	820fe06f          	j	230 <fail>
    2214:	ffffe097          	auipc	ra,0xffffe
    2218:	ffc080e7          	jalr	-4(ra) # 210 <update_test>
    221c:	818180b7          	lui	ra,0x81818
    2220:	18108093          	addi	ra,ra,385 # 81818181 <SSEG+0x70758181>
    2224:	40e0df13          	srai	t5,ra,0xe
    2228:	fffe0eb7          	lui	t4,0xfffe0
    222c:	606e8e93          	addi	t4,t4,1542 # fffe0606 <SSEG+0xeef20606>
    2230:	00f00193          	li	gp,15
    2234:	01df0463          	beq	t5,t4,223c <srai_test+0x208>
    2238:	ff9fd06f          	j	230 <fail>
    223c:	ffffe097          	auipc	ra,0xffffe
    2240:	fd4080e7          	jalr	-44(ra) # 210 <update_test>
    2244:	818180b7          	lui	ra,0x81818
    2248:	18108093          	addi	ra,ra,385 # 81818181 <SSEG+0x70758181>
    224c:	41f0df13          	srai	t5,ra,0x1f
    2250:	fff00e93          	li	t4,-1
    2254:	01000193          	li	gp,16
    2258:	01df0463          	beq	t5,t4,2260 <srai_test+0x22c>
    225c:	fd5fd06f          	j	230 <fail>
    2260:	ffffe097          	auipc	ra,0xffffe
    2264:	fb0080e7          	jalr	-80(ra) # 210 <update_test>
    2268:	800000b7          	lui	ra,0x80000
    226c:	4070d093          	srai	ra,ra,0x7
    2270:	ff000eb7          	lui	t4,0xff000
    2274:	01100193          	li	gp,17
    2278:	01d08463          	beq	ra,t4,2280 <srai_test+0x24c>
    227c:	fb5fd06f          	j	230 <fail>
    2280:	ffffe097          	auipc	ra,0xffffe
    2284:	f90080e7          	jalr	-112(ra) # 210 <update_test>
    2288:	000f8067          	jr	t6

0000228c <sltiu_test>:
    228c:	00000513          	li	a0,0
    2290:	00a62023          	sw	a0,0(a2)
    2294:	00000093          	li	ra,0
    2298:	0000bf13          	sltiu	t5,ra,0
    229c:	00000e93          	li	t4,0
    22a0:	00200193          	li	gp,2
    22a4:	01df0463          	beq	t5,t4,22ac <sltiu_test+0x20>
    22a8:	f89fd06f          	j	230 <fail>
    22ac:	ffffe097          	auipc	ra,0xffffe
    22b0:	f64080e7          	jalr	-156(ra) # 210 <update_test>
    22b4:	00100093          	li	ra,1
    22b8:	0010bf13          	seqz	t5,ra
    22bc:	00000e93          	li	t4,0
    22c0:	00300193          	li	gp,3
    22c4:	01df0463          	beq	t5,t4,22cc <sltiu_test+0x40>
    22c8:	f69fd06f          	j	230 <fail>
    22cc:	ffffe097          	auipc	ra,0xffffe
    22d0:	f44080e7          	jalr	-188(ra) # 210 <update_test>
    22d4:	00300093          	li	ra,3
    22d8:	0070bf13          	sltiu	t5,ra,7
    22dc:	00100e93          	li	t4,1
    22e0:	00400193          	li	gp,4
    22e4:	01df0463          	beq	t5,t4,22ec <sltiu_test+0x60>
    22e8:	f49fd06f          	j	230 <fail>
    22ec:	ffffe097          	auipc	ra,0xffffe
    22f0:	f24080e7          	jalr	-220(ra) # 210 <update_test>
    22f4:	00700093          	li	ra,7
    22f8:	0030bf13          	sltiu	t5,ra,3
    22fc:	00000e93          	li	t4,0
    2300:	00500193          	li	gp,5
    2304:	01df0463          	beq	t5,t4,230c <sltiu_test+0x80>
    2308:	f29fd06f          	j	230 <fail>
    230c:	ffffe097          	auipc	ra,0xffffe
    2310:	f04080e7          	jalr	-252(ra) # 210 <update_test>
    2314:	00000093          	li	ra,0
    2318:	8000bf13          	sltiu	t5,ra,-2048
    231c:	00100e93          	li	t4,1
    2320:	00600193          	li	gp,6
    2324:	01df0463          	beq	t5,t4,232c <sltiu_test+0xa0>
    2328:	f09fd06f          	j	230 <fail>
    232c:	ffffe097          	auipc	ra,0xffffe
    2330:	ee4080e7          	jalr	-284(ra) # 210 <update_test>
    2334:	800000b7          	lui	ra,0x80000
    2338:	0000bf13          	sltiu	t5,ra,0
    233c:	00000e93          	li	t4,0
    2340:	00700193          	li	gp,7
    2344:	01df0463          	beq	t5,t4,234c <sltiu_test+0xc0>
    2348:	ee9fd06f          	j	230 <fail>
    234c:	ffffe097          	auipc	ra,0xffffe
    2350:	ec4080e7          	jalr	-316(ra) # 210 <update_test>
    2354:	800000b7          	lui	ra,0x80000
    2358:	8000bf13          	sltiu	t5,ra,-2048
    235c:	00100e93          	li	t4,1
    2360:	00800193          	li	gp,8
    2364:	01df0463          	beq	t5,t4,236c <sltiu_test+0xe0>
    2368:	ec9fd06f          	j	230 <fail>
    236c:	ffffe097          	auipc	ra,0xffffe
    2370:	ea4080e7          	jalr	-348(ra) # 210 <update_test>
    2374:	00000093          	li	ra,0
    2378:	7ff0bf13          	sltiu	t5,ra,2047
    237c:	00100e93          	li	t4,1
    2380:	00900193          	li	gp,9
    2384:	01df0463          	beq	t5,t4,238c <sltiu_test+0x100>
    2388:	ea9fd06f          	j	230 <fail>
    238c:	ffffe097          	auipc	ra,0xffffe
    2390:	e84080e7          	jalr	-380(ra) # 210 <update_test>
    2394:	800000b7          	lui	ra,0x80000
    2398:	fff08093          	addi	ra,ra,-1 # 7fffffff <SSEG+0x6ef3ffff>
    239c:	0000bf13          	sltiu	t5,ra,0
    23a0:	00000e93          	li	t4,0
    23a4:	00a00193          	li	gp,10
    23a8:	01df0463          	beq	t5,t4,23b0 <sltiu_test+0x124>
    23ac:	e85fd06f          	j	230 <fail>
    23b0:	ffffe097          	auipc	ra,0xffffe
    23b4:	e60080e7          	jalr	-416(ra) # 210 <update_test>
    23b8:	800000b7          	lui	ra,0x80000
    23bc:	fff08093          	addi	ra,ra,-1 # 7fffffff <SSEG+0x6ef3ffff>
    23c0:	7ff0bf13          	sltiu	t5,ra,2047
    23c4:	00000e93          	li	t4,0
    23c8:	00b00193          	li	gp,11
    23cc:	01df0463          	beq	t5,t4,23d4 <sltiu_test+0x148>
    23d0:	e61fd06f          	j	230 <fail>
    23d4:	ffffe097          	auipc	ra,0xffffe
    23d8:	e3c080e7          	jalr	-452(ra) # 210 <update_test>
    23dc:	800000b7          	lui	ra,0x80000
    23e0:	7ff0bf13          	sltiu	t5,ra,2047
    23e4:	00000e93          	li	t4,0
    23e8:	00c00193          	li	gp,12
    23ec:	01df0463          	beq	t5,t4,23f4 <sltiu_test+0x168>
    23f0:	e41fd06f          	j	230 <fail>
    23f4:	ffffe097          	auipc	ra,0xffffe
    23f8:	e1c080e7          	jalr	-484(ra) # 210 <update_test>
    23fc:	800000b7          	lui	ra,0x80000
    2400:	fff08093          	addi	ra,ra,-1 # 7fffffff <SSEG+0x6ef3ffff>
    2404:	8000bf13          	sltiu	t5,ra,-2048
    2408:	00100e93          	li	t4,1
    240c:	00d00193          	li	gp,13
    2410:	01df0463          	beq	t5,t4,2418 <sltiu_test+0x18c>
    2414:	e1dfd06f          	j	230 <fail>
    2418:	ffffe097          	auipc	ra,0xffffe
    241c:	df8080e7          	jalr	-520(ra) # 210 <update_test>
    2420:	00000093          	li	ra,0
    2424:	fff0bf13          	sltiu	t5,ra,-1
    2428:	00100e93          	li	t4,1
    242c:	00e00193          	li	gp,14
    2430:	01df0463          	beq	t5,t4,2438 <sltiu_test+0x1ac>
    2434:	dfdfd06f          	j	230 <fail>
    2438:	ffffe097          	auipc	ra,0xffffe
    243c:	dd8080e7          	jalr	-552(ra) # 210 <update_test>
    2440:	fff00093          	li	ra,-1
    2444:	0010bf13          	seqz	t5,ra
    2448:	00000e93          	li	t4,0
    244c:	00f00193          	li	gp,15
    2450:	01df0463          	beq	t5,t4,2458 <sltiu_test+0x1cc>
    2454:	dddfd06f          	j	230 <fail>
    2458:	ffffe097          	auipc	ra,0xffffe
    245c:	db8080e7          	jalr	-584(ra) # 210 <update_test>
    2460:	fff00093          	li	ra,-1
    2464:	fff0bf13          	sltiu	t5,ra,-1
    2468:	00000e93          	li	t4,0
    246c:	01000193          	li	gp,16
    2470:	01df0463          	beq	t5,t4,2478 <sltiu_test+0x1ec>
    2474:	dbdfd06f          	j	230 <fail>
    2478:	ffffe097          	auipc	ra,0xffffe
    247c:	d98080e7          	jalr	-616(ra) # 210 <update_test>
    2480:	00b00093          	li	ra,11
    2484:	00d0b093          	sltiu	ra,ra,13
    2488:	00100e93          	li	t4,1
    248c:	01100193          	li	gp,17
    2490:	01d08463          	beq	ra,t4,2498 <sltiu_test+0x20c>
    2494:	d9dfd06f          	j	230 <fail>
    2498:	ffffe097          	auipc	ra,0xffffe
    249c:	d78080e7          	jalr	-648(ra) # 210 <update_test>
    24a0:	000f8067          	jr	t6

000024a4 <slti_test>:
    24a4:	00000513          	li	a0,0
    24a8:	00a62023          	sw	a0,0(a2)
    24ac:	00000093          	li	ra,0
    24b0:	0000af13          	slti	t5,ra,0
    24b4:	00000e93          	li	t4,0
    24b8:	00200193          	li	gp,2
    24bc:	01df0463          	beq	t5,t4,24c4 <slti_test+0x20>
    24c0:	d71fd06f          	j	230 <fail>
    24c4:	ffffe097          	auipc	ra,0xffffe
    24c8:	d4c080e7          	jalr	-692(ra) # 210 <update_test>
    24cc:	00100093          	li	ra,1
    24d0:	0010af13          	slti	t5,ra,1
    24d4:	00000e93          	li	t4,0
    24d8:	00300193          	li	gp,3
    24dc:	01df0463          	beq	t5,t4,24e4 <slti_test+0x40>
    24e0:	d51fd06f          	j	230 <fail>
    24e4:	ffffe097          	auipc	ra,0xffffe
    24e8:	d2c080e7          	jalr	-724(ra) # 210 <update_test>
    24ec:	00300093          	li	ra,3
    24f0:	0070af13          	slti	t5,ra,7
    24f4:	00100e93          	li	t4,1
    24f8:	00400193          	li	gp,4
    24fc:	01df0463          	beq	t5,t4,2504 <slti_test+0x60>
    2500:	d31fd06f          	j	230 <fail>
    2504:	ffffe097          	auipc	ra,0xffffe
    2508:	d0c080e7          	jalr	-756(ra) # 210 <update_test>
    250c:	00700093          	li	ra,7
    2510:	0030af13          	slti	t5,ra,3
    2514:	00000e93          	li	t4,0
    2518:	00500193          	li	gp,5
    251c:	01df0463          	beq	t5,t4,2524 <slti_test+0x80>
    2520:	d11fd06f          	j	230 <fail>
    2524:	ffffe097          	auipc	ra,0xffffe
    2528:	cec080e7          	jalr	-788(ra) # 210 <update_test>
    252c:	00000093          	li	ra,0
    2530:	8000af13          	slti	t5,ra,-2048
    2534:	00000e93          	li	t4,0
    2538:	00600193          	li	gp,6
    253c:	01df0463          	beq	t5,t4,2544 <slti_test+0xa0>
    2540:	cf1fd06f          	j	230 <fail>
    2544:	ffffe097          	auipc	ra,0xffffe
    2548:	ccc080e7          	jalr	-820(ra) # 210 <update_test>
    254c:	800000b7          	lui	ra,0x80000
    2550:	0000af13          	slti	t5,ra,0
    2554:	00100e93          	li	t4,1
    2558:	00700193          	li	gp,7
    255c:	01df0463          	beq	t5,t4,2564 <slti_test+0xc0>
    2560:	cd1fd06f          	j	230 <fail>
    2564:	ffffe097          	auipc	ra,0xffffe
    2568:	cac080e7          	jalr	-852(ra) # 210 <update_test>
    256c:	800000b7          	lui	ra,0x80000
    2570:	8000af13          	slti	t5,ra,-2048
    2574:	00100e93          	li	t4,1
    2578:	00800193          	li	gp,8
    257c:	01df0463          	beq	t5,t4,2584 <slti_test+0xe0>
    2580:	cb1fd06f          	j	230 <fail>
    2584:	ffffe097          	auipc	ra,0xffffe
    2588:	c8c080e7          	jalr	-884(ra) # 210 <update_test>
    258c:	00000093          	li	ra,0
    2590:	7ff0af13          	slti	t5,ra,2047
    2594:	00100e93          	li	t4,1
    2598:	00900193          	li	gp,9
    259c:	01df0463          	beq	t5,t4,25a4 <slti_test+0x100>
    25a0:	c91fd06f          	j	230 <fail>
    25a4:	ffffe097          	auipc	ra,0xffffe
    25a8:	c6c080e7          	jalr	-916(ra) # 210 <update_test>
    25ac:	800000b7          	lui	ra,0x80000
    25b0:	fff08093          	addi	ra,ra,-1 # 7fffffff <SSEG+0x6ef3ffff>
    25b4:	0000af13          	slti	t5,ra,0
    25b8:	00000e93          	li	t4,0
    25bc:	00a00193          	li	gp,10
    25c0:	01df0463          	beq	t5,t4,25c8 <slti_test+0x124>
    25c4:	c6dfd06f          	j	230 <fail>
    25c8:	ffffe097          	auipc	ra,0xffffe
    25cc:	c48080e7          	jalr	-952(ra) # 210 <update_test>
    25d0:	800000b7          	lui	ra,0x80000
    25d4:	fff08093          	addi	ra,ra,-1 # 7fffffff <SSEG+0x6ef3ffff>
    25d8:	7ff0af13          	slti	t5,ra,2047
    25dc:	00000e93          	li	t4,0
    25e0:	00b00193          	li	gp,11
    25e4:	01df0463          	beq	t5,t4,25ec <slti_test+0x148>
    25e8:	c49fd06f          	j	230 <fail>
    25ec:	ffffe097          	auipc	ra,0xffffe
    25f0:	c24080e7          	jalr	-988(ra) # 210 <update_test>
    25f4:	800000b7          	lui	ra,0x80000
    25f8:	7ff0af13          	slti	t5,ra,2047
    25fc:	00100e93          	li	t4,1
    2600:	00c00193          	li	gp,12
    2604:	01df0463          	beq	t5,t4,260c <slti_test+0x168>
    2608:	c29fd06f          	j	230 <fail>
    260c:	ffffe097          	auipc	ra,0xffffe
    2610:	c04080e7          	jalr	-1020(ra) # 210 <update_test>
    2614:	800000b7          	lui	ra,0x80000
    2618:	fff08093          	addi	ra,ra,-1 # 7fffffff <SSEG+0x6ef3ffff>
    261c:	8000af13          	slti	t5,ra,-2048
    2620:	00000e93          	li	t4,0
    2624:	00d00193          	li	gp,13
    2628:	01df0463          	beq	t5,t4,2630 <slti_test+0x18c>
    262c:	c05fd06f          	j	230 <fail>
    2630:	ffffe097          	auipc	ra,0xffffe
    2634:	be0080e7          	jalr	-1056(ra) # 210 <update_test>
    2638:	00000093          	li	ra,0
    263c:	fff0af13          	slti	t5,ra,-1
    2640:	00000e93          	li	t4,0
    2644:	00e00193          	li	gp,14
    2648:	01df0463          	beq	t5,t4,2650 <slti_test+0x1ac>
    264c:	be5fd06f          	j	230 <fail>
    2650:	ffffe097          	auipc	ra,0xffffe
    2654:	bc0080e7          	jalr	-1088(ra) # 210 <update_test>
    2658:	fff00093          	li	ra,-1
    265c:	0010af13          	slti	t5,ra,1
    2660:	00100e93          	li	t4,1
    2664:	00f00193          	li	gp,15
    2668:	01df0463          	beq	t5,t4,2670 <slti_test+0x1cc>
    266c:	bc5fd06f          	j	230 <fail>
    2670:	ffffe097          	auipc	ra,0xffffe
    2674:	ba0080e7          	jalr	-1120(ra) # 210 <update_test>
    2678:	fff00093          	li	ra,-1
    267c:	fff0af13          	slti	t5,ra,-1
    2680:	00000e93          	li	t4,0
    2684:	01000193          	li	gp,16
    2688:	01df0463          	beq	t5,t4,2690 <slti_test+0x1ec>
    268c:	ba5fd06f          	j	230 <fail>
    2690:	ffffe097          	auipc	ra,0xffffe
    2694:	b80080e7          	jalr	-1152(ra) # 210 <update_test>
    2698:	00b00093          	li	ra,11
    269c:	00d0a093          	slti	ra,ra,13
    26a0:	00100e93          	li	t4,1
    26a4:	01100193          	li	gp,17
    26a8:	01d08463          	beq	ra,t4,26b0 <slti_test+0x20c>
    26ac:	b85fd06f          	j	230 <fail>
    26b0:	ffffe097          	auipc	ra,0xffffe
    26b4:	b60080e7          	jalr	-1184(ra) # 210 <update_test>
    26b8:	000f8067          	jr	t6

000026bc <lw_test>:
    26bc:	00000513          	li	a0,0
    26c0:	00a62023          	sw	a0,0(a2)
    26c4:	00002097          	auipc	ra,0x2
    26c8:	86c08093          	addi	ra,ra,-1940 # 3f30 <tdat1lw>
    26cc:	0000af03          	lw	t5,0(ra)
    26d0:	00ff0eb7          	lui	t4,0xff0
    26d4:	0ffe8e93          	addi	t4,t4,255 # ff00ff <DELAY_CNT+0xefbebf>
    26d8:	00200193          	li	gp,2
    26dc:	01df0463          	beq	t5,t4,26e4 <lw_test+0x28>
    26e0:	b51fd06f          	j	230 <fail>
    26e4:	ffffe097          	auipc	ra,0xffffe
    26e8:	b2c080e7          	jalr	-1236(ra) # 210 <update_test>
    26ec:	00002097          	auipc	ra,0x2
    26f0:	84408093          	addi	ra,ra,-1980 # 3f30 <tdat1lw>
    26f4:	0040af03          	lw	t5,4(ra)
    26f8:	ff010eb7          	lui	t4,0xff010
    26fc:	f00e8e93          	addi	t4,t4,-256 # ff00ff00 <SSEG+0xedf4ff00>
    2700:	00300193          	li	gp,3
    2704:	01df0463          	beq	t5,t4,270c <lw_test+0x50>
    2708:	b29fd06f          	j	230 <fail>
    270c:	ffffe097          	auipc	ra,0xffffe
    2710:	b04080e7          	jalr	-1276(ra) # 210 <update_test>
    2714:	00002097          	auipc	ra,0x2
    2718:	81c08093          	addi	ra,ra,-2020 # 3f30 <tdat1lw>
    271c:	0080af03          	lw	t5,8(ra)
    2720:	0ff01eb7          	lui	t4,0xff01
    2724:	ff0e8e93          	addi	t4,t4,-16 # ff00ff0 <DELAY_CNT+0xfe0cdb0>
    2728:	00400193          	li	gp,4
    272c:	01df0463          	beq	t5,t4,2734 <lw_test+0x78>
    2730:	b01fd06f          	j	230 <fail>
    2734:	ffffe097          	auipc	ra,0xffffe
    2738:	adc080e7          	jalr	-1316(ra) # 210 <update_test>
    273c:	00001097          	auipc	ra,0x1
    2740:	7f408093          	addi	ra,ra,2036 # 3f30 <tdat1lw>
    2744:	00c0af03          	lw	t5,12(ra)
    2748:	f00ffeb7          	lui	t4,0xf00ff
    274c:	00fe8e93          	addi	t4,t4,15 # f00ff00f <SSEG+0xdf03f00f>
    2750:	00500193          	li	gp,5
    2754:	01df0463          	beq	t5,t4,275c <lw_test+0xa0>
    2758:	ad9fd06f          	j	230 <fail>
    275c:	ffffe097          	auipc	ra,0xffffe
    2760:	ab4080e7          	jalr	-1356(ra) # 210 <update_test>
    2764:	00001097          	auipc	ra,0x1
    2768:	7d808093          	addi	ra,ra,2008 # 3f3c <tdat4lw>
    276c:	ff40af03          	lw	t5,-12(ra)
    2770:	00ff0eb7          	lui	t4,0xff0
    2774:	0ffe8e93          	addi	t4,t4,255 # ff00ff <DELAY_CNT+0xefbebf>
    2778:	00600193          	li	gp,6
    277c:	01df0463          	beq	t5,t4,2784 <lw_test+0xc8>
    2780:	ab1fd06f          	j	230 <fail>
    2784:	ffffe097          	auipc	ra,0xffffe
    2788:	a8c080e7          	jalr	-1396(ra) # 210 <update_test>
    278c:	00001097          	auipc	ra,0x1
    2790:	7b008093          	addi	ra,ra,1968 # 3f3c <tdat4lw>
    2794:	ff80af03          	lw	t5,-8(ra)
    2798:	ff010eb7          	lui	t4,0xff010
    279c:	f00e8e93          	addi	t4,t4,-256 # ff00ff00 <SSEG+0xedf4ff00>
    27a0:	00700193          	li	gp,7
    27a4:	01df0463          	beq	t5,t4,27ac <lw_test+0xf0>
    27a8:	a89fd06f          	j	230 <fail>
    27ac:	ffffe097          	auipc	ra,0xffffe
    27b0:	a64080e7          	jalr	-1436(ra) # 210 <update_test>
    27b4:	00001097          	auipc	ra,0x1
    27b8:	78808093          	addi	ra,ra,1928 # 3f3c <tdat4lw>
    27bc:	ffc0af03          	lw	t5,-4(ra)
    27c0:	0ff01eb7          	lui	t4,0xff01
    27c4:	ff0e8e93          	addi	t4,t4,-16 # ff00ff0 <DELAY_CNT+0xfe0cdb0>
    27c8:	00800193          	li	gp,8
    27cc:	01df0463          	beq	t5,t4,27d4 <lw_test+0x118>
    27d0:	a61fd06f          	j	230 <fail>
    27d4:	ffffe097          	auipc	ra,0xffffe
    27d8:	a3c080e7          	jalr	-1476(ra) # 210 <update_test>
    27dc:	00001097          	auipc	ra,0x1
    27e0:	76008093          	addi	ra,ra,1888 # 3f3c <tdat4lw>
    27e4:	0000af03          	lw	t5,0(ra)
    27e8:	f00ffeb7          	lui	t4,0xf00ff
    27ec:	00fe8e93          	addi	t4,t4,15 # f00ff00f <SSEG+0xdf03f00f>
    27f0:	00900193          	li	gp,9
    27f4:	01df0463          	beq	t5,t4,27fc <lw_test+0x140>
    27f8:	a39fd06f          	j	230 <fail>
    27fc:	ffffe097          	auipc	ra,0xffffe
    2800:	a14080e7          	jalr	-1516(ra) # 210 <update_test>
    2804:	00001097          	auipc	ra,0x1
    2808:	72c08093          	addi	ra,ra,1836 # 3f30 <tdat1lw>
    280c:	fe008093          	addi	ra,ra,-32
    2810:	0200a283          	lw	t0,32(ra)
    2814:	00ff0eb7          	lui	t4,0xff0
    2818:	0ffe8e93          	addi	t4,t4,255 # ff00ff <DELAY_CNT+0xefbebf>
    281c:	00a00193          	li	gp,10
    2820:	01d28463          	beq	t0,t4,2828 <lw_test+0x16c>
    2824:	a0dfd06f          	j	230 <fail>
    2828:	ffffe097          	auipc	ra,0xffffe
    282c:	9e8080e7          	jalr	-1560(ra) # 210 <update_test>
    2830:	000f8067          	jr	t6

00002834 <sw_test>:
    2834:	00000513          	li	a0,0
    2838:	00a62023          	sw	a0,0(a2)
    283c:	00001097          	auipc	ra,0x1
    2840:	70408093          	addi	ra,ra,1796 # 3f40 <tdat>
    2844:	00aa0137          	lui	sp,0xaa0
    2848:	0aa10113          	addi	sp,sp,170 # aa00aa <DELAY_CNT+0x9abe6a>
    284c:	0020a023          	sw	sp,0(ra)
    2850:	0000af03          	lw	t5,0(ra)
    2854:	00aa0eb7          	lui	t4,0xaa0
    2858:	0aae8e93          	addi	t4,t4,170 # aa00aa <DELAY_CNT+0x9abe6a>
    285c:	00200193          	li	gp,2
    2860:	01df0463          	beq	t5,t4,2868 <sw_test+0x34>
    2864:	9cdfd06f          	j	230 <fail>
    2868:	ffffe097          	auipc	ra,0xffffe
    286c:	9a8080e7          	jalr	-1624(ra) # 210 <update_test>
    2870:	00001097          	auipc	ra,0x1
    2874:	6d008093          	addi	ra,ra,1744 # 3f40 <tdat>
    2878:	aa00b137          	lui	sp,0xaa00b
    287c:	a0010113          	addi	sp,sp,-1536 # aa00aa00 <SSEG+0x98f4aa00>
    2880:	0020a223          	sw	sp,4(ra)
    2884:	0040af03          	lw	t5,4(ra)
    2888:	aa00beb7          	lui	t4,0xaa00b
    288c:	a00e8e93          	addi	t4,t4,-1536 # aa00aa00 <SSEG+0x98f4aa00>
    2890:	00300193          	li	gp,3
    2894:	01df0463          	beq	t5,t4,289c <sw_test+0x68>
    2898:	999fd06f          	j	230 <fail>
    289c:	ffffe097          	auipc	ra,0xffffe
    28a0:	974080e7          	jalr	-1676(ra) # 210 <update_test>
    28a4:	00001097          	auipc	ra,0x1
    28a8:	69c08093          	addi	ra,ra,1692 # 3f40 <tdat>
    28ac:	0aa01137          	lui	sp,0xaa01
    28b0:	aa010113          	addi	sp,sp,-1376 # aa00aa0 <DELAY_CNT+0xa90c860>
    28b4:	0020a423          	sw	sp,8(ra)
    28b8:	0080af03          	lw	t5,8(ra)
    28bc:	0aa01eb7          	lui	t4,0xaa01
    28c0:	aa0e8e93          	addi	t4,t4,-1376 # aa00aa0 <DELAY_CNT+0xa90c860>
    28c4:	00400193          	li	gp,4
    28c8:	01df0463          	beq	t5,t4,28d0 <sw_test+0x9c>
    28cc:	965fd06f          	j	230 <fail>
    28d0:	ffffe097          	auipc	ra,0xffffe
    28d4:	940080e7          	jalr	-1728(ra) # 210 <update_test>
    28d8:	00001097          	auipc	ra,0x1
    28dc:	66808093          	addi	ra,ra,1640 # 3f40 <tdat>
    28e0:	a00aa137          	lui	sp,0xa00aa
    28e4:	00a10113          	addi	sp,sp,10 # a00aa00a <SSEG+0x8efea00a>
    28e8:	0020a623          	sw	sp,12(ra)
    28ec:	00c0af03          	lw	t5,12(ra)
    28f0:	a00aaeb7          	lui	t4,0xa00aa
    28f4:	00ae8e93          	addi	t4,t4,10 # a00aa00a <SSEG+0x8efea00a>
    28f8:	00500193          	li	gp,5
    28fc:	01df0463          	beq	t5,t4,2904 <sw_test+0xd0>
    2900:	931fd06f          	j	230 <fail>
    2904:	ffffe097          	auipc	ra,0xffffe
    2908:	90c080e7          	jalr	-1780(ra) # 210 <update_test>
    290c:	00001097          	auipc	ra,0x1
    2910:	65008093          	addi	ra,ra,1616 # 3f5c <tdat8>
    2914:	00aa0137          	lui	sp,0xaa0
    2918:	0aa10113          	addi	sp,sp,170 # aa00aa <DELAY_CNT+0x9abe6a>
    291c:	fe20aa23          	sw	sp,-12(ra)
    2920:	ff40af03          	lw	t5,-12(ra)
    2924:	00aa0eb7          	lui	t4,0xaa0
    2928:	0aae8e93          	addi	t4,t4,170 # aa00aa <DELAY_CNT+0x9abe6a>
    292c:	00600193          	li	gp,6
    2930:	01df0463          	beq	t5,t4,2938 <sw_test+0x104>
    2934:	8fdfd06f          	j	230 <fail>
    2938:	ffffe097          	auipc	ra,0xffffe
    293c:	8d8080e7          	jalr	-1832(ra) # 210 <update_test>
    2940:	00001097          	auipc	ra,0x1
    2944:	61c08093          	addi	ra,ra,1564 # 3f5c <tdat8>
    2948:	aa00b137          	lui	sp,0xaa00b
    294c:	a0010113          	addi	sp,sp,-1536 # aa00aa00 <SSEG+0x98f4aa00>
    2950:	fe20ac23          	sw	sp,-8(ra)
    2954:	ff80af03          	lw	t5,-8(ra)
    2958:	aa00beb7          	lui	t4,0xaa00b
    295c:	a00e8e93          	addi	t4,t4,-1536 # aa00aa00 <SSEG+0x98f4aa00>
    2960:	00700193          	li	gp,7
    2964:	01df0463          	beq	t5,t4,296c <sw_test+0x138>
    2968:	8c9fd06f          	j	230 <fail>
    296c:	ffffe097          	auipc	ra,0xffffe
    2970:	8a4080e7          	jalr	-1884(ra) # 210 <update_test>
    2974:	00001097          	auipc	ra,0x1
    2978:	5e808093          	addi	ra,ra,1512 # 3f5c <tdat8>
    297c:	0aa01137          	lui	sp,0xaa01
    2980:	aa010113          	addi	sp,sp,-1376 # aa00aa0 <DELAY_CNT+0xa90c860>
    2984:	fe20ae23          	sw	sp,-4(ra)
    2988:	ffc0af03          	lw	t5,-4(ra)
    298c:	0aa01eb7          	lui	t4,0xaa01
    2990:	aa0e8e93          	addi	t4,t4,-1376 # aa00aa0 <DELAY_CNT+0xa90c860>
    2994:	00800193          	li	gp,8
    2998:	01df0463          	beq	t5,t4,29a0 <sw_test+0x16c>
    299c:	895fd06f          	j	230 <fail>
    29a0:	ffffe097          	auipc	ra,0xffffe
    29a4:	870080e7          	jalr	-1936(ra) # 210 <update_test>
    29a8:	00001097          	auipc	ra,0x1
    29ac:	5b408093          	addi	ra,ra,1460 # 3f5c <tdat8>
    29b0:	a00aa137          	lui	sp,0xa00aa
    29b4:	00a10113          	addi	sp,sp,10 # a00aa00a <SSEG+0x8efea00a>
    29b8:	0020a023          	sw	sp,0(ra)
    29bc:	0000af03          	lw	t5,0(ra)
    29c0:	a00aaeb7          	lui	t4,0xa00aa
    29c4:	00ae8e93          	addi	t4,t4,10 # a00aa00a <SSEG+0x8efea00a>
    29c8:	00900193          	li	gp,9
    29cc:	01df0463          	beq	t5,t4,29d4 <sw_test+0x1a0>
    29d0:	861fd06f          	j	230 <fail>
    29d4:	ffffe097          	auipc	ra,0xffffe
    29d8:	83c080e7          	jalr	-1988(ra) # 210 <update_test>
    29dc:	00001097          	auipc	ra,0x1
    29e0:	58408093          	addi	ra,ra,1412 # 3f60 <tdat9>
    29e4:	12345137          	lui	sp,0x12345
    29e8:	67810113          	addi	sp,sp,1656 # 12345678 <SSEG+0x1285678>
    29ec:	fe008213          	addi	tp,ra,-32
    29f0:	02222023          	sw	sp,32(tp) # 20 <main+0x8>
    29f4:	0000a283          	lw	t0,0(ra)
    29f8:	12345eb7          	lui	t4,0x12345
    29fc:	678e8e93          	addi	t4,t4,1656 # 12345678 <SSEG+0x1285678>
    2a00:	00a00193          	li	gp,10
    2a04:	01d28463          	beq	t0,t4,2a0c <sw_test+0x1d8>
    2a08:	829fd06f          	j	230 <fail>
    2a0c:	ffffe097          	auipc	ra,0xffffe
    2a10:	804080e7          	jalr	-2044(ra) # 210 <update_test>
    2a14:	000f8067          	jr	t6

00002a18 <beq_test>:
    2a18:	00000513          	li	a0,0
    2a1c:	00a62023          	sw	a0,0(a2)
    2a20:	00200193          	li	gp,2
    2a24:	00000093          	li	ra,0
    2a28:	00000113          	li	sp,0
    2a2c:	00208863          	beq	ra,sp,2a3c <beq_test+0x24>
    2a30:	00300463          	beq	zero,gp,2a38 <beq_test+0x20>
    2a34:	ffcfd06f          	j	230 <fail>
    2a38:	00301863          	bne	zero,gp,2a48 <beq_test+0x30>
    2a3c:	fe208ee3          	beq	ra,sp,2a38 <beq_test+0x20>
    2a40:	00300463          	beq	zero,gp,2a48 <beq_test+0x30>
    2a44:	fecfd06f          	j	230 <fail>
    2a48:	ffffd097          	auipc	ra,0xffffd
    2a4c:	7c8080e7          	jalr	1992(ra) # 210 <update_test>
    2a50:	00300193          	li	gp,3
    2a54:	00100093          	li	ra,1
    2a58:	00100113          	li	sp,1
    2a5c:	00208863          	beq	ra,sp,2a6c <beq_test+0x54>
    2a60:	00300463          	beq	zero,gp,2a68 <beq_test+0x50>
    2a64:	fccfd06f          	j	230 <fail>
    2a68:	00301863          	bne	zero,gp,2a78 <beq_test+0x60>
    2a6c:	fe208ee3          	beq	ra,sp,2a68 <beq_test+0x50>
    2a70:	00300463          	beq	zero,gp,2a78 <beq_test+0x60>
    2a74:	fbcfd06f          	j	230 <fail>
    2a78:	ffffd097          	auipc	ra,0xffffd
    2a7c:	798080e7          	jalr	1944(ra) # 210 <update_test>
    2a80:	00400193          	li	gp,4
    2a84:	fff00093          	li	ra,-1
    2a88:	fff00113          	li	sp,-1
    2a8c:	00208863          	beq	ra,sp,2a9c <beq_test+0x84>
    2a90:	00300463          	beq	zero,gp,2a98 <beq_test+0x80>
    2a94:	f9cfd06f          	j	230 <fail>
    2a98:	00301863          	bne	zero,gp,2aa8 <beq_test+0x90>
    2a9c:	fe208ee3          	beq	ra,sp,2a98 <beq_test+0x80>
    2aa0:	00300463          	beq	zero,gp,2aa8 <beq_test+0x90>
    2aa4:	f8cfd06f          	j	230 <fail>
    2aa8:	ffffd097          	auipc	ra,0xffffd
    2aac:	768080e7          	jalr	1896(ra) # 210 <update_test>
    2ab0:	00500193          	li	gp,5
    2ab4:	00000093          	li	ra,0
    2ab8:	00100113          	li	sp,1
    2abc:	00208463          	beq	ra,sp,2ac4 <beq_test+0xac>
    2ac0:	00301663          	bne	zero,gp,2acc <beq_test+0xb4>
    2ac4:	00300463          	beq	zero,gp,2acc <beq_test+0xb4>
    2ac8:	f68fd06f          	j	230 <fail>
    2acc:	fe208ce3          	beq	ra,sp,2ac4 <beq_test+0xac>
    2ad0:	ffffd097          	auipc	ra,0xffffd
    2ad4:	740080e7          	jalr	1856(ra) # 210 <update_test>
    2ad8:	00600193          	li	gp,6
    2adc:	00100093          	li	ra,1
    2ae0:	00000113          	li	sp,0
    2ae4:	00208463          	beq	ra,sp,2aec <beq_test+0xd4>
    2ae8:	00301663          	bne	zero,gp,2af4 <beq_test+0xdc>
    2aec:	00300463          	beq	zero,gp,2af4 <beq_test+0xdc>
    2af0:	f40fd06f          	j	230 <fail>
    2af4:	fe208ce3          	beq	ra,sp,2aec <beq_test+0xd4>
    2af8:	ffffd097          	auipc	ra,0xffffd
    2afc:	718080e7          	jalr	1816(ra) # 210 <update_test>
    2b00:	00700193          	li	gp,7
    2b04:	fff00093          	li	ra,-1
    2b08:	00100113          	li	sp,1
    2b0c:	00208463          	beq	ra,sp,2b14 <beq_test+0xfc>
    2b10:	00301663          	bne	zero,gp,2b1c <beq_test+0x104>
    2b14:	00300463          	beq	zero,gp,2b1c <beq_test+0x104>
    2b18:	f18fd06f          	j	230 <fail>
    2b1c:	fe208ce3          	beq	ra,sp,2b14 <beq_test+0xfc>
    2b20:	ffffd097          	auipc	ra,0xffffd
    2b24:	6f0080e7          	jalr	1776(ra) # 210 <update_test>
    2b28:	00800193          	li	gp,8
    2b2c:	00100093          	li	ra,1
    2b30:	fff00113          	li	sp,-1
    2b34:	00208463          	beq	ra,sp,2b3c <beq_test+0x124>
    2b38:	00301663          	bne	zero,gp,2b44 <beq_test+0x12c>
    2b3c:	00300463          	beq	zero,gp,2b44 <beq_test+0x12c>
    2b40:	ef0fd06f          	j	230 <fail>
    2b44:	fe208ce3          	beq	ra,sp,2b3c <beq_test+0x124>
    2b48:	ffffd097          	auipc	ra,0xffffd
    2b4c:	6c8080e7          	jalr	1736(ra) # 210 <update_test>
    2b50:	000f8067          	jr	t6

00002b54 <bne_test>:
    2b54:	00000513          	li	a0,0
    2b58:	00a62023          	sw	a0,0(a2)
    2b5c:	00200193          	li	gp,2
    2b60:	00000093          	li	ra,0
    2b64:	00100113          	li	sp,1
    2b68:	00209863          	bne	ra,sp,2b78 <bne_test+0x24>
    2b6c:	00300463          	beq	zero,gp,2b74 <bne_test+0x20>
    2b70:	ec0fd06f          	j	230 <fail>
    2b74:	00301863          	bne	zero,gp,2b84 <bne_test+0x30>
    2b78:	fe209ee3          	bne	ra,sp,2b74 <bne_test+0x20>
    2b7c:	00300463          	beq	zero,gp,2b84 <bne_test+0x30>
    2b80:	eb0fd06f          	j	230 <fail>
    2b84:	ffffd097          	auipc	ra,0xffffd
    2b88:	68c080e7          	jalr	1676(ra) # 210 <update_test>
    2b8c:	00300193          	li	gp,3
    2b90:	00100093          	li	ra,1
    2b94:	00000113          	li	sp,0
    2b98:	00209863          	bne	ra,sp,2ba8 <bne_test+0x54>
    2b9c:	00300463          	beq	zero,gp,2ba4 <bne_test+0x50>
    2ba0:	e90fd06f          	j	230 <fail>
    2ba4:	00301863          	bne	zero,gp,2bb4 <bne_test+0x60>
    2ba8:	fe209ee3          	bne	ra,sp,2ba4 <bne_test+0x50>
    2bac:	00300463          	beq	zero,gp,2bb4 <bne_test+0x60>
    2bb0:	e80fd06f          	j	230 <fail>
    2bb4:	ffffd097          	auipc	ra,0xffffd
    2bb8:	65c080e7          	jalr	1628(ra) # 210 <update_test>
    2bbc:	00400193          	li	gp,4
    2bc0:	fff00093          	li	ra,-1
    2bc4:	00100113          	li	sp,1
    2bc8:	00209863          	bne	ra,sp,2bd8 <bne_test+0x84>
    2bcc:	00300463          	beq	zero,gp,2bd4 <bne_test+0x80>
    2bd0:	e60fd06f          	j	230 <fail>
    2bd4:	00301863          	bne	zero,gp,2be4 <bne_test+0x90>
    2bd8:	fe209ee3          	bne	ra,sp,2bd4 <bne_test+0x80>
    2bdc:	00300463          	beq	zero,gp,2be4 <bne_test+0x90>
    2be0:	e50fd06f          	j	230 <fail>
    2be4:	ffffd097          	auipc	ra,0xffffd
    2be8:	62c080e7          	jalr	1580(ra) # 210 <update_test>
    2bec:	00500193          	li	gp,5
    2bf0:	00100093          	li	ra,1
    2bf4:	fff00113          	li	sp,-1
    2bf8:	00209863          	bne	ra,sp,2c08 <bne_test+0xb4>
    2bfc:	00300463          	beq	zero,gp,2c04 <bne_test+0xb0>
    2c00:	e30fd06f          	j	230 <fail>
    2c04:	00301863          	bne	zero,gp,2c14 <bne_test+0xc0>
    2c08:	fe209ee3          	bne	ra,sp,2c04 <bne_test+0xb0>
    2c0c:	00300463          	beq	zero,gp,2c14 <bne_test+0xc0>
    2c10:	e20fd06f          	j	230 <fail>
    2c14:	ffffd097          	auipc	ra,0xffffd
    2c18:	5fc080e7          	jalr	1532(ra) # 210 <update_test>
    2c1c:	00600193          	li	gp,6
    2c20:	00000093          	li	ra,0
    2c24:	00000113          	li	sp,0
    2c28:	00209463          	bne	ra,sp,2c30 <bne_test+0xdc>
    2c2c:	00301663          	bne	zero,gp,2c38 <bne_test+0xe4>
    2c30:	00300463          	beq	zero,gp,2c38 <bne_test+0xe4>
    2c34:	dfcfd06f          	j	230 <fail>
    2c38:	fe209ce3          	bne	ra,sp,2c30 <bne_test+0xdc>
    2c3c:	ffffd097          	auipc	ra,0xffffd
    2c40:	5d4080e7          	jalr	1492(ra) # 210 <update_test>
    2c44:	00700193          	li	gp,7
    2c48:	00100093          	li	ra,1
    2c4c:	00100113          	li	sp,1
    2c50:	00209463          	bne	ra,sp,2c58 <bne_test+0x104>
    2c54:	00301663          	bne	zero,gp,2c60 <bne_test+0x10c>
    2c58:	00300463          	beq	zero,gp,2c60 <bne_test+0x10c>
    2c5c:	dd4fd06f          	j	230 <fail>
    2c60:	fe209ce3          	bne	ra,sp,2c58 <bne_test+0x104>
    2c64:	ffffd097          	auipc	ra,0xffffd
    2c68:	5ac080e7          	jalr	1452(ra) # 210 <update_test>
    2c6c:	00800193          	li	gp,8
    2c70:	fff00093          	li	ra,-1
    2c74:	fff00113          	li	sp,-1
    2c78:	00209463          	bne	ra,sp,2c80 <bne_test+0x12c>
    2c7c:	00301663          	bne	zero,gp,2c88 <bne_test+0x134>
    2c80:	00300463          	beq	zero,gp,2c88 <bne_test+0x134>
    2c84:	dacfd06f          	j	230 <fail>
    2c88:	fe209ce3          	bne	ra,sp,2c80 <bne_test+0x12c>
    2c8c:	ffffd097          	auipc	ra,0xffffd
    2c90:	584080e7          	jalr	1412(ra) # 210 <update_test>
    2c94:	000f8067          	jr	t6

00002c98 <blt_test>:
    2c98:	00000513          	li	a0,0
    2c9c:	00a62023          	sw	a0,0(a2)
    2ca0:	00200193          	li	gp,2
    2ca4:	00000093          	li	ra,0
    2ca8:	00100113          	li	sp,1
    2cac:	0020c863          	blt	ra,sp,2cbc <blt_test+0x24>
    2cb0:	00300463          	beq	zero,gp,2cb8 <blt_test+0x20>
    2cb4:	d7cfd06f          	j	230 <fail>
    2cb8:	00301863          	bne	zero,gp,2cc8 <blt_test+0x30>
    2cbc:	fe20cee3          	blt	ra,sp,2cb8 <blt_test+0x20>
    2cc0:	00300463          	beq	zero,gp,2cc8 <blt_test+0x30>
    2cc4:	d6cfd06f          	j	230 <fail>
    2cc8:	ffffd097          	auipc	ra,0xffffd
    2ccc:	548080e7          	jalr	1352(ra) # 210 <update_test>
    2cd0:	00300193          	li	gp,3
    2cd4:	fff00093          	li	ra,-1
    2cd8:	00100113          	li	sp,1
    2cdc:	0020c863          	blt	ra,sp,2cec <blt_test+0x54>
    2ce0:	00300463          	beq	zero,gp,2ce8 <blt_test+0x50>
    2ce4:	d4cfd06f          	j	230 <fail>
    2ce8:	00301863          	bne	zero,gp,2cf8 <blt_test+0x60>
    2cec:	fe20cee3          	blt	ra,sp,2ce8 <blt_test+0x50>
    2cf0:	00300463          	beq	zero,gp,2cf8 <blt_test+0x60>
    2cf4:	d3cfd06f          	j	230 <fail>
    2cf8:	ffffd097          	auipc	ra,0xffffd
    2cfc:	518080e7          	jalr	1304(ra) # 210 <update_test>
    2d00:	00400193          	li	gp,4
    2d04:	ffe00093          	li	ra,-2
    2d08:	fff00113          	li	sp,-1
    2d0c:	0020c863          	blt	ra,sp,2d1c <blt_test+0x84>
    2d10:	00300463          	beq	zero,gp,2d18 <blt_test+0x80>
    2d14:	d1cfd06f          	j	230 <fail>
    2d18:	00301863          	bne	zero,gp,2d28 <blt_test+0x90>
    2d1c:	fe20cee3          	blt	ra,sp,2d18 <blt_test+0x80>
    2d20:	00300463          	beq	zero,gp,2d28 <blt_test+0x90>
    2d24:	d0cfd06f          	j	230 <fail>
    2d28:	ffffd097          	auipc	ra,0xffffd
    2d2c:	4e8080e7          	jalr	1256(ra) # 210 <update_test>
    2d30:	00500193          	li	gp,5
    2d34:	00100093          	li	ra,1
    2d38:	00000113          	li	sp,0
    2d3c:	0020c463          	blt	ra,sp,2d44 <blt_test+0xac>
    2d40:	00301663          	bne	zero,gp,2d4c <blt_test+0xb4>
    2d44:	00300463          	beq	zero,gp,2d4c <blt_test+0xb4>
    2d48:	ce8fd06f          	j	230 <fail>
    2d4c:	fe20cce3          	blt	ra,sp,2d44 <blt_test+0xac>
    2d50:	ffffd097          	auipc	ra,0xffffd
    2d54:	4c0080e7          	jalr	1216(ra) # 210 <update_test>
    2d58:	00600193          	li	gp,6
    2d5c:	00100093          	li	ra,1
    2d60:	fff00113          	li	sp,-1
    2d64:	0020c463          	blt	ra,sp,2d6c <blt_test+0xd4>
    2d68:	00301663          	bne	zero,gp,2d74 <blt_test+0xdc>
    2d6c:	00300463          	beq	zero,gp,2d74 <blt_test+0xdc>
    2d70:	cc0fd06f          	j	230 <fail>
    2d74:	fe20cce3          	blt	ra,sp,2d6c <blt_test+0xd4>
    2d78:	ffffd097          	auipc	ra,0xffffd
    2d7c:	498080e7          	jalr	1176(ra) # 210 <update_test>
    2d80:	00700193          	li	gp,7
    2d84:	fff00093          	li	ra,-1
    2d88:	ffe00113          	li	sp,-2
    2d8c:	0020c463          	blt	ra,sp,2d94 <blt_test+0xfc>
    2d90:	00301663          	bne	zero,gp,2d9c <blt_test+0x104>
    2d94:	00300463          	beq	zero,gp,2d9c <blt_test+0x104>
    2d98:	c98fd06f          	j	230 <fail>
    2d9c:	fe20cce3          	blt	ra,sp,2d94 <blt_test+0xfc>
    2da0:	ffffd097          	auipc	ra,0xffffd
    2da4:	470080e7          	jalr	1136(ra) # 210 <update_test>
    2da8:	00800193          	li	gp,8
    2dac:	00100093          	li	ra,1
    2db0:	ffe00113          	li	sp,-2
    2db4:	0020c463          	blt	ra,sp,2dbc <blt_test+0x124>
    2db8:	00301663          	bne	zero,gp,2dc4 <blt_test+0x12c>
    2dbc:	00300463          	beq	zero,gp,2dc4 <blt_test+0x12c>
    2dc0:	c70fd06f          	j	230 <fail>
    2dc4:	fe20cce3          	blt	ra,sp,2dbc <blt_test+0x124>
    2dc8:	ffffd097          	auipc	ra,0xffffd
    2dcc:	448080e7          	jalr	1096(ra) # 210 <update_test>
    2dd0:	000f8067          	jr	t6

00002dd4 <bge_test>:
    2dd4:	00000513          	li	a0,0
    2dd8:	00a62023          	sw	a0,0(a2)
    2ddc:	00200193          	li	gp,2
    2de0:	00000093          	li	ra,0
    2de4:	00000113          	li	sp,0
    2de8:	0020d863          	bge	ra,sp,2df8 <bge_test+0x24>
    2dec:	00300463          	beq	zero,gp,2df4 <bge_test+0x20>
    2df0:	c40fd06f          	j	230 <fail>
    2df4:	00301863          	bne	zero,gp,2e04 <bge_test+0x30>
    2df8:	fe20dee3          	bge	ra,sp,2df4 <bge_test+0x20>
    2dfc:	00300463          	beq	zero,gp,2e04 <bge_test+0x30>
    2e00:	c30fd06f          	j	230 <fail>
    2e04:	ffffd097          	auipc	ra,0xffffd
    2e08:	40c080e7          	jalr	1036(ra) # 210 <update_test>
    2e0c:	00300193          	li	gp,3
    2e10:	00100093          	li	ra,1
    2e14:	00100113          	li	sp,1
    2e18:	0020d863          	bge	ra,sp,2e28 <bge_test+0x54>
    2e1c:	00300463          	beq	zero,gp,2e24 <bge_test+0x50>
    2e20:	c10fd06f          	j	230 <fail>
    2e24:	00301863          	bne	zero,gp,2e34 <bge_test+0x60>
    2e28:	fe20dee3          	bge	ra,sp,2e24 <bge_test+0x50>
    2e2c:	00300463          	beq	zero,gp,2e34 <bge_test+0x60>
    2e30:	c00fd06f          	j	230 <fail>
    2e34:	ffffd097          	auipc	ra,0xffffd
    2e38:	3dc080e7          	jalr	988(ra) # 210 <update_test>
    2e3c:	00400193          	li	gp,4
    2e40:	fff00093          	li	ra,-1
    2e44:	fff00113          	li	sp,-1
    2e48:	0020d863          	bge	ra,sp,2e58 <bge_test+0x84>
    2e4c:	00300463          	beq	zero,gp,2e54 <bge_test+0x80>
    2e50:	be0fd06f          	j	230 <fail>
    2e54:	00301863          	bne	zero,gp,2e64 <bge_test+0x90>
    2e58:	fe20dee3          	bge	ra,sp,2e54 <bge_test+0x80>
    2e5c:	00300463          	beq	zero,gp,2e64 <bge_test+0x90>
    2e60:	bd0fd06f          	j	230 <fail>
    2e64:	ffffd097          	auipc	ra,0xffffd
    2e68:	3ac080e7          	jalr	940(ra) # 210 <update_test>
    2e6c:	00500193          	li	gp,5
    2e70:	00100093          	li	ra,1
    2e74:	00000113          	li	sp,0
    2e78:	0020d863          	bge	ra,sp,2e88 <bge_test+0xb4>
    2e7c:	00300463          	beq	zero,gp,2e84 <bge_test+0xb0>
    2e80:	bb0fd06f          	j	230 <fail>
    2e84:	00301863          	bne	zero,gp,2e94 <bge_test+0xc0>
    2e88:	fe20dee3          	bge	ra,sp,2e84 <bge_test+0xb0>
    2e8c:	00300463          	beq	zero,gp,2e94 <bge_test+0xc0>
    2e90:	ba0fd06f          	j	230 <fail>
    2e94:	ffffd097          	auipc	ra,0xffffd
    2e98:	37c080e7          	jalr	892(ra) # 210 <update_test>
    2e9c:	00600193          	li	gp,6
    2ea0:	00100093          	li	ra,1
    2ea4:	fff00113          	li	sp,-1
    2ea8:	0020d863          	bge	ra,sp,2eb8 <bge_test+0xe4>
    2eac:	00300463          	beq	zero,gp,2eb4 <bge_test+0xe0>
    2eb0:	b80fd06f          	j	230 <fail>
    2eb4:	00301863          	bne	zero,gp,2ec4 <bge_test+0xf0>
    2eb8:	fe20dee3          	bge	ra,sp,2eb4 <bge_test+0xe0>
    2ebc:	00300463          	beq	zero,gp,2ec4 <bge_test+0xf0>
    2ec0:	b70fd06f          	j	230 <fail>
    2ec4:	ffffd097          	auipc	ra,0xffffd
    2ec8:	34c080e7          	jalr	844(ra) # 210 <update_test>
    2ecc:	00700193          	li	gp,7
    2ed0:	fff00093          	li	ra,-1
    2ed4:	ffe00113          	li	sp,-2
    2ed8:	0020d863          	bge	ra,sp,2ee8 <bge_test+0x114>
    2edc:	00300463          	beq	zero,gp,2ee4 <bge_test+0x110>
    2ee0:	b50fd06f          	j	230 <fail>
    2ee4:	00301863          	bne	zero,gp,2ef4 <bge_test+0x120>
    2ee8:	fe20dee3          	bge	ra,sp,2ee4 <bge_test+0x110>
    2eec:	00300463          	beq	zero,gp,2ef4 <bge_test+0x120>
    2ef0:	b40fd06f          	j	230 <fail>
    2ef4:	ffffd097          	auipc	ra,0xffffd
    2ef8:	31c080e7          	jalr	796(ra) # 210 <update_test>
    2efc:	00800193          	li	gp,8
    2f00:	00000093          	li	ra,0
    2f04:	00100113          	li	sp,1
    2f08:	0020d463          	bge	ra,sp,2f10 <bge_test+0x13c>
    2f0c:	00301663          	bne	zero,gp,2f18 <bge_test+0x144>
    2f10:	00300463          	beq	zero,gp,2f18 <bge_test+0x144>
    2f14:	b1cfd06f          	j	230 <fail>
    2f18:	fe20dce3          	bge	ra,sp,2f10 <bge_test+0x13c>
    2f1c:	ffffd097          	auipc	ra,0xffffd
    2f20:	2f4080e7          	jalr	756(ra) # 210 <update_test>
    2f24:	00900193          	li	gp,9
    2f28:	fff00093          	li	ra,-1
    2f2c:	00100113          	li	sp,1
    2f30:	0020d463          	bge	ra,sp,2f38 <bge_test+0x164>
    2f34:	00301663          	bne	zero,gp,2f40 <bge_test+0x16c>
    2f38:	00300463          	beq	zero,gp,2f40 <bge_test+0x16c>
    2f3c:	af4fd06f          	j	230 <fail>
    2f40:	fe20dce3          	bge	ra,sp,2f38 <bge_test+0x164>
    2f44:	ffffd097          	auipc	ra,0xffffd
    2f48:	2cc080e7          	jalr	716(ra) # 210 <update_test>
    2f4c:	00a00193          	li	gp,10
    2f50:	ffe00093          	li	ra,-2
    2f54:	fff00113          	li	sp,-1
    2f58:	0020d463          	bge	ra,sp,2f60 <bge_test+0x18c>
    2f5c:	00301663          	bne	zero,gp,2f68 <bge_test+0x194>
    2f60:	00300463          	beq	zero,gp,2f68 <bge_test+0x194>
    2f64:	accfd06f          	j	230 <fail>
    2f68:	fe20dce3          	bge	ra,sp,2f60 <bge_test+0x18c>
    2f6c:	ffffd097          	auipc	ra,0xffffd
    2f70:	2a4080e7          	jalr	676(ra) # 210 <update_test>
    2f74:	00b00193          	li	gp,11
    2f78:	ffe00093          	li	ra,-2
    2f7c:	00100113          	li	sp,1
    2f80:	0020d463          	bge	ra,sp,2f88 <bge_test+0x1b4>
    2f84:	00301663          	bne	zero,gp,2f90 <bge_test+0x1bc>
    2f88:	00300463          	beq	zero,gp,2f90 <bge_test+0x1bc>
    2f8c:	aa4fd06f          	j	230 <fail>
    2f90:	fe20dce3          	bge	ra,sp,2f88 <bge_test+0x1b4>
    2f94:	ffffd097          	auipc	ra,0xffffd
    2f98:	27c080e7          	jalr	636(ra) # 210 <update_test>
    2f9c:	000f8067          	jr	t6

00002fa0 <bltu_test>:
    2fa0:	00000513          	li	a0,0
    2fa4:	00a62023          	sw	a0,0(a2)
    2fa8:	00200193          	li	gp,2
    2fac:	00000093          	li	ra,0
    2fb0:	00100113          	li	sp,1
    2fb4:	0020e863          	bltu	ra,sp,2fc4 <bltu_test+0x24>
    2fb8:	00300463          	beq	zero,gp,2fc0 <bltu_test+0x20>
    2fbc:	a74fd06f          	j	230 <fail>
    2fc0:	00301863          	bne	zero,gp,2fd0 <bltu_test+0x30>
    2fc4:	fe20eee3          	bltu	ra,sp,2fc0 <bltu_test+0x20>
    2fc8:	00300463          	beq	zero,gp,2fd0 <bltu_test+0x30>
    2fcc:	a64fd06f          	j	230 <fail>
    2fd0:	ffffd097          	auipc	ra,0xffffd
    2fd4:	240080e7          	jalr	576(ra) # 210 <update_test>
    2fd8:	00300193          	li	gp,3
    2fdc:	ffe00093          	li	ra,-2
    2fe0:	fff00113          	li	sp,-1
    2fe4:	0020e863          	bltu	ra,sp,2ff4 <bltu_test+0x54>
    2fe8:	00300463          	beq	zero,gp,2ff0 <bltu_test+0x50>
    2fec:	a44fd06f          	j	230 <fail>
    2ff0:	00301863          	bne	zero,gp,3000 <bltu_test+0x60>
    2ff4:	fe20eee3          	bltu	ra,sp,2ff0 <bltu_test+0x50>
    2ff8:	00300463          	beq	zero,gp,3000 <bltu_test+0x60>
    2ffc:	a34fd06f          	j	230 <fail>
    3000:	ffffd097          	auipc	ra,0xffffd
    3004:	210080e7          	jalr	528(ra) # 210 <update_test>
    3008:	00400193          	li	gp,4
    300c:	00000093          	li	ra,0
    3010:	fff00113          	li	sp,-1
    3014:	0020e863          	bltu	ra,sp,3024 <bltu_test+0x84>
    3018:	00300463          	beq	zero,gp,3020 <bltu_test+0x80>
    301c:	a14fd06f          	j	230 <fail>
    3020:	00301863          	bne	zero,gp,3030 <bltu_test+0x90>
    3024:	fe20eee3          	bltu	ra,sp,3020 <bltu_test+0x80>
    3028:	00300463          	beq	zero,gp,3030 <bltu_test+0x90>
    302c:	a04fd06f          	j	230 <fail>
    3030:	ffffd097          	auipc	ra,0xffffd
    3034:	1e0080e7          	jalr	480(ra) # 210 <update_test>
    3038:	00500193          	li	gp,5
    303c:	00100093          	li	ra,1
    3040:	00000113          	li	sp,0
    3044:	0020e463          	bltu	ra,sp,304c <bltu_test+0xac>
    3048:	00301663          	bne	zero,gp,3054 <bltu_test+0xb4>
    304c:	00300463          	beq	zero,gp,3054 <bltu_test+0xb4>
    3050:	9e0fd06f          	j	230 <fail>
    3054:	fe20ece3          	bltu	ra,sp,304c <bltu_test+0xac>
    3058:	ffffd097          	auipc	ra,0xffffd
    305c:	1b8080e7          	jalr	440(ra) # 210 <update_test>
    3060:	00600193          	li	gp,6
    3064:	fff00093          	li	ra,-1
    3068:	ffe00113          	li	sp,-2
    306c:	0020e463          	bltu	ra,sp,3074 <bltu_test+0xd4>
    3070:	00301663          	bne	zero,gp,307c <bltu_test+0xdc>
    3074:	00300463          	beq	zero,gp,307c <bltu_test+0xdc>
    3078:	9b8fd06f          	j	230 <fail>
    307c:	fe20ece3          	bltu	ra,sp,3074 <bltu_test+0xd4>
    3080:	ffffd097          	auipc	ra,0xffffd
    3084:	190080e7          	jalr	400(ra) # 210 <update_test>
    3088:	00700193          	li	gp,7
    308c:	fff00093          	li	ra,-1
    3090:	00000113          	li	sp,0
    3094:	0020e463          	bltu	ra,sp,309c <bltu_test+0xfc>
    3098:	00301663          	bne	zero,gp,30a4 <bltu_test+0x104>
    309c:	00300463          	beq	zero,gp,30a4 <bltu_test+0x104>
    30a0:	990fd06f          	j	230 <fail>
    30a4:	fe20ece3          	bltu	ra,sp,309c <bltu_test+0xfc>
    30a8:	ffffd097          	auipc	ra,0xffffd
    30ac:	168080e7          	jalr	360(ra) # 210 <update_test>
    30b0:	00800193          	li	gp,8
    30b4:	800000b7          	lui	ra,0x80000
    30b8:	80000137          	lui	sp,0x80000
    30bc:	fff10113          	addi	sp,sp,-1 # 7fffffff <SSEG+0x6ef3ffff>
    30c0:	0020e463          	bltu	ra,sp,30c8 <bltu_test+0x128>
    30c4:	00301663          	bne	zero,gp,30d0 <bltu_test+0x130>
    30c8:	00300463          	beq	zero,gp,30d0 <bltu_test+0x130>
    30cc:	964fd06f          	j	230 <fail>
    30d0:	fe20ece3          	bltu	ra,sp,30c8 <bltu_test+0x128>
    30d4:	ffffd097          	auipc	ra,0xffffd
    30d8:	13c080e7          	jalr	316(ra) # 210 <update_test>
    30dc:	000f8067          	jr	t6

000030e0 <bgeu_test>:
    30e0:	00000513          	li	a0,0
    30e4:	00a62023          	sw	a0,0(a2)
    30e8:	00200193          	li	gp,2
    30ec:	00000093          	li	ra,0
    30f0:	00000113          	li	sp,0
    30f4:	0020f863          	bgeu	ra,sp,3104 <bgeu_test+0x24>
    30f8:	00300463          	beq	zero,gp,3100 <bgeu_test+0x20>
    30fc:	934fd06f          	j	230 <fail>
    3100:	00301863          	bne	zero,gp,3110 <bgeu_test+0x30>
    3104:	fe20fee3          	bgeu	ra,sp,3100 <bgeu_test+0x20>
    3108:	00300463          	beq	zero,gp,3110 <bgeu_test+0x30>
    310c:	924fd06f          	j	230 <fail>
    3110:	ffffd097          	auipc	ra,0xffffd
    3114:	100080e7          	jalr	256(ra) # 210 <update_test>
    3118:	00300193          	li	gp,3
    311c:	00100093          	li	ra,1
    3120:	00100113          	li	sp,1
    3124:	0020f863          	bgeu	ra,sp,3134 <bgeu_test+0x54>
    3128:	00300463          	beq	zero,gp,3130 <bgeu_test+0x50>
    312c:	904fd06f          	j	230 <fail>
    3130:	00301863          	bne	zero,gp,3140 <bgeu_test+0x60>
    3134:	fe20fee3          	bgeu	ra,sp,3130 <bgeu_test+0x50>
    3138:	00300463          	beq	zero,gp,3140 <bgeu_test+0x60>
    313c:	8f4fd06f          	j	230 <fail>
    3140:	ffffd097          	auipc	ra,0xffffd
    3144:	0d0080e7          	jalr	208(ra) # 210 <update_test>
    3148:	00400193          	li	gp,4
    314c:	fff00093          	li	ra,-1
    3150:	fff00113          	li	sp,-1
    3154:	0020f863          	bgeu	ra,sp,3164 <bgeu_test+0x84>
    3158:	00300463          	beq	zero,gp,3160 <bgeu_test+0x80>
    315c:	8d4fd06f          	j	230 <fail>
    3160:	00301863          	bne	zero,gp,3170 <bgeu_test+0x90>
    3164:	fe20fee3          	bgeu	ra,sp,3160 <bgeu_test+0x80>
    3168:	00300463          	beq	zero,gp,3170 <bgeu_test+0x90>
    316c:	8c4fd06f          	j	230 <fail>
    3170:	ffffd097          	auipc	ra,0xffffd
    3174:	0a0080e7          	jalr	160(ra) # 210 <update_test>
    3178:	00500193          	li	gp,5
    317c:	00100093          	li	ra,1
    3180:	00000113          	li	sp,0
    3184:	0020f863          	bgeu	ra,sp,3194 <bgeu_test+0xb4>
    3188:	00300463          	beq	zero,gp,3190 <bgeu_test+0xb0>
    318c:	8a4fd06f          	j	230 <fail>
    3190:	00301863          	bne	zero,gp,31a0 <bgeu_test+0xc0>
    3194:	fe20fee3          	bgeu	ra,sp,3190 <bgeu_test+0xb0>
    3198:	00300463          	beq	zero,gp,31a0 <bgeu_test+0xc0>
    319c:	894fd06f          	j	230 <fail>
    31a0:	ffffd097          	auipc	ra,0xffffd
    31a4:	070080e7          	jalr	112(ra) # 210 <update_test>
    31a8:	00600193          	li	gp,6
    31ac:	fff00093          	li	ra,-1
    31b0:	ffe00113          	li	sp,-2
    31b4:	0020f863          	bgeu	ra,sp,31c4 <bgeu_test+0xe4>
    31b8:	00300463          	beq	zero,gp,31c0 <bgeu_test+0xe0>
    31bc:	874fd06f          	j	230 <fail>
    31c0:	00301863          	bne	zero,gp,31d0 <bgeu_test+0xf0>
    31c4:	fe20fee3          	bgeu	ra,sp,31c0 <bgeu_test+0xe0>
    31c8:	00300463          	beq	zero,gp,31d0 <bgeu_test+0xf0>
    31cc:	864fd06f          	j	230 <fail>
    31d0:	ffffd097          	auipc	ra,0xffffd
    31d4:	040080e7          	jalr	64(ra) # 210 <update_test>
    31d8:	00700193          	li	gp,7
    31dc:	fff00093          	li	ra,-1
    31e0:	00000113          	li	sp,0
    31e4:	0020f863          	bgeu	ra,sp,31f4 <bgeu_test+0x114>
    31e8:	00300463          	beq	zero,gp,31f0 <bgeu_test+0x110>
    31ec:	844fd06f          	j	230 <fail>
    31f0:	00301863          	bne	zero,gp,3200 <bgeu_test+0x120>
    31f4:	fe20fee3          	bgeu	ra,sp,31f0 <bgeu_test+0x110>
    31f8:	00300463          	beq	zero,gp,3200 <bgeu_test+0x120>
    31fc:	834fd06f          	j	230 <fail>
    3200:	ffffd097          	auipc	ra,0xffffd
    3204:	010080e7          	jalr	16(ra) # 210 <update_test>
    3208:	00800193          	li	gp,8
    320c:	00000093          	li	ra,0
    3210:	00100113          	li	sp,1
    3214:	0020f463          	bgeu	ra,sp,321c <bgeu_test+0x13c>
    3218:	00301663          	bne	zero,gp,3224 <bgeu_test+0x144>
    321c:	00300463          	beq	zero,gp,3224 <bgeu_test+0x144>
    3220:	810fd06f          	j	230 <fail>
    3224:	fe20fce3          	bgeu	ra,sp,321c <bgeu_test+0x13c>
    3228:	ffffd097          	auipc	ra,0xffffd
    322c:	fe8080e7          	jalr	-24(ra) # 210 <update_test>
    3230:	00900193          	li	gp,9
    3234:	ffe00093          	li	ra,-2
    3238:	fff00113          	li	sp,-1
    323c:	0020f463          	bgeu	ra,sp,3244 <bgeu_test+0x164>
    3240:	00301663          	bne	zero,gp,324c <bgeu_test+0x16c>
    3244:	00300463          	beq	zero,gp,324c <bgeu_test+0x16c>
    3248:	fe9fc06f          	j	230 <fail>
    324c:	fe20fce3          	bgeu	ra,sp,3244 <bgeu_test+0x164>
    3250:	ffffd097          	auipc	ra,0xffffd
    3254:	fc0080e7          	jalr	-64(ra) # 210 <update_test>
    3258:	00a00193          	li	gp,10
    325c:	00000093          	li	ra,0
    3260:	fff00113          	li	sp,-1
    3264:	0020f463          	bgeu	ra,sp,326c <bgeu_test+0x18c>
    3268:	00301663          	bne	zero,gp,3274 <bgeu_test+0x194>
    326c:	00300463          	beq	zero,gp,3274 <bgeu_test+0x194>
    3270:	fc1fc06f          	j	230 <fail>
    3274:	fe20fce3          	bgeu	ra,sp,326c <bgeu_test+0x18c>
    3278:	ffffd097          	auipc	ra,0xffffd
    327c:	f98080e7          	jalr	-104(ra) # 210 <update_test>
    3280:	00b00193          	li	gp,11
    3284:	800000b7          	lui	ra,0x80000
    3288:	fff08093          	addi	ra,ra,-1 # 7fffffff <SSEG+0x6ef3ffff>
    328c:	80000137          	lui	sp,0x80000
    3290:	0020f463          	bgeu	ra,sp,3298 <bgeu_test+0x1b8>
    3294:	00301663          	bne	zero,gp,32a0 <bgeu_test+0x1c0>
    3298:	00300463          	beq	zero,gp,32a0 <bgeu_test+0x1c0>
    329c:	f95fc06f          	j	230 <fail>
    32a0:	fe20fce3          	bgeu	ra,sp,3298 <bgeu_test+0x1b8>
    32a4:	ffffd097          	auipc	ra,0xffffd
    32a8:	f6c080e7          	jalr	-148(ra) # 210 <update_test>
    32ac:	000f8067          	jr	t6

000032b0 <auipc_test>:
    32b0:	00000513          	li	a0,0
    32b4:	00a62023          	sw	a0,0(a2)
    32b8:	00002e17          	auipc	t3,0x2
    32bc:	71ce0e13          	addi	t3,t3,1820 # 59d4 <__global_pointer$+0x12a8>
    32c0:	00400def          	jal	s11,32c4 <auipc_test+0x14>
    32c4:	41be0e33          	sub	t3,t3,s11
    32c8:	00002eb7          	lui	t4,0x2
    32cc:	710e8e93          	addi	t4,t4,1808 # 2710 <lw_test+0x54>
    32d0:	00200193          	li	gp,2
    32d4:	01de0463          	beq	t3,t4,32dc <auipc_test+0x2c>
    32d8:	f59fc06f          	j	230 <fail>
    32dc:	ffffd097          	auipc	ra,0xffffd
    32e0:	f34080e7          	jalr	-204(ra) # 210 <update_test>
    32e4:	00000013          	nop
    32e8:	ffffee17          	auipc	t3,0xffffe
    32ec:	8fce0e13          	addi	t3,t3,-1796 # be4 <sll_test+0x178>
    32f0:	00400def          	jal	s11,32f4 <auipc_test+0x44>
    32f4:	41be0e33          	sub	t3,t3,s11
    32f8:	ffffeeb7          	lui	t4,0xffffe
    32fc:	8f0e8e93          	addi	t4,t4,-1808 # ffffd8f0 <SSEG+0xeef3d8f0>
    3300:	00300193          	li	gp,3
    3304:	01de0463          	beq	t3,t4,330c <auipc_test+0x5c>
    3308:	f29fc06f          	j	230 <fail>
    330c:	ffffd097          	auipc	ra,0xffffd
    3310:	f04080e7          	jalr	-252(ra) # 210 <update_test>
    3314:	000f8067          	jr	t6

00003318 <lui_test>:
    3318:	00000513          	li	a0,0
    331c:	00a62023          	sw	a0,0(a2)
    3320:	000000b7          	lui	ra,0x0
    3324:	00000e93          	li	t4,0
    3328:	00200193          	li	gp,2
    332c:	01d08463          	beq	ra,t4,3334 <lui_test+0x1c>
    3330:	f01fc06f          	j	230 <fail>
    3334:	ffffd097          	auipc	ra,0xffffd
    3338:	edc080e7          	jalr	-292(ra) # 210 <update_test>
    333c:	fffff0b7          	lui	ra,0xfffff
    3340:	4010d093          	srai	ra,ra,0x1
    3344:	80000e93          	li	t4,-2048
    3348:	00300193          	li	gp,3
    334c:	01d08463          	beq	ra,t4,3354 <lui_test+0x3c>
    3350:	ee1fc06f          	j	230 <fail>
    3354:	ffffd097          	auipc	ra,0xffffd
    3358:	ebc080e7          	jalr	-324(ra) # 210 <update_test>
    335c:	7ffff0b7          	lui	ra,0x7ffff
    3360:	4140d093          	srai	ra,ra,0x14
    3364:	7ff00e93          	li	t4,2047
    3368:	00400193          	li	gp,4
    336c:	01d08463          	beq	ra,t4,3374 <lui_test+0x5c>
    3370:	ec1fc06f          	j	230 <fail>
    3374:	ffffd097          	auipc	ra,0xffffd
    3378:	e9c080e7          	jalr	-356(ra) # 210 <update_test>
    337c:	800000b7          	lui	ra,0x80000
    3380:	4140d093          	srai	ra,ra,0x14
    3384:	80000e93          	li	t4,-2048
    3388:	00500193          	li	gp,5
    338c:	01d08463          	beq	ra,t4,3394 <lui_test+0x7c>
    3390:	ea1fc06f          	j	230 <fail>
    3394:	ffffd097          	auipc	ra,0xffffd
    3398:	e7c080e7          	jalr	-388(ra) # 210 <update_test>
    339c:	80000037          	lui	zero,0x80000
    33a0:	00000e93          	li	t4,0
    33a4:	00600193          	li	gp,6
    33a8:	01d00463          	beq	zero,t4,33b0 <lui_test+0x98>
    33ac:	e85fc06f          	j	230 <fail>
    33b0:	ffffd097          	auipc	ra,0xffffd
    33b4:	e60080e7          	jalr	-416(ra) # 210 <update_test>
    33b8:	000f8067          	jr	t6

000033bc <jal_test>:
    33bc:	00000513          	li	a0,0
    33c0:	00a62023          	sw	a0,0(a2)
    33c4:	00200193          	li	gp,2
    33c8:	00000093          	li	ra,0
    33cc:	0100026f          	jal	tp,33dc <target_2>

000033d0 <linkaddr_2>:
    33d0:	00000013          	nop
    33d4:	00000013          	nop
    33d8:	e59fc06f          	j	230 <fail>

000033dc <target_2>:
    33dc:	00000117          	auipc	sp,0x0
    33e0:	ff410113          	addi	sp,sp,-12 # 33d0 <linkaddr_2>
    33e4:	00410463          	beq	sp,tp,33ec <target_2+0x10>
    33e8:	e49fc06f          	j	230 <fail>
    33ec:	ffffd097          	auipc	ra,0xffffd
    33f0:	e24080e7          	jalr	-476(ra) # 210 <update_test>
    33f4:	00100093          	li	ra,1
    33f8:	0140006f          	j	340c <target_2+0x30>
    33fc:	00108093          	addi	ra,ra,1
    3400:	00108093          	addi	ra,ra,1
    3404:	00108093          	addi	ra,ra,1
    3408:	00108093          	addi	ra,ra,1
    340c:	00108093          	addi	ra,ra,1
    3410:	00108093          	addi	ra,ra,1
    3414:	00300e93          	li	t4,3
    3418:	00300193          	li	gp,3
    341c:	01d08463          	beq	ra,t4,3424 <target_2+0x48>
    3420:	e11fc06f          	j	230 <fail>
    3424:	ffffd097          	auipc	ra,0xffffd
    3428:	dec080e7          	jalr	-532(ra) # 210 <update_test>
    342c:	000f8067          	jr	t6

00003430 <jalr_test>:
    3430:	00000513          	li	a0,0
    3434:	00a62023          	sw	a0,0(a2)

00003438 <test_2a>:
    3438:	00200193          	li	gp,2
    343c:	00000293          	li	t0,0
    3440:	00000317          	auipc	t1,0x0
    3444:	01030313          	addi	t1,t1,16 # 3450 <target_2a>
    3448:	000302e7          	jalr	t0,t1

0000344c <linkaddr_2a>:
    344c:	de5fc06f          	j	230 <fail>

00003450 <target_2a>:
    3450:	00000317          	auipc	t1,0x0
    3454:	ffc30313          	addi	t1,t1,-4 # 344c <linkaddr_2a>
    3458:	00628463          	beq	t0,t1,3460 <target_2a+0x10>
    345c:	dd5fc06f          	j	230 <fail>
    3460:	ffffd097          	auipc	ra,0xffffd
    3464:	db0080e7          	jalr	-592(ra) # 210 <update_test>
    3468:	00400193          	li	gp,4
    346c:	00000213          	li	tp,0
    3470:	00000317          	auipc	t1,0x0
    3474:	01430313          	addi	t1,t1,20 # 3484 <target_2a+0x34>
    3478:	000309e7          	jalr	s3,t1
    347c:	00300463          	beq	zero,gp,3484 <target_2a+0x34>
    3480:	db1fc06f          	j	230 <fail>
    3484:	00120213          	addi	tp,tp,1 # 1 <entry+0x1>
    3488:	00200293          	li	t0,2
    348c:	fe5212e3          	bne	tp,t0,3470 <target_2a+0x20>
    3490:	ffffd097          	auipc	ra,0xffffd
    3494:	d80080e7          	jalr	-640(ra) # 210 <update_test>
    3498:	00500193          	li	gp,5
    349c:	00000213          	li	tp,0
    34a0:	00000317          	auipc	t1,0x0
    34a4:	01830313          	addi	t1,t1,24 # 34b8 <target_2a+0x68>
    34a8:	00000013          	nop
    34ac:	000309e7          	jalr	s3,t1
    34b0:	00300463          	beq	zero,gp,34b8 <target_2a+0x68>
    34b4:	d7dfc06f          	j	230 <fail>
    34b8:	00120213          	addi	tp,tp,1 # 1 <entry+0x1>
    34bc:	00200293          	li	t0,2
    34c0:	fe5210e3          	bne	tp,t0,34a0 <target_2a+0x50>
    34c4:	ffffd097          	auipc	ra,0xffffd
    34c8:	d4c080e7          	jalr	-692(ra) # 210 <update_test>
    34cc:	00600193          	li	gp,6
    34d0:	00000213          	li	tp,0
    34d4:	00000317          	auipc	t1,0x0
    34d8:	01c30313          	addi	t1,t1,28 # 34f0 <target_2a+0xa0>
    34dc:	00000013          	nop
    34e0:	00000013          	nop
    34e4:	000309e7          	jalr	s3,t1
    34e8:	00300463          	beq	zero,gp,34f0 <target_2a+0xa0>
    34ec:	d45fc06f          	j	230 <fail>
    34f0:	00120213          	addi	tp,tp,1 # 1 <entry+0x1>
    34f4:	00200293          	li	t0,2
    34f8:	fc521ee3          	bne	tp,t0,34d4 <target_2a+0x84>
    34fc:	ffffd097          	auipc	ra,0xffffd
    3500:	d14080e7          	jalr	-748(ra) # 210 <update_test>
    3504:	000f8067          	jr	t6

00003508 <lh_test>:
    3508:	00000513          	li	a0,0
    350c:	00a62023          	sw	a0,0(a2)
    3510:	00001097          	auipc	ra,0x1
    3514:	a5408093          	addi	ra,ra,-1452 # 3f64 <tdat1lh>
    3518:	00009f03          	lh	t5,0(ra)
    351c:	0ff00e93          	li	t4,255
    3520:	00200193          	li	gp,2
    3524:	01df0463          	beq	t5,t4,352c <lh_test+0x24>
    3528:	d09fc06f          	j	230 <fail>
    352c:	ffffd097          	auipc	ra,0xffffd
    3530:	ce4080e7          	jalr	-796(ra) # 210 <update_test>
    3534:	00001097          	auipc	ra,0x1
    3538:	a3008093          	addi	ra,ra,-1488 # 3f64 <tdat1lh>
    353c:	00209f03          	lh	t5,2(ra)
    3540:	f0000e93          	li	t4,-256
    3544:	00300193          	li	gp,3
    3548:	01df0463          	beq	t5,t4,3550 <lh_test+0x48>
    354c:	ce5fc06f          	j	230 <fail>
    3550:	ffffd097          	auipc	ra,0xffffd
    3554:	cc0080e7          	jalr	-832(ra) # 210 <update_test>
    3558:	00001097          	auipc	ra,0x1
    355c:	a0c08093          	addi	ra,ra,-1524 # 3f64 <tdat1lh>
    3560:	00409f03          	lh	t5,4(ra)
    3564:	00001eb7          	lui	t4,0x1
    3568:	ff0e8e93          	addi	t4,t4,-16 # ff0 <sra_test+0x6c>
    356c:	00400193          	li	gp,4
    3570:	01df0463          	beq	t5,t4,3578 <lh_test+0x70>
    3574:	cbdfc06f          	j	230 <fail>
    3578:	ffffd097          	auipc	ra,0xffffd
    357c:	c98080e7          	jalr	-872(ra) # 210 <update_test>
    3580:	00001097          	auipc	ra,0x1
    3584:	9e408093          	addi	ra,ra,-1564 # 3f64 <tdat1lh>
    3588:	00609f03          	lh	t5,6(ra)
    358c:	fffffeb7          	lui	t4,0xfffff
    3590:	00fe8e93          	addi	t4,t4,15 # fffff00f <SSEG+0xeef3f00f>
    3594:	00500193          	li	gp,5
    3598:	01df0463          	beq	t5,t4,35a0 <lh_test+0x98>
    359c:	c95fc06f          	j	230 <fail>
    35a0:	ffffd097          	auipc	ra,0xffffd
    35a4:	c70080e7          	jalr	-912(ra) # 210 <update_test>
    35a8:	00001097          	auipc	ra,0x1
    35ac:	9c208093          	addi	ra,ra,-1598 # 3f6a <tdat4lh>
    35b0:	ffa09f03          	lh	t5,-6(ra)
    35b4:	0ff00e93          	li	t4,255
    35b8:	00600193          	li	gp,6
    35bc:	01df0463          	beq	t5,t4,35c4 <lh_test+0xbc>
    35c0:	c71fc06f          	j	230 <fail>
    35c4:	ffffd097          	auipc	ra,0xffffd
    35c8:	c4c080e7          	jalr	-948(ra) # 210 <update_test>
    35cc:	00001097          	auipc	ra,0x1
    35d0:	99e08093          	addi	ra,ra,-1634 # 3f6a <tdat4lh>
    35d4:	ffc09f03          	lh	t5,-4(ra)
    35d8:	f0000e93          	li	t4,-256
    35dc:	00700193          	li	gp,7
    35e0:	01df0463          	beq	t5,t4,35e8 <lh_test+0xe0>
    35e4:	c4dfc06f          	j	230 <fail>
    35e8:	ffffd097          	auipc	ra,0xffffd
    35ec:	c28080e7          	jalr	-984(ra) # 210 <update_test>
    35f0:	00001097          	auipc	ra,0x1
    35f4:	97a08093          	addi	ra,ra,-1670 # 3f6a <tdat4lh>
    35f8:	ffe09f03          	lh	t5,-2(ra)
    35fc:	00001eb7          	lui	t4,0x1
    3600:	ff0e8e93          	addi	t4,t4,-16 # ff0 <sra_test+0x6c>
    3604:	00800193          	li	gp,8
    3608:	01df0463          	beq	t5,t4,3610 <lh_test+0x108>
    360c:	c25fc06f          	j	230 <fail>
    3610:	ffffd097          	auipc	ra,0xffffd
    3614:	c00080e7          	jalr	-1024(ra) # 210 <update_test>
    3618:	00001097          	auipc	ra,0x1
    361c:	95208093          	addi	ra,ra,-1710 # 3f6a <tdat4lh>
    3620:	00009f03          	lh	t5,0(ra)
    3624:	fffffeb7          	lui	t4,0xfffff
    3628:	00fe8e93          	addi	t4,t4,15 # fffff00f <SSEG+0xeef3f00f>
    362c:	00900193          	li	gp,9
    3630:	01df0463          	beq	t5,t4,3638 <lh_test+0x130>
    3634:	bfdfc06f          	j	230 <fail>
    3638:	ffffd097          	auipc	ra,0xffffd
    363c:	bd8080e7          	jalr	-1064(ra) # 210 <update_test>
    3640:	00001097          	auipc	ra,0x1
    3644:	92408093          	addi	ra,ra,-1756 # 3f64 <tdat1lh>
    3648:	fe008093          	addi	ra,ra,-32
    364c:	02009283          	lh	t0,32(ra)
    3650:	0ff00e93          	li	t4,255
    3654:	00a00193          	li	gp,10
    3658:	01d28463          	beq	t0,t4,3660 <lh_test+0x158>
    365c:	bd5fc06f          	j	230 <fail>
    3660:	ffffd097          	auipc	ra,0xffffd
    3664:	bb0080e7          	jalr	-1104(ra) # 210 <update_test>
    3668:	00001097          	auipc	ra,0x1
    366c:	8fc08093          	addi	ra,ra,-1796 # 3f64 <tdat1lh>
    3670:	ffb08093          	addi	ra,ra,-5
    3674:	00709283          	lh	t0,7(ra)
    3678:	f0000e93          	li	t4,-256
    367c:	00b00193          	li	gp,11
    3680:	01d28463          	beq	t0,t4,3688 <lh_test+0x180>
    3684:	badfc06f          	j	230 <fail>
    3688:	ffffd097          	auipc	ra,0xffffd
    368c:	b88080e7          	jalr	-1144(ra) # 210 <update_test>
    3690:	000f8067          	jr	t6

00003694 <lb_test>:
    3694:	00000513          	li	a0,0
    3698:	00a62023          	sw	a0,0(a2)
    369c:	00151513          	slli	a0,a0,0x1
    36a0:	00001097          	auipc	ra,0x1
    36a4:	8cc08093          	addi	ra,ra,-1844 # 3f6c <tdat1lb>
    36a8:	00008f03          	lb	t5,0(ra)
    36ac:	fff00e93          	li	t4,-1
    36b0:	00200193          	li	gp,2
    36b4:	01df0463          	beq	t5,t4,36bc <lb_test+0x28>
    36b8:	b79fc06f          	j	230 <fail>
    36bc:	ffffd097          	auipc	ra,0xffffd
    36c0:	b54080e7          	jalr	-1196(ra) # 210 <update_test>
    36c4:	00001097          	auipc	ra,0x1
    36c8:	8a808093          	addi	ra,ra,-1880 # 3f6c <tdat1lb>
    36cc:	00108f03          	lb	t5,1(ra)
    36d0:	00000e93          	li	t4,0
    36d4:	00300193          	li	gp,3
    36d8:	01df0463          	beq	t5,t4,36e0 <lb_test+0x4c>
    36dc:	b55fc06f          	j	230 <fail>
    36e0:	ffffd097          	auipc	ra,0xffffd
    36e4:	b30080e7          	jalr	-1232(ra) # 210 <update_test>
    36e8:	00001097          	auipc	ra,0x1
    36ec:	88408093          	addi	ra,ra,-1916 # 3f6c <tdat1lb>
    36f0:	00208f03          	lb	t5,2(ra)
    36f4:	ff000e93          	li	t4,-16
    36f8:	00400193          	li	gp,4
    36fc:	01df0463          	beq	t5,t4,3704 <lb_test+0x70>
    3700:	b31fc06f          	j	230 <fail>
    3704:	ffffd097          	auipc	ra,0xffffd
    3708:	b0c080e7          	jalr	-1268(ra) # 210 <update_test>
    370c:	00001097          	auipc	ra,0x1
    3710:	86008093          	addi	ra,ra,-1952 # 3f6c <tdat1lb>
    3714:	00308f03          	lb	t5,3(ra)
    3718:	00f00e93          	li	t4,15
    371c:	00500193          	li	gp,5
    3720:	01df0463          	beq	t5,t4,3728 <lb_test+0x94>
    3724:	b0dfc06f          	j	230 <fail>
    3728:	ffffd097          	auipc	ra,0xffffd
    372c:	ae8080e7          	jalr	-1304(ra) # 210 <update_test>
    3730:	00001097          	auipc	ra,0x1
    3734:	83f08093          	addi	ra,ra,-1985 # 3f6f <tdat4lb>
    3738:	ffd08f03          	lb	t5,-3(ra)
    373c:	fff00e93          	li	t4,-1
    3740:	00600193          	li	gp,6
    3744:	01df0463          	beq	t5,t4,374c <lb_test+0xb8>
    3748:	ae9fc06f          	j	230 <fail>
    374c:	ffffd097          	auipc	ra,0xffffd
    3750:	ac4080e7          	jalr	-1340(ra) # 210 <update_test>
    3754:	00001097          	auipc	ra,0x1
    3758:	81b08093          	addi	ra,ra,-2021 # 3f6f <tdat4lb>
    375c:	ffe08f03          	lb	t5,-2(ra)
    3760:	00000e93          	li	t4,0
    3764:	00700193          	li	gp,7
    3768:	01df0463          	beq	t5,t4,3770 <lb_test+0xdc>
    376c:	ac5fc06f          	j	230 <fail>
    3770:	ffffd097          	auipc	ra,0xffffd
    3774:	aa0080e7          	jalr	-1376(ra) # 210 <update_test>
    3778:	00000097          	auipc	ra,0x0
    377c:	7f708093          	addi	ra,ra,2039 # 3f6f <tdat4lb>
    3780:	fff08f03          	lb	t5,-1(ra)
    3784:	ff000e93          	li	t4,-16
    3788:	00800193          	li	gp,8
    378c:	01df0463          	beq	t5,t4,3794 <lb_test+0x100>
    3790:	aa1fc06f          	j	230 <fail>
    3794:	ffffd097          	auipc	ra,0xffffd
    3798:	a7c080e7          	jalr	-1412(ra) # 210 <update_test>
    379c:	00000097          	auipc	ra,0x0
    37a0:	7d308093          	addi	ra,ra,2003 # 3f6f <tdat4lb>
    37a4:	00008f03          	lb	t5,0(ra)
    37a8:	00f00e93          	li	t4,15
    37ac:	00900193          	li	gp,9
    37b0:	01df0463          	beq	t5,t4,37b8 <lb_test+0x124>
    37b4:	a7dfc06f          	j	230 <fail>
    37b8:	ffffd097          	auipc	ra,0xffffd
    37bc:	a58080e7          	jalr	-1448(ra) # 210 <update_test>
    37c0:	00000097          	auipc	ra,0x0
    37c4:	7ac08093          	addi	ra,ra,1964 # 3f6c <tdat1lb>
    37c8:	fe008093          	addi	ra,ra,-32
    37cc:	02008283          	lb	t0,32(ra)
    37d0:	fff00e93          	li	t4,-1
    37d4:	00a00193          	li	gp,10
    37d8:	01d28463          	beq	t0,t4,37e0 <lb_test+0x14c>
    37dc:	a55fc06f          	j	230 <fail>
    37e0:	ffffd097          	auipc	ra,0xffffd
    37e4:	a30080e7          	jalr	-1488(ra) # 210 <update_test>
    37e8:	00000097          	auipc	ra,0x0
    37ec:	78408093          	addi	ra,ra,1924 # 3f6c <tdat1lb>
    37f0:	ffa08093          	addi	ra,ra,-6
    37f4:	00708283          	lb	t0,7(ra)
    37f8:	00000e93          	li	t4,0
    37fc:	00b00193          	li	gp,11
    3800:	01d28463          	beq	t0,t4,3808 <lb_test+0x174>
    3804:	a2dfc06f          	j	230 <fail>
    3808:	ffffd097          	auipc	ra,0xffffd
    380c:	a08080e7          	jalr	-1528(ra) # 210 <update_test>
    3810:	000f8067          	jr	t6

00003814 <lbu_test>:
    3814:	00000513          	li	a0,0
    3818:	00a62023          	sw	a0,0(a2)
    381c:	00151513          	slli	a0,a0,0x1
    3820:	00000097          	auipc	ra,0x0
    3824:	74c08093          	addi	ra,ra,1868 # 3f6c <tdat1lb>
    3828:	0000cf03          	lbu	t5,0(ra)
    382c:	0ff00e93          	li	t4,255
    3830:	00200193          	li	gp,2
    3834:	01df0463          	beq	t5,t4,383c <lbu_test+0x28>
    3838:	9f9fc06f          	j	230 <fail>
    383c:	ffffd097          	auipc	ra,0xffffd
    3840:	9d4080e7          	jalr	-1580(ra) # 210 <update_test>
    3844:	00000097          	auipc	ra,0x0
    3848:	72808093          	addi	ra,ra,1832 # 3f6c <tdat1lb>
    384c:	0010cf03          	lbu	t5,1(ra)
    3850:	00000e93          	li	t4,0
    3854:	00300193          	li	gp,3
    3858:	01df0463          	beq	t5,t4,3860 <lbu_test+0x4c>
    385c:	9d5fc06f          	j	230 <fail>
    3860:	ffffd097          	auipc	ra,0xffffd
    3864:	9b0080e7          	jalr	-1616(ra) # 210 <update_test>
    3868:	00000097          	auipc	ra,0x0
    386c:	70408093          	addi	ra,ra,1796 # 3f6c <tdat1lb>
    3870:	0020cf03          	lbu	t5,2(ra)
    3874:	0f000e93          	li	t4,240
    3878:	00400193          	li	gp,4
    387c:	01df0463          	beq	t5,t4,3884 <lbu_test+0x70>
    3880:	9b1fc06f          	j	230 <fail>
    3884:	ffffd097          	auipc	ra,0xffffd
    3888:	98c080e7          	jalr	-1652(ra) # 210 <update_test>
    388c:	00000097          	auipc	ra,0x0
    3890:	6e008093          	addi	ra,ra,1760 # 3f6c <tdat1lb>
    3894:	0030cf03          	lbu	t5,3(ra)
    3898:	00f00e93          	li	t4,15
    389c:	00500193          	li	gp,5
    38a0:	01df0463          	beq	t5,t4,38a8 <lbu_test+0x94>
    38a4:	98dfc06f          	j	230 <fail>
    38a8:	ffffd097          	auipc	ra,0xffffd
    38ac:	968080e7          	jalr	-1688(ra) # 210 <update_test>
    38b0:	00000097          	auipc	ra,0x0
    38b4:	6bf08093          	addi	ra,ra,1727 # 3f6f <tdat4lb>
    38b8:	ffd0cf03          	lbu	t5,-3(ra)
    38bc:	0ff00e93          	li	t4,255
    38c0:	00600193          	li	gp,6
    38c4:	01df0463          	beq	t5,t4,38cc <lbu_test+0xb8>
    38c8:	969fc06f          	j	230 <fail>
    38cc:	ffffd097          	auipc	ra,0xffffd
    38d0:	944080e7          	jalr	-1724(ra) # 210 <update_test>
    38d4:	00000097          	auipc	ra,0x0
    38d8:	69b08093          	addi	ra,ra,1691 # 3f6f <tdat4lb>
    38dc:	ffe0cf03          	lbu	t5,-2(ra)
    38e0:	00000e93          	li	t4,0
    38e4:	00700193          	li	gp,7
    38e8:	01df0463          	beq	t5,t4,38f0 <lbu_test+0xdc>
    38ec:	945fc06f          	j	230 <fail>
    38f0:	ffffd097          	auipc	ra,0xffffd
    38f4:	920080e7          	jalr	-1760(ra) # 210 <update_test>
    38f8:	00000097          	auipc	ra,0x0
    38fc:	67708093          	addi	ra,ra,1655 # 3f6f <tdat4lb>
    3900:	fff0cf03          	lbu	t5,-1(ra)
    3904:	0f000e93          	li	t4,240
    3908:	00800193          	li	gp,8
    390c:	01df0463          	beq	t5,t4,3914 <lbu_test+0x100>
    3910:	921fc06f          	j	230 <fail>
    3914:	ffffd097          	auipc	ra,0xffffd
    3918:	8fc080e7          	jalr	-1796(ra) # 210 <update_test>
    391c:	00000097          	auipc	ra,0x0
    3920:	65308093          	addi	ra,ra,1619 # 3f6f <tdat4lb>
    3924:	0000cf03          	lbu	t5,0(ra)
    3928:	00f00e93          	li	t4,15
    392c:	00900193          	li	gp,9
    3930:	01df0463          	beq	t5,t4,3938 <lbu_test+0x124>
    3934:	8fdfc06f          	j	230 <fail>
    3938:	ffffd097          	auipc	ra,0xffffd
    393c:	8d8080e7          	jalr	-1832(ra) # 210 <update_test>
    3940:	00000097          	auipc	ra,0x0
    3944:	62c08093          	addi	ra,ra,1580 # 3f6c <tdat1lb>
    3948:	fe008093          	addi	ra,ra,-32
    394c:	0200c283          	lbu	t0,32(ra)
    3950:	0ff00e93          	li	t4,255
    3954:	00a00193          	li	gp,10
    3958:	01d28463          	beq	t0,t4,3960 <lbu_test+0x14c>
    395c:	8d5fc06f          	j	230 <fail>
    3960:	ffffd097          	auipc	ra,0xffffd
    3964:	8b0080e7          	jalr	-1872(ra) # 210 <update_test>
    3968:	00000097          	auipc	ra,0x0
    396c:	60408093          	addi	ra,ra,1540 # 3f6c <tdat1lb>
    3970:	ffa08093          	addi	ra,ra,-6
    3974:	0070c283          	lbu	t0,7(ra)
    3978:	00000e93          	li	t4,0
    397c:	00b00193          	li	gp,11
    3980:	01d28463          	beq	t0,t4,3988 <lbu_test+0x174>
    3984:	8adfc06f          	j	230 <fail>
    3988:	ffffd097          	auipc	ra,0xffffd
    398c:	888080e7          	jalr	-1912(ra) # 210 <update_test>
    3990:	000f8067          	jr	t6

00003994 <lhu_test>:
    3994:	00000513          	li	a0,0
    3998:	00a62023          	sw	a0,0(a2)
    399c:	00151513          	slli	a0,a0,0x1
    39a0:	00000097          	auipc	ra,0x0
    39a4:	5c408093          	addi	ra,ra,1476 # 3f64 <tdat1lh>
    39a8:	0000df03          	lhu	t5,0(ra)
    39ac:	0ff00e93          	li	t4,255
    39b0:	00200193          	li	gp,2
    39b4:	01df0463          	beq	t5,t4,39bc <lhu_test+0x28>
    39b8:	879fc06f          	j	230 <fail>
    39bc:	ffffd097          	auipc	ra,0xffffd
    39c0:	854080e7          	jalr	-1964(ra) # 210 <update_test>
    39c4:	00000097          	auipc	ra,0x0
    39c8:	5a008093          	addi	ra,ra,1440 # 3f64 <tdat1lh>
    39cc:	0020df03          	lhu	t5,2(ra)
    39d0:	00010eb7          	lui	t4,0x10
    39d4:	f00e8e93          	addi	t4,t4,-256 # ff00 <__global_pointer$+0xb7d4>
    39d8:	00300193          	li	gp,3
    39dc:	01df0463          	beq	t5,t4,39e4 <lhu_test+0x50>
    39e0:	851fc06f          	j	230 <fail>
    39e4:	ffffd097          	auipc	ra,0xffffd
    39e8:	82c080e7          	jalr	-2004(ra) # 210 <update_test>
    39ec:	00000097          	auipc	ra,0x0
    39f0:	57808093          	addi	ra,ra,1400 # 3f64 <tdat1lh>
    39f4:	0040df03          	lhu	t5,4(ra)
    39f8:	00001eb7          	lui	t4,0x1
    39fc:	ff0e8e93          	addi	t4,t4,-16 # ff0 <sra_test+0x6c>
    3a00:	00400193          	li	gp,4
    3a04:	01df0463          	beq	t5,t4,3a0c <lhu_test+0x78>
    3a08:	829fc06f          	j	230 <fail>
    3a0c:	ffffd097          	auipc	ra,0xffffd
    3a10:	804080e7          	jalr	-2044(ra) # 210 <update_test>
    3a14:	00000097          	auipc	ra,0x0
    3a18:	55008093          	addi	ra,ra,1360 # 3f64 <tdat1lh>
    3a1c:	0060df03          	lhu	t5,6(ra)
    3a20:	0000feb7          	lui	t4,0xf
    3a24:	00fe8e93          	addi	t4,t4,15 # f00f <__global_pointer$+0xa8e3>
    3a28:	00500193          	li	gp,5
    3a2c:	01df0463          	beq	t5,t4,3a34 <lhu_test+0xa0>
    3a30:	801fc06f          	j	230 <fail>
    3a34:	ffffc097          	auipc	ra,0xffffc
    3a38:	7dc080e7          	jalr	2012(ra) # 210 <update_test>
    3a3c:	00000097          	auipc	ra,0x0
    3a40:	52e08093          	addi	ra,ra,1326 # 3f6a <tdat4lh>
    3a44:	ffa0df03          	lhu	t5,-6(ra)
    3a48:	0ff00e93          	li	t4,255
    3a4c:	00600193          	li	gp,6
    3a50:	01df0463          	beq	t5,t4,3a58 <lhu_test+0xc4>
    3a54:	fdcfc06f          	j	230 <fail>
    3a58:	ffffc097          	auipc	ra,0xffffc
    3a5c:	7b8080e7          	jalr	1976(ra) # 210 <update_test>
    3a60:	00000097          	auipc	ra,0x0
    3a64:	50a08093          	addi	ra,ra,1290 # 3f6a <tdat4lh>
    3a68:	ffc0df03          	lhu	t5,-4(ra)
    3a6c:	00010eb7          	lui	t4,0x10
    3a70:	f00e8e93          	addi	t4,t4,-256 # ff00 <__global_pointer$+0xb7d4>
    3a74:	00700193          	li	gp,7
    3a78:	01df0463          	beq	t5,t4,3a80 <lhu_test+0xec>
    3a7c:	fb4fc06f          	j	230 <fail>
    3a80:	ffffc097          	auipc	ra,0xffffc
    3a84:	790080e7          	jalr	1936(ra) # 210 <update_test>
    3a88:	00000097          	auipc	ra,0x0
    3a8c:	4e208093          	addi	ra,ra,1250 # 3f6a <tdat4lh>
    3a90:	ffe0df03          	lhu	t5,-2(ra)
    3a94:	00001eb7          	lui	t4,0x1
    3a98:	ff0e8e93          	addi	t4,t4,-16 # ff0 <sra_test+0x6c>
    3a9c:	00800193          	li	gp,8
    3aa0:	01df0463          	beq	t5,t4,3aa8 <lhu_test+0x114>
    3aa4:	f8cfc06f          	j	230 <fail>
    3aa8:	ffffc097          	auipc	ra,0xffffc
    3aac:	768080e7          	jalr	1896(ra) # 210 <update_test>
    3ab0:	00000097          	auipc	ra,0x0
    3ab4:	4ba08093          	addi	ra,ra,1210 # 3f6a <tdat4lh>
    3ab8:	0000df03          	lhu	t5,0(ra)
    3abc:	0000feb7          	lui	t4,0xf
    3ac0:	00fe8e93          	addi	t4,t4,15 # f00f <__global_pointer$+0xa8e3>
    3ac4:	00900193          	li	gp,9
    3ac8:	01df0463          	beq	t5,t4,3ad0 <lhu_test+0x13c>
    3acc:	f64fc06f          	j	230 <fail>
    3ad0:	ffffc097          	auipc	ra,0xffffc
    3ad4:	740080e7          	jalr	1856(ra) # 210 <update_test>
    3ad8:	00000097          	auipc	ra,0x0
    3adc:	48c08093          	addi	ra,ra,1164 # 3f64 <tdat1lh>
    3ae0:	fe008093          	addi	ra,ra,-32
    3ae4:	0200d283          	lhu	t0,32(ra)
    3ae8:	0ff00e93          	li	t4,255
    3aec:	00a00193          	li	gp,10
    3af0:	01d28463          	beq	t0,t4,3af8 <lhu_test+0x164>
    3af4:	f3cfc06f          	j	230 <fail>
    3af8:	ffffc097          	auipc	ra,0xffffc
    3afc:	718080e7          	jalr	1816(ra) # 210 <update_test>
    3b00:	00000097          	auipc	ra,0x0
    3b04:	46408093          	addi	ra,ra,1124 # 3f64 <tdat1lh>
    3b08:	ffb08093          	addi	ra,ra,-5
    3b0c:	0070d283          	lhu	t0,7(ra)
    3b10:	00010eb7          	lui	t4,0x10
    3b14:	f00e8e93          	addi	t4,t4,-256 # ff00 <__global_pointer$+0xb7d4>
    3b18:	00b00193          	li	gp,11
    3b1c:	01d28463          	beq	t0,t4,3b24 <lhu_test+0x190>
    3b20:	f10fc06f          	j	230 <fail>
    3b24:	ffffc097          	auipc	ra,0xffffc
    3b28:	6ec080e7          	jalr	1772(ra) # 210 <update_test>
    3b2c:	000f8067          	jr	t6

00003b30 <sh_test>:
    3b30:	00000513          	li	a0,0
    3b34:	00a62023          	sw	a0,0(a2)
    3b38:	00151513          	slli	a0,a0,0x1
    3b3c:	00000097          	auipc	ra,0x0
    3b40:	43e08093          	addi	ra,ra,1086 # 3f7a <tdat1sh>
    3b44:	0aa00113          	li	sp,170
    3b48:	00209023          	sh	sp,0(ra)
    3b4c:	00009f03          	lh	t5,0(ra)
    3b50:	0aa00e93          	li	t4,170
    3b54:	00200193          	li	gp,2
    3b58:	01df0463          	beq	t5,t4,3b60 <sh_test+0x30>
    3b5c:	ed4fc06f          	j	230 <fail>
    3b60:	ffffc097          	auipc	ra,0xffffc
    3b64:	6b0080e7          	jalr	1712(ra) # 210 <update_test>
    3b68:	00000097          	auipc	ra,0x0
    3b6c:	41208093          	addi	ra,ra,1042 # 3f7a <tdat1sh>
    3b70:	ffffb137          	lui	sp,0xffffb
    3b74:	a0010113          	addi	sp,sp,-1536 # ffffaa00 <SSEG+0xeef3aa00>
    3b78:	00209123          	sh	sp,2(ra)
    3b7c:	00209f03          	lh	t5,2(ra)
    3b80:	ffffbeb7          	lui	t4,0xffffb
    3b84:	a00e8e93          	addi	t4,t4,-1536 # ffffaa00 <SSEG+0xeef3aa00>
    3b88:	00300193          	li	gp,3
    3b8c:	01df0463          	beq	t5,t4,3b94 <sh_test+0x64>
    3b90:	ea0fc06f          	j	230 <fail>
    3b94:	ffffc097          	auipc	ra,0xffffc
    3b98:	67c080e7          	jalr	1660(ra) # 210 <update_test>
    3b9c:	00000097          	auipc	ra,0x0
    3ba0:	3de08093          	addi	ra,ra,990 # 3f7a <tdat1sh>
    3ba4:	beef1137          	lui	sp,0xbeef1
    3ba8:	aa010113          	addi	sp,sp,-1376 # beef0aa0 <SSEG+0xade30aa0>
    3bac:	00209223          	sh	sp,4(ra)
    3bb0:	00409f03          	lh	t5,4(ra)
    3bb4:	00001eb7          	lui	t4,0x1
    3bb8:	aa0e8e93          	addi	t4,t4,-1376 # aa0 <sll_test+0x34>
    3bbc:	00400193          	li	gp,4
    3bc0:	01df0463          	beq	t5,t4,3bc8 <sh_test+0x98>
    3bc4:	e6cfc06f          	j	230 <fail>
    3bc8:	ffffc097          	auipc	ra,0xffffc
    3bcc:	648080e7          	jalr	1608(ra) # 210 <update_test>
    3bd0:	00000097          	auipc	ra,0x0
    3bd4:	3aa08093          	addi	ra,ra,938 # 3f7a <tdat1sh>
    3bd8:	ffffa137          	lui	sp,0xffffa
    3bdc:	00a10113          	addi	sp,sp,10 # ffffa00a <SSEG+0xeef3a00a>
    3be0:	00209323          	sh	sp,6(ra)
    3be4:	00609f03          	lh	t5,6(ra)
    3be8:	ffffaeb7          	lui	t4,0xffffa
    3bec:	00ae8e93          	addi	t4,t4,10 # ffffa00a <SSEG+0xeef3a00a>
    3bf0:	00500193          	li	gp,5
    3bf4:	01df0463          	beq	t5,t4,3bfc <sh_test+0xcc>
    3bf8:	e38fc06f          	j	230 <fail>
    3bfc:	ffffc097          	auipc	ra,0xffffc
